Archive member included because of file (symbol)

/media/data/coding/GSoC/AVT/px4+mavlink/Firmware/Build/px4io-v2_default.build/nuttx-export/libs/libnuttx.a(sched-irq_attach.o)
                              /media/data/coding/GSoC/AVT/px4+mavlink/Firmware/Build/px4io-v2_default.build//media/data/coding/GSoC/AVT/px4+mavlink/Firmware/src/drivers/stm32/module.pre.o (irq_attach)
/media/data/coding/GSoC/AVT/px4+mavlink/Firmware/Build/px4io-v2_default.build/nuttx-export/libs/libnuttx.a(sched-irq_initialize.o)
                              /media/data/coding/GSoC/AVT/px4+mavlink/Firmware/Build/px4io-v2_default.build/nuttx-export/libs/libnuttx.a(sched-irq_attach.o) (g_irqvector)
/media/data/coding/GSoC/AVT/px4+mavlink/Firmware/Build/px4io-v2_default.build/nuttx-export/libs/libnuttx.a(sched-irq_unexpectedisr.o)
                              /media/data/coding/GSoC/AVT/px4+mavlink/Firmware/Build/px4io-v2_default.build/nuttx-export/libs/libnuttx.a(sched-irq_attach.o) (irq_unexpected_isr)
/media/data/coding/GSoC/AVT/px4+mavlink/Firmware/Build/px4io-v2_default.build/nuttx-export/libs/libnuttx.a(c-lib_abort.o)
                              (abort)
/media/data/coding/GSoC/AVT/px4+mavlink/Firmware/Build/px4io-v2_default.build/nuttx-export/libs/libnuttx.a(c-lib_cfsetspeed.o)
                              /media/data/coding/GSoC/AVT/px4+mavlink/Firmware/Build/px4io-v2_default.build//media/data/coding/GSoC/AVT/px4+mavlink/Firmware/src/modules/px4iofirmware/module.pre.o (cfsetspeed)
/media/data/coding/GSoC/AVT/px4+mavlink/Firmware/Build/px4io-v2_default.build/nuttx-export/libs/libnuttx.a(c-lib_crc32.o)
                              /media/data/coding/GSoC/AVT/px4+mavlink/Firmware/Build/px4io-v2_default.build//media/data/coding/GSoC/AVT/px4+mavlink/Firmware/src/modules/px4iofirmware/module.pre.o (crc32)
/media/data/coding/GSoC/AVT/px4+mavlink/Firmware/Build/px4io-v2_default.build/nuttx-export/libs/libnuttx.a(c-lib_lowsyslog.o)
                              /media/data/coding/GSoC/AVT/px4+mavlink/Firmware/Build/px4io-v2_default.build//media/data/coding/GSoC/AVT/px4+mavlink/Firmware/src/modules/px4iofirmware/module.pre.o (lowsyslog)
/media/data/coding/GSoC/AVT/px4+mavlink/Firmware/Build/px4io-v2_default.build/nuttx-export/libs/libnuttx.a(c-lib_memchr.o)
                              /media/data/coding/GSoC/AVT/px4+mavlink/Firmware/Build/px4io-v2_default.build//media/data/coding/GSoC/AVT/px4+mavlink/Firmware/src/modules/px4iofirmware/module.pre.o (memchr)
/media/data/coding/GSoC/AVT/px4+mavlink/Firmware/Build/px4io-v2_default.build/nuttx-export/libs/libnuttx.a(c-lib_memcpy.o)
                              /media/data/coding/GSoC/AVT/px4+mavlink/Firmware/Build/px4io-v2_default.build//media/data/coding/GSoC/AVT/px4+mavlink/Firmware/src/modules/px4iofirmware/module.pre.o (memcpy)
/media/data/coding/GSoC/AVT/px4+mavlink/Firmware/Build/px4io-v2_default.build/nuttx-export/libs/libnuttx.a(c-lib_memset.o)
                              /media/data/coding/GSoC/AVT/px4+mavlink/Firmware/Build/px4io-v2_default.build//media/data/coding/GSoC/AVT/px4+mavlink/Firmware/src/modules/px4iofirmware/module.pre.o (memset)
/media/data/coding/GSoC/AVT/px4+mavlink/Firmware/Build/px4io-v2_default.build/nuttx-export/libs/libnuttx.a(c-lib_printf.o)
                              /media/data/coding/GSoC/AVT/px4+mavlink/Firmware/Build/px4io-v2_default.build//media/data/coding/GSoC/AVT/px4+mavlink/Firmware/src/modules/px4iofirmware/module.pre.o (printf)
/media/data/coding/GSoC/AVT/px4+mavlink/Firmware/Build/px4io-v2_default.build/nuttx-export/libs/libnuttx.a(c-lib_sscanf.o)
                              /media/data/coding/GSoC/AVT/px4+mavlink/Firmware/Build/px4io-v2_default.build//media/data/coding/GSoC/AVT/px4+mavlink/Firmware/src/modules/px4iofirmware/module.pre.o (sscanf)
/media/data/coding/GSoC/AVT/px4+mavlink/Firmware/Build/px4io-v2_default.build/nuttx-export/libs/libnuttx.a(c-lib_strchr.o)
                              /media/data/coding/GSoC/AVT/px4+mavlink/Firmware/Build/px4io-v2_default.build/nuttx-export/libs/libnuttx.a(c-lib_sscanf.o) (strchr)
/media/data/coding/GSoC/AVT/px4+mavlink/Firmware/Build/px4io-v2_default.build/nuttx-export/libs/libnuttx.a(c-lib_strcmp.o)
                              /media/data/coding/GSoC/AVT/px4+mavlink/Firmware/Build/px4io-v2_default.build//media/data/coding/GSoC/AVT/px4+mavlink/Firmware/src/modules/px4iofirmware/module.pre.o (strcmp)
/media/data/coding/GSoC/AVT/px4+mavlink/Firmware/Build/px4io-v2_default.build/nuttx-export/libs/libnuttx.a(c-lib_strcspn.o)
                              /media/data/coding/GSoC/AVT/px4+mavlink/Firmware/Build/px4io-v2_default.build/nuttx-export/libs/libnuttx.a(c-lib_sscanf.o) (strcspn)
/media/data/coding/GSoC/AVT/px4+mavlink/Firmware/Build/px4io-v2_default.build/nuttx-export/libs/libnuttx.a(c-lib_strncpy.o)
                              /media/data/coding/GSoC/AVT/px4+mavlink/Firmware/Build/px4io-v2_default.build/nuttx-export/libs/libnuttx.a(c-lib_sscanf.o) (strncpy)
/media/data/coding/GSoC/AVT/px4+mavlink/Firmware/Build/px4io-v2_default.build/nuttx-export/libs/libnuttx.a(c-lib_strtol.o)
                              /media/data/coding/GSoC/AVT/px4+mavlink/Firmware/Build/px4io-v2_default.build/nuttx-export/libs/libnuttx.a(c-lib_sscanf.o) (strtol)
/media/data/coding/GSoC/AVT/px4+mavlink/Firmware/Build/px4io-v2_default.build/nuttx-export/libs/libnuttx.a(c-lib_strtoul.o)
                              /media/data/coding/GSoC/AVT/px4+mavlink/Firmware/Build/px4io-v2_default.build/nuttx-export/libs/libnuttx.a(c-lib_strtol.o) (strtoul)
/media/data/coding/GSoC/AVT/px4+mavlink/Firmware/Build/px4io-v2_default.build/nuttx-export/libs/libnuttx.a(c-lib_syslog.o)
                              /media/data/coding/GSoC/AVT/px4+mavlink/Firmware/Build/px4io-v2_default.build/nuttx-export/libs/libnuttx.a(c-lib_printf.o) (vsyslog)
/media/data/coding/GSoC/AVT/px4+mavlink/Firmware/Build/px4io-v2_default.build/nuttx-export/libs/libnuttx.a(c-lib_tcgetattr.o)
                              /media/data/coding/GSoC/AVT/px4+mavlink/Firmware/Build/px4io-v2_default.build//media/data/coding/GSoC/AVT/px4+mavlink/Firmware/src/modules/px4iofirmware/module.pre.o (tcgetattr)
/media/data/coding/GSoC/AVT/px4+mavlink/Firmware/Build/px4io-v2_default.build/nuttx-export/libs/libnuttx.a(c-lib_tcsetattr.o)
                              /media/data/coding/GSoC/AVT/px4+mavlink/Firmware/Build/px4io-v2_default.build//media/data/coding/GSoC/AVT/px4+mavlink/Firmware/src/modules/px4iofirmware/module.pre.o (tcsetattr)
/media/data/coding/GSoC/AVT/px4+mavlink/Firmware/Build/px4io-v2_default.build/nuttx-export/libs/libnuttx.a(c-lib_vsnprintf.o)
                              /media/data/coding/GSoC/AVT/px4+mavlink/Firmware/Build/px4io-v2_default.build//media/data/coding/GSoC/AVT/px4+mavlink/Firmware/src/modules/px4iofirmware/module.pre.o (vsnprintf)
/media/data/coding/GSoC/AVT/px4+mavlink/Firmware/Build/px4io-v2_default.build/nuttx-export/libs/libnuttx.a(c-sq_addafter.o)
                              /media/data/coding/GSoC/AVT/px4+mavlink/Firmware/Build/px4io-v2_default.build//media/data/coding/GSoC/AVT/px4+mavlink/Firmware/src/drivers/stm32/module.pre.o (sq_addafter)
/media/data/coding/GSoC/AVT/px4+mavlink/Firmware/Build/px4io-v2_default.build/nuttx-export/libs/libnuttx.a(c-sq_addfirst.o)
                              /media/data/coding/GSoC/AVT/px4+mavlink/Firmware/Build/px4io-v2_default.build//media/data/coding/GSoC/AVT/px4+mavlink/Firmware/src/drivers/stm32/module.pre.o (sq_addfirst)
/media/data/coding/GSoC/AVT/px4+mavlink/Firmware/Build/px4io-v2_default.build/nuttx-export/libs/libnuttx.a(c-sq_addlast.o)
                              /media/data/coding/GSoC/AVT/px4+mavlink/Firmware/Build/px4io-v2_default.build/nuttx-export/libs/libnuttx.a(c-sq_addafter.o) (sq_addlast)
/media/data/coding/GSoC/AVT/px4+mavlink/Firmware/Build/px4io-v2_default.build/nuttx-export/libs/libnuttx.a(c-sq_rem.o)
                              /media/data/coding/GSoC/AVT/px4+mavlink/Firmware/Build/px4io-v2_default.build//media/data/coding/GSoC/AVT/px4+mavlink/Firmware/src/drivers/stm32/module.pre.o (sq_rem)
/media/data/coding/GSoC/AVT/px4+mavlink/Firmware/Build/px4io-v2_default.build/nuttx-export/libs/libnuttx.a(mm-mm_calloc.o)
                              /media/data/coding/GSoC/AVT/px4+mavlink/Firmware/Build/px4io-v2_default.build//media/data/coding/GSoC/AVT/px4+mavlink/Firmware/src/modules/px4iofirmware/module.pre.o (calloc)
/media/data/coding/GSoC/AVT/px4+mavlink/Firmware/Build/px4io-v2_default.build/nuttx-export/libs/libnuttx.a(mm-mm_free.o)
                              /media/data/coding/GSoC/AVT/px4+mavlink/Firmware/Build/px4io-v2_default.build//media/data/coding/GSoC/AVT/px4+mavlink/Firmware/src/modules/px4iofirmware/module.pre.o (free)
/media/data/coding/GSoC/AVT/px4+mavlink/Firmware/Build/px4io-v2_default.build/nuttx-export/libs/libnuttx.a(mm-mm_mallinfo.o)
                              /media/data/coding/GSoC/AVT/px4+mavlink/Firmware/Build/px4io-v2_default.build//media/data/coding/GSoC/AVT/px4+mavlink/Firmware/src/modules/px4iofirmware/module.pre.o (mallinfo)
/media/data/coding/GSoC/AVT/px4+mavlink/Firmware/Build/px4io-v2_default.build/nuttx-export/libs/libnuttx.a(mm-mm_malloc.o)
                              /media/data/coding/GSoC/AVT/px4+mavlink/Firmware/Build/px4io-v2_default.build//media/data/coding/GSoC/AVT/px4+mavlink/Firmware/src/modules/px4iofirmware/module.pre.o (malloc)
/media/data/coding/GSoC/AVT/px4+mavlink/Firmware/Build/px4io-v2_default.build/nuttx-export/libs/libnuttx.a(mm-mm_sem.o)
                              /media/data/coding/GSoC/AVT/px4+mavlink/Firmware/Build/px4io-v2_default.build/nuttx-export/libs/libnuttx.a(mm-mm_free.o) (mm_takesemaphore)
/media/data/coding/GSoC/AVT/px4+mavlink/Firmware/Build/px4io-v2_default.build/nuttx-export/libs/libnuttx.a(mm-mm_size2ndx.o)
                              /media/data/coding/GSoC/AVT/px4+mavlink/Firmware/Build/px4io-v2_default.build/nuttx-export/libs/libnuttx.a(mm-mm_malloc.o) (mm_size2ndx)
/media/data/coding/GSoC/AVT/px4+mavlink/Firmware/Build/px4io-v2_default.build/nuttx-export/libs/libnuttx.a(mm-mm_user.o)
                              /media/data/coding/GSoC/AVT/px4+mavlink/Firmware/Build/px4io-v2_default.build/nuttx-export/libs/libnuttx.a(mm-mm_free.o) (g_mmheap)
/media/data/coding/GSoC/AVT/px4+mavlink/Firmware/Build/px4io-v2_default.build/nuttx-export/libs/libnuttx.a(mm-mm_zalloc.o)
                              /media/data/coding/GSoC/AVT/px4+mavlink/Firmware/Build/px4io-v2_default.build/nuttx-export/libs/libnuttx.a(mm-mm_calloc.o) (zalloc)
/media/data/coding/GSoC/AVT/px4+mavlink/Firmware/Build/px4io-v2_default.build/nuttx-export/libs/libnuttx.a(arch-stm32_dma.o)
                              /media/data/coding/GSoC/AVT/px4+mavlink/Firmware/Build/px4io-v2_default.build//media/data/coding/GSoC/AVT/px4+mavlink/Firmware/src/modules/px4iofirmware/module.pre.o (stm32_dmachannel)
/media/data/coding/GSoC/AVT/px4+mavlink/Firmware/Build/px4io-v2_default.build/nuttx-export/libs/libnuttx.a(arch-stm32_gpio.o)
                              /media/data/coding/GSoC/AVT/px4+mavlink/Firmware/Build/px4io-v2_default.build//media/data/coding/GSoC/AVT/px4+mavlink/Firmware/src/drivers/boards/px4io-v2/module.pre.o (stm32_configgpio)
/media/data/coding/GSoC/AVT/px4+mavlink/Firmware/Build/px4io-v2_default.build/nuttx-export/libs/libnuttx.a(arch-stm32_irq.o)
                              /media/data/coding/GSoC/AVT/px4+mavlink/Firmware/Build/px4io-v2_default.build/nuttx-export/libs/libnuttx.a(sched-irq_attach.o) (up_disable_irq)
/media/data/coding/GSoC/AVT/px4+mavlink/Firmware/Build/px4io-v2_default.build/nuttx-export/libs/libnuttx.a(arch-stm32_serial.o)
                              /media/data/coding/GSoC/AVT/px4+mavlink/Firmware/Build/px4io-v2_default.build//media/data/coding/GSoC/AVT/px4+mavlink/Firmware/src/modules/px4iofirmware/module.pre.o (stm32_serial_dma_poll)
/media/data/coding/GSoC/AVT/px4+mavlink/Firmware/Build/px4io-v2_default.build/nuttx-export/libs/libnuttx.a(arch-stm32_start.o)
                              (__start)
/media/data/coding/GSoC/AVT/px4+mavlink/Firmware/Build/px4io-v2_default.build/nuttx-export/libs/libnuttx.a(arch-up_assert.o)
                              /media/data/coding/GSoC/AVT/px4+mavlink/Firmware/Build/px4io-v2_default.build//media/data/coding/GSoC/AVT/px4+mavlink/Firmware/src/modules/px4iofirmware/module.pre.o (up_assert)
/media/data/coding/GSoC/AVT/px4+mavlink/Firmware/Build/px4io-v2_default.build/nuttx-export/libs/libnuttx.a(arch-up_hardfault.o)
                              /media/data/coding/GSoC/AVT/px4+mavlink/Firmware/Build/px4io-v2_default.build/nuttx-export/libs/libnuttx.a(arch-stm32_irq.o) (up_hardfault)
/media/data/coding/GSoC/AVT/px4+mavlink/Firmware/Build/px4io-v2_default.build/nuttx-export/libs/libnuttx.a(arch-up_modifyreg32.o)
                              /media/data/coding/GSoC/AVT/px4+mavlink/Firmware/Build/px4io-v2_default.build//media/data/coding/GSoC/AVT/px4+mavlink/Firmware/src/drivers/stm32/module.pre.o (modifyreg32)
/media/data/coding/GSoC/AVT/px4+mavlink/Firmware/Build/px4io-v2_default.build/nuttx-export/libs/libnuttx.a(arch-up_svcall.o)
                              /media/data/coding/GSoC/AVT/px4+mavlink/Firmware/Build/px4io-v2_default.build/nuttx-export/libs/libnuttx.a(arch-stm32_irq.o) (up_svcall)
/media/data/coding/GSoC/AVT/px4+mavlink/Firmware/Build/px4io-v2_default.build/nuttx-export/libs/libnuttx.a(arch-up_udelay.o)
                              /media/data/coding/GSoC/AVT/px4+mavlink/Firmware/Build/px4io-v2_default.build//media/data/coding/GSoC/AVT/px4+mavlink/Firmware/src/modules/px4iofirmware/module.pre.o (up_udelay)
/media/data/coding/GSoC/AVT/px4+mavlink/Firmware/Build/px4io-v2_default.build/nuttx-export/libs/libnuttx.a(arch-up_vectors.o)
                              (_vectors)
/media/data/coding/GSoC/AVT/px4+mavlink/Firmware/Build/px4io-v2_default.build/nuttx-export/libs/libnuttx.a(cxx-libxx_cxa_atexit.o)
                              /media/data/coding/GSoC/AVT/px4+mavlink/Firmware/Build/px4io-v2_default.build//media/data/coding/GSoC/AVT/px4+mavlink/Firmware/src/modules/px4iofirmware/module.pre.o (__dso_handle)
/media/data/coding/GSoC/AVT/px4+mavlink/Firmware/Build/px4io-v2_default.build/nuttx-export/libs/libnuttx.a(cxx-libxx_cxapurevirtual.o)
                              /media/data/coding/GSoC/AVT/px4+mavlink/Firmware/Build/px4io-v2_default.build//media/data/coding/GSoC/AVT/px4+mavlink/Firmware/src/modules/px4iofirmware/module.pre.o (__cxa_pure_virtual)
/media/data/coding/GSoC/AVT/px4+mavlink/Firmware/Build/px4io-v2_default.build/nuttx-export/libs/libnuttx.a(cxx-libxx_delete.o)
                              /media/data/coding/GSoC/AVT/px4+mavlink/Firmware/Build/px4io-v2_default.build//media/data/coding/GSoC/AVT/px4+mavlink/Firmware/src/modules/px4iofirmware/module.pre.o (operator delete(void*))
/media/data/coding/GSoC/AVT/px4+mavlink/Firmware/Build/px4io-v2_default.build/nuttx-export/libs/libnuttx.a(cxx-libxx_eabi_atexit.o)
                              /media/data/coding/GSoC/AVT/px4+mavlink/Firmware/Build/px4io-v2_default.build//media/data/coding/GSoC/AVT/px4+mavlink/Firmware/src/modules/px4iofirmware/module.pre.o (__aeabi_atexit)
/media/data/coding/GSoC/AVT/px4+mavlink/Firmware/Build/px4io-v2_default.build/nuttx-export/libs/libnuttx.a(cxx-libxx_new.o)
                              /media/data/coding/GSoC/AVT/px4+mavlink/Firmware/Build/px4io-v2_default.build//media/data/coding/GSoC/AVT/px4+mavlink/Firmware/src/modules/px4iofirmware/module.pre.o (operator new(unsigned int))
/media/data/coding/GSoC/AVT/px4+mavlink/Firmware/Build/px4io-v2_default.build/nuttx-export/libs/libnuttx.a(fs-fs_ioctl.o)
                              /media/data/coding/GSoC/AVT/px4+mavlink/Firmware/Build/px4io-v2_default.build/nuttx-export/libs/libnuttx.a(c-lib_tcgetattr.o) (ioctl)
/media/data/coding/GSoC/AVT/px4+mavlink/Firmware/Build/px4io-v2_default.build/nuttx-export/libs/libnuttx.a(fs-fs_open.o)
                              /media/data/coding/GSoC/AVT/px4+mavlink/Firmware/Build/px4io-v2_default.build//media/data/coding/GSoC/AVT/px4+mavlink/Firmware/src/modules/px4iofirmware/module.pre.o (open)
/media/data/coding/GSoC/AVT/px4+mavlink/Firmware/Build/px4io-v2_default.build/nuttx-export/libs/libnuttx.a(fs-fs_read.o)
                              /media/data/coding/GSoC/AVT/px4+mavlink/Firmware/Build/px4io-v2_default.build//media/data/coding/GSoC/AVT/px4+mavlink/Firmware/src/modules/px4iofirmware/module.pre.o (read)
/media/data/coding/GSoC/AVT/px4+mavlink/Firmware/Build/px4io-v2_default.build/nuttx-export/libs/libnuttx.a(fs-fs_write.o)
                              /media/data/coding/GSoC/AVT/px4+mavlink/Firmware/Build/px4io-v2_default.build//media/data/coding/GSoC/AVT/px4+mavlink/Firmware/src/modules/px4iofirmware/module.pre.o (write)
/media/data/coding/GSoC/AVT/px4+mavlink/Firmware/Build/px4io-v2_default.build/nuttx-export/libs/libnuttx.a(drivers-serialirq.o)
                              /media/data/coding/GSoC/AVT/px4+mavlink/Firmware/Build/px4io-v2_default.build/nuttx-export/libs/libnuttx.a(arch-stm32_serial.o) (uart_xmitchars)
/media/data/coding/GSoC/AVT/px4+mavlink/Firmware/Build/px4io-v2_default.build/nuttx-export/libs/libnuttx.a(drivers-serial.o)
                              /media/data/coding/GSoC/AVT/px4+mavlink/Firmware/Build/px4io-v2_default.build/nuttx-export/libs/libnuttx.a(arch-stm32_serial.o) (uart_register)
/media/data/coding/GSoC/AVT/px4+mavlink/Firmware/Build/px4io-v2_default.build/nuttx-export/libs/libnuttx.a(sched-errno_getptr.o)
                              /media/data/coding/GSoC/AVT/px4+mavlink/Firmware/Build/px4io-v2_default.build/nuttx-export/libs/libnuttx.a(mm-mm_sem.o) (get_errno_ptr)
/media/data/coding/GSoC/AVT/px4+mavlink/Firmware/Build/px4io-v2_default.build/nuttx-export/libs/libnuttx.a(sched-exit.o)
                              /media/data/coding/GSoC/AVT/px4+mavlink/Firmware/Build/px4io-v2_default.build/nuttx-export/libs/libnuttx.a(c-lib_abort.o) (exit)
/media/data/coding/GSoC/AVT/px4+mavlink/Firmware/Build/px4io-v2_default.build/nuttx-export/libs/libnuttx.a(sched-getpid.o)
                              /media/data/coding/GSoC/AVT/px4+mavlink/Firmware/Build/px4io-v2_default.build/nuttx-export/libs/libnuttx.a(mm-mm_sem.o) (getpid)
/media/data/coding/GSoC/AVT/px4+mavlink/Firmware/Build/px4io-v2_default.build/nuttx-export/libs/libnuttx.a(sched-os_start.o)
                              /media/data/coding/GSoC/AVT/px4+mavlink/Firmware/Build/px4io-v2_default.build/nuttx-export/libs/libnuttx.a(arch-stm32_start.o) (os_start)
/media/data/coding/GSoC/AVT/px4+mavlink/Firmware/Build/px4io-v2_default.build/nuttx-export/libs/libnuttx.a(sched-sched_garbage.o)
                              /media/data/coding/GSoC/AVT/px4+mavlink/Firmware/Build/px4io-v2_default.build/nuttx-export/libs/libnuttx.a(sched-os_start.o) (sched_garbagecollection)
/media/data/coding/GSoC/AVT/px4+mavlink/Firmware/Build/px4io-v2_default.build/nuttx-export/libs/libnuttx.a(sched-sched_getfiles.o)
                              /media/data/coding/GSoC/AVT/px4+mavlink/Firmware/Build/px4io-v2_default.build/nuttx-export/libs/libnuttx.a(fs-fs_ioctl.o) (sched_getfiles)
/media/data/coding/GSoC/AVT/px4+mavlink/Firmware/Build/px4io-v2_default.build/nuttx-export/libs/libnuttx.a(sched-sem_post.o)
                              /media/data/coding/GSoC/AVT/px4+mavlink/Firmware/Build/px4io-v2_default.build/nuttx-export/libs/libnuttx.a(mm-mm_sem.o) (sem_post)
/media/data/coding/GSoC/AVT/px4+mavlink/Firmware/Build/px4io-v2_default.build/nuttx-export/libs/libnuttx.a(sched-sem_trywait.o)
                              /media/data/coding/GSoC/AVT/px4+mavlink/Firmware/Build/px4io-v2_default.build/nuttx-export/libs/libnuttx.a(mm-mm_sem.o) (sem_trywait)
/media/data/coding/GSoC/AVT/px4+mavlink/Firmware/Build/px4io-v2_default.build/nuttx-export/libs/libnuttx.a(sched-sem_wait.o)
                              /media/data/coding/GSoC/AVT/px4+mavlink/Firmware/Build/px4io-v2_default.build/nuttx-export/libs/libnuttx.a(mm-mm_sem.o) (sem_wait)
/media/data/coding/GSoC/AVT/px4+mavlink/Firmware/Build/px4io-v2_default.build/nuttx-export/libs/libnuttx.a(sched-task_exithook.o)
                              /media/data/coding/GSoC/AVT/px4+mavlink/Firmware/Build/px4io-v2_default.build/nuttx-export/libs/libnuttx.a(sched-exit.o) (task_exithook)
/media/data/coding/GSoC/AVT/px4+mavlink/Firmware/Build/px4io-v2_default.build/nuttx-export/libs/libnuttx.a(sched-task_recover.o)
                              /media/data/coding/GSoC/AVT/px4+mavlink/Firmware/Build/px4io-v2_default.build/nuttx-export/libs/libnuttx.a(sched-task_exithook.o) (task_recover)
/media/data/coding/GSoC/AVT/px4+mavlink/Firmware/Build/px4io-v2_default.build/nuttx-export/libs/libnuttx.a(sched-wd_cancel.o)
                              /media/data/coding/GSoC/AVT/px4+mavlink/Firmware/Build/px4io-v2_default.build/nuttx-export/libs/libnuttx.a(sched-task_recover.o) (wd_cancel)
/media/data/coding/GSoC/AVT/px4+mavlink/Firmware/Build/px4io-v2_default.build/nuttx-export/libs/libnuttx.a(sched-wd_delete.o)
                              /media/data/coding/GSoC/AVT/px4+mavlink/Firmware/Build/px4io-v2_default.build/nuttx-export/libs/libnuttx.a(sched-task_recover.o) (wd_delete)
/media/data/coding/GSoC/AVT/px4+mavlink/Firmware/Build/px4io-v2_default.build/nuttx-export/libs/libnuttx.a(sched-wd_initialize.o)
                              /media/data/coding/GSoC/AVT/px4+mavlink/Firmware/Build/px4io-v2_default.build/nuttx-export/libs/libnuttx.a(sched-wd_cancel.o) (g_wdactivelist)
/media/data/coding/GSoC/AVT/px4+mavlink/Firmware/Build/px4io-v2_default.build/nuttx-export/libs/libnuttx.a(c-dq_addfirst.o)
                              /media/data/coding/GSoC/AVT/px4+mavlink/Firmware/Build/px4io-v2_default.build/nuttx-export/libs/libnuttx.a(sched-os_start.o) (dq_addfirst)
/media/data/coding/GSoC/AVT/px4+mavlink/Firmware/Build/px4io-v2_default.build/nuttx-export/libs/libnuttx.a(c-lib_cfgetspeed.o)
                              /media/data/coding/GSoC/AVT/px4+mavlink/Firmware/Build/px4io-v2_default.build/nuttx-export/libs/libnuttx.a(arch-stm32_serial.o) (cfgetspeed)
/media/data/coding/GSoC/AVT/px4+mavlink/Firmware/Build/px4io-v2_default.build/nuttx-export/libs/libnuttx.a(c-lib_checkbase.o)
                              /media/data/coding/GSoC/AVT/px4+mavlink/Firmware/Build/px4io-v2_default.build/nuttx-export/libs/libnuttx.a(c-lib_strtoul.o) (lib_checkbase)
/media/data/coding/GSoC/AVT/px4+mavlink/Firmware/Build/px4io-v2_default.build/nuttx-export/libs/libnuttx.a(c-lib_isbasedigit.o)
                              /media/data/coding/GSoC/AVT/px4+mavlink/Firmware/Build/px4io-v2_default.build/nuttx-export/libs/libnuttx.a(c-lib_strtoul.o) (lib_isbasedigit)
/media/data/coding/GSoC/AVT/px4+mavlink/Firmware/Build/px4io-v2_default.build/nuttx-export/libs/libnuttx.a(c-lib_libvsprintf.o)
                              /media/data/coding/GSoC/AVT/px4+mavlink/Firmware/Build/px4io-v2_default.build/nuttx-export/libs/libnuttx.a(c-lib_lowsyslog.o) (lib_vsprintf)
/media/data/coding/GSoC/AVT/px4+mavlink/Firmware/Build/px4io-v2_default.build/nuttx-export/libs/libnuttx.a(c-lib_lowoutstream.o)
                              /media/data/coding/GSoC/AVT/px4+mavlink/Firmware/Build/px4io-v2_default.build/nuttx-export/libs/libnuttx.a(c-lib_lowsyslog.o) (lib_lowoutstream)
/media/data/coding/GSoC/AVT/px4+mavlink/Firmware/Build/px4io-v2_default.build/nuttx-export/libs/libnuttx.a(c-lib_memoutstream.o)
                              /media/data/coding/GSoC/AVT/px4+mavlink/Firmware/Build/px4io-v2_default.build/nuttx-export/libs/libnuttx.a(c-lib_vsnprintf.o) (lib_memoutstream)
/media/data/coding/GSoC/AVT/px4+mavlink/Firmware/Build/px4io-v2_default.build/nuttx-export/libs/libnuttx.a(c-lib_nulloutstream.o)
                              /media/data/coding/GSoC/AVT/px4+mavlink/Firmware/Build/px4io-v2_default.build/nuttx-export/libs/libnuttx.a(c-lib_libvsprintf.o) (lib_nulloutstream)
/media/data/coding/GSoC/AVT/px4+mavlink/Firmware/Build/px4io-v2_default.build/nuttx-export/libs/libnuttx.a(c-lib_rawoutstream.o)
                              /media/data/coding/GSoC/AVT/px4+mavlink/Firmware/Build/px4io-v2_default.build/nuttx-export/libs/libnuttx.a(c-lib_syslog.o) (lib_rawoutstream)
/media/data/coding/GSoC/AVT/px4+mavlink/Firmware/Build/px4io-v2_default.build/nuttx-export/libs/libnuttx.a(c-lib_skipspace.o)
                              /media/data/coding/GSoC/AVT/px4+mavlink/Firmware/Build/px4io-v2_default.build/nuttx-export/libs/libnuttx.a(c-lib_strtol.o) (lib_skipspace)
/media/data/coding/GSoC/AVT/px4+mavlink/Firmware/Build/px4io-v2_default.build/nuttx-export/libs/libnuttx.a(c-lib_strlen.o)
                              /media/data/coding/GSoC/AVT/px4+mavlink/Firmware/Build/px4io-v2_default.build/nuttx-export/libs/libnuttx.a(c-lib_libvsprintf.o) (strlen)
/media/data/coding/GSoC/AVT/px4+mavlink/Firmware/Build/px4io-v2_default.build/nuttx-export/libs/libnuttx.a(c-sem_init.o)
                              /media/data/coding/GSoC/AVT/px4+mavlink/Firmware/Build/px4io-v2_default.build/nuttx-export/libs/libnuttx.a(mm-mm_sem.o) (sem_init)
/media/data/coding/GSoC/AVT/px4+mavlink/Firmware/Build/px4io-v2_default.build/nuttx-export/libs/libnuttx.a(c-sq_remafter.o)
                              /media/data/coding/GSoC/AVT/px4+mavlink/Firmware/Build/px4io-v2_default.build/nuttx-export/libs/libnuttx.a(c-sq_rem.o) (sq_remafter)
/media/data/coding/GSoC/AVT/px4+mavlink/Firmware/Build/px4io-v2_default.build/nuttx-export/libs/libnuttx.a(c-sq_remfirst.o)
                              /media/data/coding/GSoC/AVT/px4+mavlink/Firmware/Build/px4io-v2_default.build/nuttx-export/libs/libnuttx.a(sched-sched_garbage.o) (sq_remfirst)
/media/data/coding/GSoC/AVT/px4+mavlink/Firmware/Build/px4io-v2_default.build/nuttx-export/libs/libnuttx.a(mm-mm_addfreechunk.o)
                              /media/data/coding/GSoC/AVT/px4+mavlink/Firmware/Build/px4io-v2_default.build/nuttx-export/libs/libnuttx.a(mm-mm_free.o) (mm_addfreechunk)
/media/data/coding/GSoC/AVT/px4+mavlink/Firmware/Build/px4io-v2_default.build/nuttx-export/libs/libnuttx.a(mm-mm_initialize.o)
                              /media/data/coding/GSoC/AVT/px4+mavlink/Firmware/Build/px4io-v2_default.build/nuttx-export/libs/libnuttx.a(mm-mm_user.o) (mm_addregion)
/media/data/coding/GSoC/AVT/px4+mavlink/Firmware/Build/px4io-v2_default.build/nuttx-export/libs/libnuttx.a(arch-stm32_allocateheap.o)
                              /media/data/coding/GSoC/AVT/px4+mavlink/Firmware/Build/px4io-v2_default.build/nuttx-export/libs/libnuttx.a(sched-os_start.o) (up_allocate_heap)
/media/data/coding/GSoC/AVT/px4+mavlink/Firmware/Build/px4io-v2_default.build/nuttx-export/libs/libnuttx.a(arch-stm32_idle.o)
                              /media/data/coding/GSoC/AVT/px4+mavlink/Firmware/Build/px4io-v2_default.build/nuttx-export/libs/libnuttx.a(sched-os_start.o) (up_idle)
/media/data/coding/GSoC/AVT/px4+mavlink/Firmware/Build/px4io-v2_default.build/nuttx-export/libs/libnuttx.a(arch-stm32_lowputc.o)
                              /media/data/coding/GSoC/AVT/px4+mavlink/Firmware/Build/px4io-v2_default.build/nuttx-export/libs/libnuttx.a(arch-stm32_serial.o) (up_lowputc)
/media/data/coding/GSoC/AVT/px4+mavlink/Firmware/Build/px4io-v2_default.build/nuttx-export/libs/libnuttx.a(arch-stm32_rcc.o)
                              /media/data/coding/GSoC/AVT/px4+mavlink/Firmware/Build/px4io-v2_default.build/nuttx-export/libs/libnuttx.a(arch-stm32_start.o) (stm32_clockconfig)
/media/data/coding/GSoC/AVT/px4+mavlink/Firmware/Build/px4io-v2_default.build/nuttx-export/libs/libnuttx.a(arch-stm32_vectors.o)
                              /media/data/coding/GSoC/AVT/px4+mavlink/Firmware/Build/px4io-v2_default.build/nuttx-export/libs/libnuttx.a(arch-up_assert.o) (g_idle_topstack)
/media/data/coding/GSoC/AVT/px4+mavlink/Firmware/Build/px4io-v2_default.build/nuttx-export/libs/libnuttx.a(arch-up_blocktask.o)
                              /media/data/coding/GSoC/AVT/px4+mavlink/Firmware/Build/px4io-v2_default.build/nuttx-export/libs/libnuttx.a(sched-sem_wait.o) (up_block_task)
/media/data/coding/GSoC/AVT/px4+mavlink/Firmware/Build/px4io-v2_default.build/nuttx-export/libs/libnuttx.a(arch-up_copystate.o)
                              /media/data/coding/GSoC/AVT/px4+mavlink/Firmware/Build/px4io-v2_default.build/nuttx-export/libs/libnuttx.a(arch-up_blocktask.o) (up_copystate)
/media/data/coding/GSoC/AVT/px4+mavlink/Firmware/Build/px4io-v2_default.build/nuttx-export/libs/libnuttx.a(arch-up_exception.o)
                              /media/data/coding/GSoC/AVT/px4+mavlink/Firmware/Build/px4io-v2_default.build/nuttx-export/libs/libnuttx.a(arch-up_vectors.o) (exception_common)
/media/data/coding/GSoC/AVT/px4+mavlink/Firmware/Build/px4io-v2_default.build/nuttx-export/libs/libnuttx.a(arch-up_exit.o)
                              /media/data/coding/GSoC/AVT/px4+mavlink/Firmware/Build/px4io-v2_default.build/nuttx-export/libs/libnuttx.a(sched-exit.o) (_exit)
/media/data/coding/GSoC/AVT/px4+mavlink/Firmware/Build/px4io-v2_default.build/nuttx-export/libs/libnuttx.a(arch-up_fullcontextrestore.o)
                              /media/data/coding/GSoC/AVT/px4+mavlink/Firmware/Build/px4io-v2_default.build/nuttx-export/libs/libnuttx.a(arch-up_exit.o) (up_fullcontextrestore)
/media/data/coding/GSoC/AVT/px4+mavlink/Firmware/Build/px4io-v2_default.build/nuttx-export/libs/libnuttx.a(arch-up_initialize.o)
                              /media/data/coding/GSoC/AVT/px4+mavlink/Firmware/Build/px4io-v2_default.build/nuttx-export/libs/libnuttx.a(sched-os_start.o) (up_initialize)
/media/data/coding/GSoC/AVT/px4+mavlink/Firmware/Build/px4io-v2_default.build/nuttx-export/libs/libnuttx.a(arch-up_initialstate.o)
                              /media/data/coding/GSoC/AVT/px4+mavlink/Firmware/Build/px4io-v2_default.build/nuttx-export/libs/libnuttx.a(sched-os_start.o) (up_initial_state)
/media/data/coding/GSoC/AVT/px4+mavlink/Firmware/Build/px4io-v2_default.build/nuttx-export/libs/libnuttx.a(arch-up_interruptcontext.o)
                              /media/data/coding/GSoC/AVT/px4+mavlink/Firmware/Build/px4io-v2_default.build/nuttx-export/libs/libnuttx.a(drivers-serial.o) (up_interrupt_context)
/media/data/coding/GSoC/AVT/px4+mavlink/Firmware/Build/px4io-v2_default.build/nuttx-export/libs/libnuttx.a(arch-up_mdelay.o)
                              /media/data/coding/GSoC/AVT/px4+mavlink/Firmware/Build/px4io-v2_default.build/nuttx-export/libs/libnuttx.a(drivers-serial.o) (up_mdelay)
/media/data/coding/GSoC/AVT/px4+mavlink/Firmware/Build/px4io-v2_default.build/nuttx-export/libs/libnuttx.a(arch-up_switchcontext.o)
                              /media/data/coding/GSoC/AVT/px4+mavlink/Firmware/Build/px4io-v2_default.build/nuttx-export/libs/libnuttx.a(arch-up_blocktask.o) (up_switchcontext)
/media/data/coding/GSoC/AVT/px4+mavlink/Firmware/Build/px4io-v2_default.build/nuttx-export/libs/libnuttx.a(arch-up_unblocktask.o)
                              /media/data/coding/GSoC/AVT/px4+mavlink/Firmware/Build/px4io-v2_default.build/nuttx-export/libs/libnuttx.a(sched-sem_post.o) (up_unblock_task)
/media/data/coding/GSoC/AVT/px4+mavlink/Firmware/Build/px4io-v2_default.build/nuttx-export/libs/libnuttx.a(fs-fs_files.o)
                              /media/data/coding/GSoC/AVT/px4+mavlink/Firmware/Build/px4io-v2_default.build/nuttx-export/libs/libnuttx.a(fs-fs_open.o) (files_allocate)
/media/data/coding/GSoC/AVT/px4+mavlink/Firmware/Build/px4io-v2_default.build/nuttx-export/libs/libnuttx.a(fs-fs_inodeaddref.o)
                              /media/data/coding/GSoC/AVT/px4+mavlink/Firmware/Build/px4io-v2_default.build/nuttx-export/libs/libnuttx.a(fs-fs_files.o) (inode_addref)
/media/data/coding/GSoC/AVT/px4+mavlink/Firmware/Build/px4io-v2_default.build/nuttx-export/libs/libnuttx.a(fs-fs_inodefind.o)
                              /media/data/coding/GSoC/AVT/px4+mavlink/Firmware/Build/px4io-v2_default.build/nuttx-export/libs/libnuttx.a(fs-fs_open.o) (inode_find)
/media/data/coding/GSoC/AVT/px4+mavlink/Firmware/Build/px4io-v2_default.build/nuttx-export/libs/libnuttx.a(fs-fs_inode.o)
                              /media/data/coding/GSoC/AVT/px4+mavlink/Firmware/Build/px4io-v2_default.build/nuttx-export/libs/libnuttx.a(fs-fs_inodeaddref.o) (inode_semtake)
/media/data/coding/GSoC/AVT/px4+mavlink/Firmware/Build/px4io-v2_default.build/nuttx-export/libs/libnuttx.a(fs-fs_inoderelease.o)
                              /media/data/coding/GSoC/AVT/px4+mavlink/Firmware/Build/px4io-v2_default.build/nuttx-export/libs/libnuttx.a(fs-fs_open.o) (inode_release)
/media/data/coding/GSoC/AVT/px4+mavlink/Firmware/Build/px4io-v2_default.build/nuttx-export/libs/libnuttx.a(fs-fs_registerdriver.o)
                              /media/data/coding/GSoC/AVT/px4+mavlink/Firmware/Build/px4io-v2_default.build/nuttx-export/libs/libnuttx.a(drivers-serial.o) (register_driver)
/media/data/coding/GSoC/AVT/px4+mavlink/Firmware/Build/px4io-v2_default.build/nuttx-export/libs/libnuttx.a(sched-group_create.o)
                              /media/data/coding/GSoC/AVT/px4+mavlink/Firmware/Build/px4io-v2_default.build/nuttx-export/libs/libnuttx.a(sched-os_start.o) (group_allocate)
/media/data/coding/GSoC/AVT/px4+mavlink/Firmware/Build/px4io-v2_default.build/nuttx-export/libs/libnuttx.a(sched-group_leave.o)
                              /media/data/coding/GSoC/AVT/px4+mavlink/Firmware/Build/px4io-v2_default.build/nuttx-export/libs/libnuttx.a(sched-task_exithook.o) (group_leave)
/media/data/coding/GSoC/AVT/px4+mavlink/Firmware/Build/px4io-v2_default.build/nuttx-export/libs/libnuttx.a(sched-group_setupidlefiles.o)
                              /media/data/coding/GSoC/AVT/px4+mavlink/Firmware/Build/px4io-v2_default.build/nuttx-export/libs/libnuttx.a(sched-os_start.o) (group_setupidlefiles)
/media/data/coding/GSoC/AVT/px4+mavlink/Firmware/Build/px4io-v2_default.build/nuttx-export/libs/libnuttx.a(sched-os_bringup.o)
                              /media/data/coding/GSoC/AVT/px4+mavlink/Firmware/Build/px4io-v2_default.build/nuttx-export/libs/libnuttx.a(sched-os_start.o) (os_bringup)
/media/data/coding/GSoC/AVT/px4+mavlink/Firmware/Build/px4io-v2_default.build/nuttx-export/libs/libnuttx.a(sched-sched_addblocked.o)
                              /media/data/coding/GSoC/AVT/px4+mavlink/Firmware/Build/px4io-v2_default.build/nuttx-export/libs/libnuttx.a(arch-up_blocktask.o) (sched_addblocked)
/media/data/coding/GSoC/AVT/px4+mavlink/Firmware/Build/px4io-v2_default.build/nuttx-export/libs/libnuttx.a(sched-sched_addprioritized.o)
                              /media/data/coding/GSoC/AVT/px4+mavlink/Firmware/Build/px4io-v2_default.build/nuttx-export/libs/libnuttx.a(sched-sched_addblocked.o) (sched_addprioritized)
/media/data/coding/GSoC/AVT/px4+mavlink/Firmware/Build/px4io-v2_default.build/nuttx-export/libs/libnuttx.a(sched-sched_addreadytorun.o)
                              /media/data/coding/GSoC/AVT/px4+mavlink/Firmware/Build/px4io-v2_default.build/nuttx-export/libs/libnuttx.a(arch-up_unblocktask.o) (sched_addreadytorun)
/media/data/coding/GSoC/AVT/px4+mavlink/Firmware/Build/px4io-v2_default.build/nuttx-export/libs/libnuttx.a(sched-sched_free.o)
                              /media/data/coding/GSoC/AVT/px4+mavlink/Firmware/Build/px4io-v2_default.build/nuttx-export/libs/libnuttx.a(sched-group_leave.o) (sched_ufree)
/media/data/coding/GSoC/AVT/px4+mavlink/Firmware/Build/px4io-v2_default.build/nuttx-export/libs/libnuttx.a(sched-sched_mergepending.o)
                              /media/data/coding/GSoC/AVT/px4+mavlink/Firmware/Build/px4io-v2_default.build/nuttx-export/libs/libnuttx.a(arch-up_blocktask.o) (sched_mergepending)
/media/data/coding/GSoC/AVT/px4+mavlink/Firmware/Build/px4io-v2_default.build/nuttx-export/libs/libnuttx.a(sched-sched_removeblocked.o)
                              /media/data/coding/GSoC/AVT/px4+mavlink/Firmware/Build/px4io-v2_default.build/nuttx-export/libs/libnuttx.a(arch-up_unblocktask.o) (sched_removeblocked)
/media/data/coding/GSoC/AVT/px4+mavlink/Firmware/Build/px4io-v2_default.build/nuttx-export/libs/libnuttx.a(sched-sched_removereadytorun.o)
                              /media/data/coding/GSoC/AVT/px4+mavlink/Firmware/Build/px4io-v2_default.build/nuttx-export/libs/libnuttx.a(arch-up_blocktask.o) (sched_removereadytorun)
/media/data/coding/GSoC/AVT/px4+mavlink/Firmware/Build/px4io-v2_default.build/nuttx-export/libs/libnuttx.a(sched-sem_destroy.o)
                              /media/data/coding/GSoC/AVT/px4+mavlink/Firmware/Build/px4io-v2_default.build/nuttx-export/libs/libnuttx.a(fs-fs_files.o) (sem_destroy)
/media/data/coding/GSoC/AVT/px4+mavlink/Firmware/Build/px4io-v2_default.build/nuttx-export/libs/libnuttx.a(sched-task_create.o)
                              /media/data/coding/GSoC/AVT/px4+mavlink/Firmware/Build/px4io-v2_default.build/nuttx-export/libs/libnuttx.a(sched-os_bringup.o) (task_create)
/media/data/coding/GSoC/AVT/px4+mavlink/Firmware/Build/px4io-v2_default.build/nuttx-export/libs/libnuttx.a(sched-task_exit.o)
                              /media/data/coding/GSoC/AVT/px4+mavlink/Firmware/Build/px4io-v2_default.build/nuttx-export/libs/libnuttx.a(arch-up_exit.o) (task_exit)
/media/data/coding/GSoC/AVT/px4+mavlink/Firmware/Build/px4io-v2_default.build/nuttx-export/libs/libnuttx.a(sched-task_setup.o)
                              /media/data/coding/GSoC/AVT/px4+mavlink/Firmware/Build/px4io-v2_default.build/nuttx-export/libs/libnuttx.a(sched-task_create.o) (task_schedsetup)
/media/data/coding/GSoC/AVT/px4+mavlink/Firmware/Build/px4io-v2_default.build/nuttx-export/libs/libnuttx.a(sched-task_start.o)
                              /media/data/coding/GSoC/AVT/px4+mavlink/Firmware/Build/px4io-v2_default.build/nuttx-export/libs/libnuttx.a(sched-task_create.o) (task_start)
/media/data/coding/GSoC/AVT/px4+mavlink/Firmware/Build/px4io-v2_default.build/nuttx-export/libs/libnuttx.a(sched-task_terminate.o)
                              /media/data/coding/GSoC/AVT/px4+mavlink/Firmware/Build/px4io-v2_default.build/nuttx-export/libs/libnuttx.a(sched-task_exit.o) (task_terminate)
/media/data/coding/GSoC/AVT/px4+mavlink/Firmware/Build/px4io-v2_default.build/nuttx-export/libs/libnuttx.a(c-dq_addlast.o)
                              /media/data/coding/GSoC/AVT/px4+mavlink/Firmware/Build/px4io-v2_default.build/nuttx-export/libs/libnuttx.a(sched-sched_addblocked.o) (dq_addlast)
/media/data/coding/GSoC/AVT/px4+mavlink/Firmware/Build/px4io-v2_default.build/nuttx-export/libs/libnuttx.a(c-dq_rem.o)
                              /media/data/coding/GSoC/AVT/px4+mavlink/Firmware/Build/px4io-v2_default.build/nuttx-export/libs/libnuttx.a(sched-sched_removeblocked.o) (dq_rem)
/media/data/coding/GSoC/AVT/px4+mavlink/Firmware/Build/px4io-v2_default.build/nuttx-export/libs/libnuttx.a(c-lib_strdup.o)
                              /media/data/coding/GSoC/AVT/px4+mavlink/Firmware/Build/px4io-v2_default.build/nuttx-export/libs/libnuttx.a(sched-task_setup.o) (strdup)
/media/data/coding/GSoC/AVT/px4+mavlink/Firmware/Build/px4io-v2_default.build/nuttx-export/libs/libnuttx.a(arch-stm32_timerisr.o)
                              /media/data/coding/GSoC/AVT/px4+mavlink/Firmware/Build/px4io-v2_default.build/nuttx-export/libs/libnuttx.a(arch-up_initialize.o) (up_timerinit)
/media/data/coding/GSoC/AVT/px4+mavlink/Firmware/Build/px4io-v2_default.build/nuttx-export/libs/libnuttx.a(arch-up_createstack.o)
                              /media/data/coding/GSoC/AVT/px4+mavlink/Firmware/Build/px4io-v2_default.build/nuttx-export/libs/libnuttx.a(sched-task_create.o) (up_create_stack)
/media/data/coding/GSoC/AVT/px4+mavlink/Firmware/Build/px4io-v2_default.build/nuttx-export/libs/libnuttx.a(arch-up_doirq.o)
                              /media/data/coding/GSoC/AVT/px4+mavlink/Firmware/Build/px4io-v2_default.build/nuttx-export/libs/libnuttx.a(arch-up_exception.o) (up_doirq)
/media/data/coding/GSoC/AVT/px4+mavlink/Firmware/Build/px4io-v2_default.build/nuttx-export/libs/libnuttx.a(arch-up_releasestack.o)
                              /media/data/coding/GSoC/AVT/px4+mavlink/Firmware/Build/px4io-v2_default.build/nuttx-export/libs/libnuttx.a(arch-up_createstack.o) (up_release_stack)
/media/data/coding/GSoC/AVT/px4+mavlink/Firmware/Build/px4io-v2_default.build/nuttx-export/libs/libnuttx.a(fs-fs_close.o)
                              /media/data/coding/GSoC/AVT/px4+mavlink/Firmware/Build/px4io-v2_default.build/nuttx-export/libs/libnuttx.a(sched-group_setupidlefiles.o) (close)
/media/data/coding/GSoC/AVT/px4+mavlink/Firmware/Build/px4io-v2_default.build/nuttx-export/libs/libnuttx.a(fs-fs_filedup2.o)
                              /media/data/coding/GSoC/AVT/px4+mavlink/Firmware/Build/px4io-v2_default.build/nuttx-export/libs/libnuttx.a(sched-group_setupidlefiles.o) (dup2)
/media/data/coding/GSoC/AVT/px4+mavlink/Firmware/Build/px4io-v2_default.build/nuttx-export/libs/libnuttx.a(fs-fs_inodereserve.o)
                              /media/data/coding/GSoC/AVT/px4+mavlink/Firmware/Build/px4io-v2_default.build/nuttx-export/libs/libnuttx.a(fs-fs_registerdriver.o) (inode_reserve)
/media/data/coding/GSoC/AVT/px4+mavlink/Firmware/Build/px4io-v2_default.build/nuttx-export/libs/libnuttx.a(sched-group_setuptaskfiles.o)
                              /media/data/coding/GSoC/AVT/px4+mavlink/Firmware/Build/px4io-v2_default.build/nuttx-export/libs/libnuttx.a(sched-task_create.o) (group_setuptaskfiles)
/media/data/coding/GSoC/AVT/px4+mavlink/Firmware/Build/px4io-v2_default.build/nuttx-export/libs/libnuttx.a(sched-irq_dispatch.o)
                              /media/data/coding/GSoC/AVT/px4+mavlink/Firmware/Build/px4io-v2_default.build/nuttx-export/libs/libnuttx.a(arch-up_doirq.o) (irq_dispatch)
/media/data/coding/GSoC/AVT/px4+mavlink/Firmware/Build/px4io-v2_default.build/nuttx-export/libs/libnuttx.a(sched-sched_gettcb.o)
                              /media/data/coding/GSoC/AVT/px4+mavlink/Firmware/Build/px4io-v2_default.build/nuttx-export/libs/libnuttx.a(sched-task_terminate.o) (sched_gettcb)
/media/data/coding/GSoC/AVT/px4+mavlink/Firmware/Build/px4io-v2_default.build/nuttx-export/libs/libnuttx.a(sched-sched_lock.o)
                              /media/data/coding/GSoC/AVT/px4+mavlink/Firmware/Build/px4io-v2_default.build/nuttx-export/libs/libnuttx.a(sched-task_setup.o) (sched_lock)
/media/data/coding/GSoC/AVT/px4+mavlink/Firmware/Build/px4io-v2_default.build/nuttx-export/libs/libnuttx.a(sched-sched_processtimer.o)
                              /media/data/coding/GSoC/AVT/px4+mavlink/Firmware/Build/px4io-v2_default.build/nuttx-export/libs/libnuttx.a(arch-stm32_timerisr.o) (sched_process_timer)
/media/data/coding/GSoC/AVT/px4+mavlink/Firmware/Build/px4io-v2_default.build/nuttx-export/libs/libnuttx.a(sched-sched_releasetcb.o)
                              /media/data/coding/GSoC/AVT/px4+mavlink/Firmware/Build/px4io-v2_default.build/nuttx-export/libs/libnuttx.a(sched-task_create.o) (sched_releasetcb)
/media/data/coding/GSoC/AVT/px4+mavlink/Firmware/Build/px4io-v2_default.build/nuttx-export/libs/libnuttx.a(sched-sched_unlock.o)
                              /media/data/coding/GSoC/AVT/px4+mavlink/Firmware/Build/px4io-v2_default.build/nuttx-export/libs/libnuttx.a(sched-task_setup.o) (sched_unlock)
/media/data/coding/GSoC/AVT/px4+mavlink/Firmware/Build/px4io-v2_default.build/nuttx-export/libs/libnuttx.a(sched-task_activate.o)
                              /media/data/coding/GSoC/AVT/px4+mavlink/Firmware/Build/px4io-v2_default.build/nuttx-export/libs/libnuttx.a(sched-task_create.o) (task_activate)
/media/data/coding/GSoC/AVT/px4+mavlink/Firmware/Build/px4io-v2_default.build/nuttx-export/libs/libnuttx.a(c-lib_strcpy.o)
                              /media/data/coding/GSoC/AVT/px4+mavlink/Firmware/Build/px4io-v2_default.build/nuttx-export/libs/libnuttx.a(c-lib_strdup.o) (strcpy)
/media/data/coding/GSoC/AVT/px4+mavlink/Firmware/Build/px4io-v2_default.build/nuttx-export/libs/libnuttx.a(arch-up_releasepending.o)
                              /media/data/coding/GSoC/AVT/px4+mavlink/Firmware/Build/px4io-v2_default.build/nuttx-export/libs/libnuttx.a(sched-sched_unlock.o) (up_release_pending)
/home/avnishks/gcc-arm-none-eabi-4_6-2012q2/bin/../lib/gcc/arm-none-eabi/4.6.2/armv7-m/libgcc.a(_arm_addsubsf3.o)
                              /media/data/coding/GSoC/AVT/px4+mavlink/Firmware/Build/px4io-v2_default.build//media/data/coding/GSoC/AVT/px4+mavlink/Firmware/src/modules/px4iofirmware/module.pre.o (__aeabi_fsub)
/home/avnishks/gcc-arm-none-eabi-4_6-2012q2/bin/../lib/gcc/arm-none-eabi/4.6.2/armv7-m/libgcc.a(_arm_muldivsf3.o)
                              /media/data/coding/GSoC/AVT/px4+mavlink/Firmware/Build/px4io-v2_default.build//media/data/coding/GSoC/AVT/px4+mavlink/Firmware/src/modules/px4iofirmware/module.pre.o (__aeabi_fmul)
/home/avnishks/gcc-arm-none-eabi-4_6-2012q2/bin/../lib/gcc/arm-none-eabi/4.6.2/armv7-m/libgcc.a(_arm_cmpsf2.o)
                              /media/data/coding/GSoC/AVT/px4+mavlink/Firmware/Build/px4io-v2_default.build//media/data/coding/GSoC/AVT/px4+mavlink/Firmware/src/modules/px4iofirmware/module.pre.o (__aeabi_fcmplt)
/home/avnishks/gcc-arm-none-eabi-4_6-2012q2/bin/../lib/gcc/arm-none-eabi/4.6.2/armv7-m/libgcc.a(_arm_fixsfsi.o)
                              /media/data/coding/GSoC/AVT/px4+mavlink/Firmware/Build/px4io-v2_default.build//media/data/coding/GSoC/AVT/px4+mavlink/Firmware/src/modules/px4iofirmware/module.pre.o (__aeabi_f2iz)
/home/avnishks/gcc-arm-none-eabi-4_6-2012q2/bin/../lib/gcc/arm-none-eabi/4.6.2/armv7-m/libgcc.a(_arm_fixunssfsi.o)
                              /media/data/coding/GSoC/AVT/px4+mavlink/Firmware/Build/px4io-v2_default.build//media/data/coding/GSoC/AVT/px4+mavlink/Firmware/src/modules/px4iofirmware/module.pre.o (__aeabi_f2uiz)
/home/avnishks/gcc-arm-none-eabi-4_6-2012q2/bin/../lib/gcc/arm-none-eabi/4.6.2/armv7-m/libgcc.a(_aeabi_uldivmod.o)
                              /media/data/coding/GSoC/AVT/px4+mavlink/Firmware/Build/px4io-v2_default.build//media/data/coding/GSoC/AVT/px4+mavlink/Firmware/src/drivers/stm32/module.pre.o (__aeabi_uldivmod)
/home/avnishks/gcc-arm-none-eabi-4_6-2012q2/bin/../lib/gcc/arm-none-eabi/4.6.2/armv7-m/libgcc.a(bpabi.o)
                              /home/avnishks/gcc-arm-none-eabi-4_6-2012q2/bin/../lib/gcc/arm-none-eabi/4.6.2/armv7-m/libgcc.a(_aeabi_uldivmod.o) (__gnu_uldivmod_helper)
/home/avnishks/gcc-arm-none-eabi-4_6-2012q2/bin/../lib/gcc/arm-none-eabi/4.6.2/armv7-m/libgcc.a(unwind-arm.o)
                              /home/avnishks/gcc-arm-none-eabi-4_6-2012q2/bin/../lib/gcc/arm-none-eabi/4.6.2/armv7-m/libgcc.a(bpabi.o) (__aeabi_unwind_cpp_pr0)
/home/avnishks/gcc-arm-none-eabi-4_6-2012q2/bin/../lib/gcc/arm-none-eabi/4.6.2/armv7-m/libgcc.a(libunwind.o)
                              /home/avnishks/gcc-arm-none-eabi-4_6-2012q2/bin/../lib/gcc/arm-none-eabi/4.6.2/armv7-m/libgcc.a(unwind-arm.o) (restore_core_regs)
/home/avnishks/gcc-arm-none-eabi-4_6-2012q2/bin/../lib/gcc/arm-none-eabi/4.6.2/armv7-m/libgcc.a(pr-support.o)
                              /home/avnishks/gcc-arm-none-eabi-4_6-2012q2/bin/../lib/gcc/arm-none-eabi/4.6.2/armv7-m/libgcc.a(unwind-arm.o) (__gnu_unwind_execute)
/home/avnishks/gcc-arm-none-eabi-4_6-2012q2/bin/../lib/gcc/arm-none-eabi/4.6.2/armv7-m/libgcc.a(_dvmd_tls.o)
                              /home/avnishks/gcc-arm-none-eabi-4_6-2012q2/bin/../lib/gcc/arm-none-eabi/4.6.2/armv7-m/libgcc.a(_aeabi_uldivmod.o) (__aeabi_ldiv0)
/home/avnishks/gcc-arm-none-eabi-4_6-2012q2/bin/../lib/gcc/arm-none-eabi/4.6.2/armv7-m/libgcc.a(_divdi3.o)
                              /home/avnishks/gcc-arm-none-eabi-4_6-2012q2/bin/../lib/gcc/arm-none-eabi/4.6.2/armv7-m/libgcc.a(bpabi.o) (__divdi3)
/home/avnishks/gcc-arm-none-eabi-4_6-2012q2/bin/../lib/gcc/arm-none-eabi/4.6.2/armv7-m/libgcc.a(_udivdi3.o)
                              /home/avnishks/gcc-arm-none-eabi-4_6-2012q2/bin/../lib/gcc/arm-none-eabi/4.6.2/armv7-m/libgcc.a(bpabi.o) (__udivdi3)

Discarded input sections

 .text          0x00000000        0x0 /media/data/coding/GSoC/AVT/px4+mavlink/Firmware/Build/px4io-v2_default.build//media/data/coding/GSoC/AVT/px4+mavlink/Firmware/Build/px4io-v2_default.build/empty.c.o
 .data          0x00000000        0x0 /media/data/coding/GSoC/AVT/px4+mavlink/Firmware/Build/px4io-v2_default.build//media/data/coding/GSoC/AVT/px4+mavlink/Firmware/Build/px4io-v2_default.build/empty.c.o
 .bss           0x00000000        0x0 /media/data/coding/GSoC/AVT/px4+mavlink/Firmware/Build/px4io-v2_default.build//media/data/coding/GSoC/AVT/px4+mavlink/Firmware/Build/px4io-v2_default.build/empty.c.o
 .text          0x00000000        0x0 /media/data/coding/GSoC/AVT/px4+mavlink/Firmware/Build/px4io-v2_default.build//media/data/coding/GSoC/AVT/px4+mavlink/Firmware/src/drivers/boards/px4io-v2/module.pre.o
 .data          0x00000000        0x0 /media/data/coding/GSoC/AVT/px4+mavlink/Firmware/Build/px4io-v2_default.build//media/data/coding/GSoC/AVT/px4+mavlink/Firmware/src/drivers/boards/px4io-v2/module.pre.o
 .bss           0x00000000        0x0 /media/data/coding/GSoC/AVT/px4+mavlink/Firmware/Build/px4io-v2_default.build//media/data/coding/GSoC/AVT/px4+mavlink/Firmware/src/drivers/boards/px4io-v2/module.pre.o
 .text          0x00000000        0x0 /media/data/coding/GSoC/AVT/px4+mavlink/Firmware/Build/px4io-v2_default.build//media/data/coding/GSoC/AVT/px4+mavlink/Firmware/src/drivers/stm32/module.pre.o
 .text.ts_to_abstime
                0x00000000       0x30 /media/data/coding/GSoC/AVT/px4+mavlink/Firmware/Build/px4io-v2_default.build//media/data/coding/GSoC/AVT/px4+mavlink/Firmware/src/drivers/stm32/module.pre.o
 .text.abstime_to_ts
                0x00000000       0x3c /media/data/coding/GSoC/AVT/px4+mavlink/Firmware/Build/px4io-v2_default.build//media/data/coding/GSoC/AVT/px4+mavlink/Firmware/src/drivers/stm32/module.pre.o
 .text.hrt_store_absolute_time
                0x00000000       0x60 /media/data/coding/GSoC/AVT/px4+mavlink/Firmware/Build/px4io-v2_default.build//media/data/coding/GSoC/AVT/px4+mavlink/Firmware/src/drivers/stm32/module.pre.o
 .text.hrt_call_after
                0x00000000       0xa0 /media/data/coding/GSoC/AVT/px4+mavlink/Firmware/Build/px4io-v2_default.build//media/data/coding/GSoC/AVT/px4+mavlink/Firmware/src/drivers/stm32/module.pre.o
 .text.hrt_call_at
                0x00000000       0x48 /media/data/coding/GSoC/AVT/px4+mavlink/Firmware/Build/px4io-v2_default.build//media/data/coding/GSoC/AVT/px4+mavlink/Firmware/src/drivers/stm32/module.pre.o
 .text.hrt_called
                0x00000000       0x10 /media/data/coding/GSoC/AVT/px4+mavlink/Firmware/Build/px4io-v2_default.build//media/data/coding/GSoC/AVT/px4+mavlink/Firmware/src/drivers/stm32/module.pre.o
 .text.hrt_cancel
                0x00000000       0x2c /media/data/coding/GSoC/AVT/px4+mavlink/Firmware/Build/px4io-v2_default.build//media/data/coding/GSoC/AVT/px4+mavlink/Firmware/src/drivers/stm32/module.pre.o
 .text.up_pwm_servo_get
                0x00000000       0x5c /media/data/coding/GSoC/AVT/px4+mavlink/Firmware/Build/px4io-v2_default.build//media/data/coding/GSoC/AVT/px4+mavlink/Firmware/src/drivers/stm32/module.pre.o
 .text.up_pwm_servo_deinit
                0x00000000       0x28 /media/data/coding/GSoC/AVT/px4+mavlink/Firmware/Build/px4io-v2_default.build//media/data/coding/GSoC/AVT/px4+mavlink/Firmware/src/drivers/stm32/module.pre.o
 .text.up_pwm_servo_set_rate
                0x00000000       0x6c /media/data/coding/GSoC/AVT/px4+mavlink/Firmware/Build/px4io-v2_default.build//media/data/coding/GSoC/AVT/px4+mavlink/Firmware/src/drivers/stm32/module.pre.o
 .data          0x00000000        0x0 /media/data/coding/GSoC/AVT/px4+mavlink/Firmware/Build/px4io-v2_default.build//media/data/coding/GSoC/AVT/px4+mavlink/Firmware/src/drivers/stm32/module.pre.o
 .bss           0x00000000        0x0 /media/data/coding/GSoC/AVT/px4+mavlink/Firmware/Build/px4io-v2_default.build//media/data/coding/GSoC/AVT/px4+mavlink/Firmware/src/drivers/stm32/module.pre.o
 .group         0x00000000        0xc /media/data/coding/GSoC/AVT/px4+mavlink/Firmware/Build/px4io-v2_default.build//media/data/coding/GSoC/AVT/px4+mavlink/Firmware/src/modules/px4iofirmware/module.pre.o
 .group         0x00000000        0xc /media/data/coding/GSoC/AVT/px4+mavlink/Firmware/Build/px4io-v2_default.build//media/data/coding/GSoC/AVT/px4+mavlink/Firmware/src/modules/px4iofirmware/module.pre.o
 .group         0x00000000        0x8 /media/data/coding/GSoC/AVT/px4+mavlink/Firmware/Build/px4io-v2_default.build//media/data/coding/GSoC/AVT/px4+mavlink/Firmware/src/modules/px4iofirmware/module.pre.o
 .text          0x00000000        0x0 /media/data/coding/GSoC/AVT/px4+mavlink/Firmware/Build/px4io-v2_default.build//media/data/coding/GSoC/AVT/px4+mavlink/Firmware/src/modules/px4iofirmware/module.pre.o
 .text.adc_init
                0x00000000       0xd4 /media/data/coding/GSoC/AVT/px4+mavlink/Firmware/Build/px4io-v2_default.build//media/data/coding/GSoC/AVT/px4+mavlink/Firmware/src/modules/px4iofirmware/module.pre.o
 .text.perf_free
                0x00000000       0x1c /media/data/coding/GSoC/AVT/px4+mavlink/Firmware/Build/px4io-v2_default.build//media/data/coding/GSoC/AVT/px4+mavlink/Firmware/src/modules/px4iofirmware/module.pre.o
 .text.perf_cancel
                0x00000000       0x14 /media/data/coding/GSoC/AVT/px4+mavlink/Firmware/Build/px4io-v2_default.build//media/data/coding/GSoC/AVT/px4+mavlink/Firmware/src/modules/px4iofirmware/module.pre.o
 .text.perf_reset
                0x00000000       0x50 /media/data/coding/GSoC/AVT/px4+mavlink/Firmware/Build/px4io-v2_default.build//media/data/coding/GSoC/AVT/px4+mavlink/Firmware/src/modules/px4iofirmware/module.pre.o
 .text.perf_print_counter
                0x00000000       0xa4 /media/data/coding/GSoC/AVT/px4+mavlink/Firmware/Build/px4io-v2_default.build//media/data/coding/GSoC/AVT/px4+mavlink/Firmware/src/modules/px4iofirmware/module.pre.o
 .text.perf_print_all
                0x00000000       0x1c /media/data/coding/GSoC/AVT/px4+mavlink/Firmware/Build/px4io-v2_default.build//media/data/coding/GSoC/AVT/px4+mavlink/Firmware/src/modules/px4iofirmware/module.pre.o
 .text.perf_reset_all
                0x00000000       0x5c /media/data/coding/GSoC/AVT/px4+mavlink/Firmware/Build/px4io-v2_default.build//media/data/coding/GSoC/AVT/px4+mavlink/Firmware/src/modules/px4iofirmware/module.pre.o
 .text._ZN5Mixer11scale_checkER14mixer_scaler_s
                0x00000000       0x6c /media/data/coding/GSoC/AVT/px4+mavlink/Firmware/Build/px4io-v2_default.build//media/data/coding/GSoC/AVT/px4+mavlink/Firmware/src/modules/px4iofirmware/module.pre.o
 .text._ZN9NullMixerC2Ev
                0x00000000       0x14 /media/data/coding/GSoC/AVT/px4+mavlink/Firmware/Build/px4io-v2_default.build//media/data/coding/GSoC/AVT/px4+mavlink/Firmware/src/modules/px4iofirmware/module.pre.o
 .text._ZN10MixerGroup9add_mixerEP5Mixer
                0x00000000       0x18 /media/data/coding/GSoC/AVT/px4+mavlink/Firmware/Build/px4io-v2_default.build//media/data/coding/GSoC/AVT/px4+mavlink/Firmware/src/modules/px4iofirmware/module.pre.o
 .text._ZN15MultirotorMixerC2EPFijhhRfEjNS_8GeometryEffff
                0x00000000       0x4c /media/data/coding/GSoC/AVT/px4+mavlink/Firmware/Build/px4io-v2_default.build//media/data/coding/GSoC/AVT/px4+mavlink/Firmware/src/modules/px4iofirmware/module.pre.o
 .text._ZN11SimpleMixerC2EPFijhhRfEjP14mixer_simple_s
                0x00000000       0x18 /media/data/coding/GSoC/AVT/px4+mavlink/Firmware/Build/px4io-v2_default.build//media/data/coding/GSoC/AVT/px4+mavlink/Firmware/src/modules/px4iofirmware/module.pre.o
 .text._ZN11SimpleMixer9pwm_inputEPFijhhRfEjjttt
                0x00000000       0xb8 /media/data/coding/GSoC/AVT/px4+mavlink/Firmware/Build/px4io-v2_default.build//media/data/coding/GSoC/AVT/px4+mavlink/Firmware/src/modules/px4iofirmware/module.pre.o
 .text._ZN11SimpleMixer5checkEv
                0x00000000       0x78 /media/data/coding/GSoC/AVT/px4+mavlink/Firmware/Build/px4io-v2_default.build//media/data/coding/GSoC/AVT/px4+mavlink/Firmware/src/modules/px4iofirmware/module.pre.o
 .text.hx_stream_init
                0x00000000       0x24 /media/data/coding/GSoC/AVT/px4+mavlink/Firmware/Build/px4io-v2_default.build//media/data/coding/GSoC/AVT/px4+mavlink/Firmware/src/modules/px4iofirmware/module.pre.o
 .text.hx_stream_free
                0x00000000       0x20 /media/data/coding/GSoC/AVT/px4+mavlink/Firmware/Build/px4io-v2_default.build//media/data/coding/GSoC/AVT/px4+mavlink/Firmware/src/modules/px4iofirmware/module.pre.o
 .text.hx_stream_set_counters
                0x00000000        0x8 /media/data/coding/GSoC/AVT/px4+mavlink/Firmware/Build/px4io-v2_default.build//media/data/coding/GSoC/AVT/px4+mavlink/Firmware/src/modules/px4iofirmware/module.pre.o
 .text.hx_stream_reset
                0x00000000       0x14 /media/data/coding/GSoC/AVT/px4+mavlink/Firmware/Build/px4io-v2_default.build//media/data/coding/GSoC/AVT/px4+mavlink/Firmware/src/modules/px4iofirmware/module.pre.o
 .text.hx_stream_start
                0x00000000       0x28 /media/data/coding/GSoC/AVT/px4+mavlink/Firmware/Build/px4io-v2_default.build//media/data/coding/GSoC/AVT/px4+mavlink/Firmware/src/modules/px4iofirmware/module.pre.o
 .text.hx_stream_send_next
                0x00000000       0x7c /media/data/coding/GSoC/AVT/px4+mavlink/Firmware/Build/px4io-v2_default.build//media/data/coding/GSoC/AVT/px4+mavlink/Firmware/src/modules/px4iofirmware/module.pre.o
 .text.hx_stream_send
                0x00000000       0x68 /media/data/coding/GSoC/AVT/px4+mavlink/Firmware/Build/px4io-v2_default.build//media/data/coding/GSoC/AVT/px4+mavlink/Firmware/src/modules/px4iofirmware/module.pre.o
 .text.hx_stream_rx
                0x00000000       0x98 /media/data/coding/GSoC/AVT/px4+mavlink/Firmware/Build/px4io-v2_default.build//media/data/coding/GSoC/AVT/px4+mavlink/Firmware/src/modules/px4iofirmware/module.pre.o
 .data          0x00000000        0x0 /media/data/coding/GSoC/AVT/px4+mavlink/Firmware/Build/px4io-v2_default.build//media/data/coding/GSoC/AVT/px4+mavlink/Firmware/src/modules/px4iofirmware/module.pre.o
 .bss           0x00000000        0x0 /media/data/coding/GSoC/AVT/px4+mavlink/Firmware/Build/px4io-v2_default.build//media/data/coding/GSoC/AVT/px4+mavlink/Firmware/src/modules/px4iofirmware/module.pre.o
 .text          0x00000000        0x0 /media/data/coding/GSoC/AVT/px4+mavlink/Firmware/Build/px4io-v2_default.build/nuttx-export/libs/libnuttx.a(sched-irq_attach.o)
 .data          0x00000000        0x0 /media/data/coding/GSoC/AVT/px4+mavlink/Firmware/Build/px4io-v2_default.build/nuttx-export/libs/libnuttx.a(sched-irq_attach.o)
 .bss           0x00000000        0x0 /media/data/coding/GSoC/AVT/px4+mavlink/Firmware/Build/px4io-v2_default.build/nuttx-export/libs/libnuttx.a(sched-irq_attach.o)
 .text          0x00000000        0x0 /media/data/coding/GSoC/AVT/px4+mavlink/Firmware/Build/px4io-v2_default.build/nuttx-export/libs/libnuttx.a(sched-irq_initialize.o)
 .data          0x00000000        0x0 /media/data/coding/GSoC/AVT/px4+mavlink/Firmware/Build/px4io-v2_default.build/nuttx-export/libs/libnuttx.a(sched-irq_initialize.o)
 .bss           0x00000000        0x0 /media/data/coding/GSoC/AVT/px4+mavlink/Firmware/Build/px4io-v2_default.build/nuttx-export/libs/libnuttx.a(sched-irq_initialize.o)
 .text          0x00000000        0x0 /media/data/coding/GSoC/AVT/px4+mavlink/Firmware/Build/px4io-v2_default.build/nuttx-export/libs/libnuttx.a(sched-irq_unexpectedisr.o)
 .data          0x00000000        0x0 /media/data/coding/GSoC/AVT/px4+mavlink/Firmware/Build/px4io-v2_default.build/nuttx-export/libs/libnuttx.a(sched-irq_unexpectedisr.o)
 .bss           0x00000000        0x0 /media/data/coding/GSoC/AVT/px4+mavlink/Firmware/Build/px4io-v2_default.build/nuttx-export/libs/libnuttx.a(sched-irq_unexpectedisr.o)
 .text          0x00000000        0x0 /media/data/coding/GSoC/AVT/px4+mavlink/Firmware/Build/px4io-v2_default.build/nuttx-export/libs/libnuttx.a(c-lib_abort.o)
 .data          0x00000000        0x0 /media/data/coding/GSoC/AVT/px4+mavlink/Firmware/Build/px4io-v2_default.build/nuttx-export/libs/libnuttx.a(c-lib_abort.o)
 .bss           0x00000000        0x0 /media/data/coding/GSoC/AVT/px4+mavlink/Firmware/Build/px4io-v2_default.build/nuttx-export/libs/libnuttx.a(c-lib_abort.o)
 .text          0x00000000        0x0 /media/data/coding/GSoC/AVT/px4+mavlink/Firmware/Build/px4io-v2_default.build/nuttx-export/libs/libnuttx.a(c-lib_cfsetspeed.o)
 .data          0x00000000        0x0 /media/data/coding/GSoC/AVT/px4+mavlink/Firmware/Build/px4io-v2_default.build/nuttx-export/libs/libnuttx.a(c-lib_cfsetspeed.o)
 .bss           0x00000000        0x0 /media/data/coding/GSoC/AVT/px4+mavlink/Firmware/Build/px4io-v2_default.build/nuttx-export/libs/libnuttx.a(c-lib_cfsetspeed.o)
 .text          0x00000000        0x0 /media/data/coding/GSoC/AVT/px4+mavlink/Firmware/Build/px4io-v2_default.build/nuttx-export/libs/libnuttx.a(c-lib_crc32.o)
 .data          0x00000000        0x0 /media/data/coding/GSoC/AVT/px4+mavlink/Firmware/Build/px4io-v2_default.build/nuttx-export/libs/libnuttx.a(c-lib_crc32.o)
 .bss           0x00000000        0x0 /media/data/coding/GSoC/AVT/px4+mavlink/Firmware/Build/px4io-v2_default.build/nuttx-export/libs/libnuttx.a(c-lib_crc32.o)
 .text.crc32part
                0x00000000       0x78 /media/data/coding/GSoC/AVT/px4+mavlink/Firmware/Build/px4io-v2_default.build/nuttx-export/libs/libnuttx.a(c-lib_crc32.o)
 .text.crc32    0x00000000       0x70 /media/data/coding/GSoC/AVT/px4+mavlink/Firmware/Build/px4io-v2_default.build/nuttx-export/libs/libnuttx.a(c-lib_crc32.o)
 .rodata.crc32_tab
                0x00000000      0x400 /media/data/coding/GSoC/AVT/px4+mavlink/Firmware/Build/px4io-v2_default.build/nuttx-export/libs/libnuttx.a(c-lib_crc32.o)
 .text          0x00000000        0x0 /media/data/coding/GSoC/AVT/px4+mavlink/Firmware/Build/px4io-v2_default.build/nuttx-export/libs/libnuttx.a(c-lib_lowsyslog.o)
 .data          0x00000000        0x0 /media/data/coding/GSoC/AVT/px4+mavlink/Firmware/Build/px4io-v2_default.build/nuttx-export/libs/libnuttx.a(c-lib_lowsyslog.o)
 .bss           0x00000000        0x0 /media/data/coding/GSoC/AVT/px4+mavlink/Firmware/Build/px4io-v2_default.build/nuttx-export/libs/libnuttx.a(c-lib_lowsyslog.o)
 .text.lowvsyslog
                0x00000000       0x1c /media/data/coding/GSoC/AVT/px4+mavlink/Firmware/Build/px4io-v2_default.build/nuttx-export/libs/libnuttx.a(c-lib_lowsyslog.o)
 .text          0x00000000        0x0 /media/data/coding/GSoC/AVT/px4+mavlink/Firmware/Build/px4io-v2_default.build/nuttx-export/libs/libnuttx.a(c-lib_memchr.o)
 .data          0x00000000        0x0 /media/data/coding/GSoC/AVT/px4+mavlink/Firmware/Build/px4io-v2_default.build/nuttx-export/libs/libnuttx.a(c-lib_memchr.o)
 .bss           0x00000000        0x0 /media/data/coding/GSoC/AVT/px4+mavlink/Firmware/Build/px4io-v2_default.build/nuttx-export/libs/libnuttx.a(c-lib_memchr.o)
 .text          0x00000000        0x0 /media/data/coding/GSoC/AVT/px4+mavlink/Firmware/Build/px4io-v2_default.build/nuttx-export/libs/libnuttx.a(c-lib_memcpy.o)
 .data          0x00000000        0x0 /media/data/coding/GSoC/AVT/px4+mavlink/Firmware/Build/px4io-v2_default.build/nuttx-export/libs/libnuttx.a(c-lib_memcpy.o)
 .bss           0x00000000        0x0 /media/data/coding/GSoC/AVT/px4+mavlink/Firmware/Build/px4io-v2_default.build/nuttx-export/libs/libnuttx.a(c-lib_memcpy.o)
 .text          0x00000000        0x0 /media/data/coding/GSoC/AVT/px4+mavlink/Firmware/Build/px4io-v2_default.build/nuttx-export/libs/libnuttx.a(c-lib_memset.o)
 .data          0x00000000        0x0 /media/data/coding/GSoC/AVT/px4+mavlink/Firmware/Build/px4io-v2_default.build/nuttx-export/libs/libnuttx.a(c-lib_memset.o)
 .bss           0x00000000        0x0 /media/data/coding/GSoC/AVT/px4+mavlink/Firmware/Build/px4io-v2_default.build/nuttx-export/libs/libnuttx.a(c-lib_memset.o)
 .text          0x00000000        0x0 /media/data/coding/GSoC/AVT/px4+mavlink/Firmware/Build/px4io-v2_default.build/nuttx-export/libs/libnuttx.a(c-lib_printf.o)
 .data          0x00000000        0x0 /media/data/coding/GSoC/AVT/px4+mavlink/Firmware/Build/px4io-v2_default.build/nuttx-export/libs/libnuttx.a(c-lib_printf.o)
 .bss           0x00000000        0x0 /media/data/coding/GSoC/AVT/px4+mavlink/Firmware/Build/px4io-v2_default.build/nuttx-export/libs/libnuttx.a(c-lib_printf.o)
 .text.printf   0x00000000       0x20 /media/data/coding/GSoC/AVT/px4+mavlink/Firmware/Build/px4io-v2_default.build/nuttx-export/libs/libnuttx.a(c-lib_printf.o)
 .text          0x00000000        0x0 /media/data/coding/GSoC/AVT/px4+mavlink/Firmware/Build/px4io-v2_default.build/nuttx-export/libs/libnuttx.a(c-lib_sscanf.o)
 .data          0x00000000        0x0 /media/data/coding/GSoC/AVT/px4+mavlink/Firmware/Build/px4io-v2_default.build/nuttx-export/libs/libnuttx.a(c-lib_sscanf.o)
 .bss           0x00000000        0x0 /media/data/coding/GSoC/AVT/px4+mavlink/Firmware/Build/px4io-v2_default.build/nuttx-export/libs/libnuttx.a(c-lib_sscanf.o)
 .text          0x00000000        0x0 /media/data/coding/GSoC/AVT/px4+mavlink/Firmware/Build/px4io-v2_default.build/nuttx-export/libs/libnuttx.a(c-lib_strchr.o)
 .data          0x00000000        0x0 /media/data/coding/GSoC/AVT/px4+mavlink/Firmware/Build/px4io-v2_default.build/nuttx-export/libs/libnuttx.a(c-lib_strchr.o)
 .bss           0x00000000        0x0 /media/data/coding/GSoC/AVT/px4+mavlink/Firmware/Build/px4io-v2_default.build/nuttx-export/libs/libnuttx.a(c-lib_strchr.o)
 .text          0x00000000        0x0 /media/data/coding/GSoC/AVT/px4+mavlink/Firmware/Build/px4io-v2_default.build/nuttx-export/libs/libnuttx.a(c-lib_strcmp.o)
 .data          0x00000000        0x0 /media/data/coding/GSoC/AVT/px4+mavlink/Firmware/Build/px4io-v2_default.build/nuttx-export/libs/libnuttx.a(c-lib_strcmp.o)
 .bss           0x00000000        0x0 /media/data/coding/GSoC/AVT/px4+mavlink/Firmware/Build/px4io-v2_default.build/nuttx-export/libs/libnuttx.a(c-lib_strcmp.o)
 .text          0x00000000        0x0 /media/data/coding/GSoC/AVT/px4+mavlink/Firmware/Build/px4io-v2_default.build/nuttx-export/libs/libnuttx.a(c-lib_strcspn.o)
 .data          0x00000000        0x0 /media/data/coding/GSoC/AVT/px4+mavlink/Firmware/Build/px4io-v2_default.build/nuttx-export/libs/libnuttx.a(c-lib_strcspn.o)
 .bss           0x00000000        0x0 /media/data/coding/GSoC/AVT/px4+mavlink/Firmware/Build/px4io-v2_default.build/nuttx-export/libs/libnuttx.a(c-lib_strcspn.o)
 .text          0x00000000        0x0 /media/data/coding/GSoC/AVT/px4+mavlink/Firmware/Build/px4io-v2_default.build/nuttx-export/libs/libnuttx.a(c-lib_strncpy.o)
 .data          0x00000000        0x0 /media/data/coding/GSoC/AVT/px4+mavlink/Firmware/Build/px4io-v2_default.build/nuttx-export/libs/libnuttx.a(c-lib_strncpy.o)
 .bss           0x00000000        0x0 /media/data/coding/GSoC/AVT/px4+mavlink/Firmware/Build/px4io-v2_default.build/nuttx-export/libs/libnuttx.a(c-lib_strncpy.o)
 .text          0x00000000        0x0 /media/data/coding/GSoC/AVT/px4+mavlink/Firmware/Build/px4io-v2_default.build/nuttx-export/libs/libnuttx.a(c-lib_strtol.o)
 .data          0x00000000        0x0 /media/data/coding/GSoC/AVT/px4+mavlink/Firmware/Build/px4io-v2_default.build/nuttx-export/libs/libnuttx.a(c-lib_strtol.o)
 .bss           0x00000000        0x0 /media/data/coding/GSoC/AVT/px4+mavlink/Firmware/Build/px4io-v2_default.build/nuttx-export/libs/libnuttx.a(c-lib_strtol.o)
 .text          0x00000000        0x0 /media/data/coding/GSoC/AVT/px4+mavlink/Firmware/Build/px4io-v2_default.build/nuttx-export/libs/libnuttx.a(c-lib_strtoul.o)
 .data          0x00000000        0x0 /media/data/coding/GSoC/AVT/px4+mavlink/Firmware/Build/px4io-v2_default.build/nuttx-export/libs/libnuttx.a(c-lib_strtoul.o)
 .bss           0x00000000        0x0 /media/data/coding/GSoC/AVT/px4+mavlink/Firmware/Build/px4io-v2_default.build/nuttx-export/libs/libnuttx.a(c-lib_strtoul.o)
 .text          0x00000000        0x0 /media/data/coding/GSoC/AVT/px4+mavlink/Firmware/Build/px4io-v2_default.build/nuttx-export/libs/libnuttx.a(c-lib_syslog.o)
 .data          0x00000000        0x0 /media/data/coding/GSoC/AVT/px4+mavlink/Firmware/Build/px4io-v2_default.build/nuttx-export/libs/libnuttx.a(c-lib_syslog.o)
 .bss           0x00000000        0x0 /media/data/coding/GSoC/AVT/px4+mavlink/Firmware/Build/px4io-v2_default.build/nuttx-export/libs/libnuttx.a(c-lib_syslog.o)
 .text.vsyslog  0x00000000       0x20 /media/data/coding/GSoC/AVT/px4+mavlink/Firmware/Build/px4io-v2_default.build/nuttx-export/libs/libnuttx.a(c-lib_syslog.o)
 .text.syslog   0x00000000       0x2c /media/data/coding/GSoC/AVT/px4+mavlink/Firmware/Build/px4io-v2_default.build/nuttx-export/libs/libnuttx.a(c-lib_syslog.o)
 .text          0x00000000        0x0 /media/data/coding/GSoC/AVT/px4+mavlink/Firmware/Build/px4io-v2_default.build/nuttx-export/libs/libnuttx.a(c-lib_tcgetattr.o)
 .data          0x00000000        0x0 /media/data/coding/GSoC/AVT/px4+mavlink/Firmware/Build/px4io-v2_default.build/nuttx-export/libs/libnuttx.a(c-lib_tcgetattr.o)
 .bss           0x00000000        0x0 /media/data/coding/GSoC/AVT/px4+mavlink/Firmware/Build/px4io-v2_default.build/nuttx-export/libs/libnuttx.a(c-lib_tcgetattr.o)
 .text          0x00000000        0x0 /media/data/coding/GSoC/AVT/px4+mavlink/Firmware/Build/px4io-v2_default.build/nuttx-export/libs/libnuttx.a(c-lib_tcsetattr.o)
 .data          0x00000000        0x0 /media/data/coding/GSoC/AVT/px4+mavlink/Firmware/Build/px4io-v2_default.build/nuttx-export/libs/libnuttx.a(c-lib_tcsetattr.o)
 .bss           0x00000000        0x0 /media/data/coding/GSoC/AVT/px4+mavlink/Firmware/Build/px4io-v2_default.build/nuttx-export/libs/libnuttx.a(c-lib_tcsetattr.o)
 .text          0x00000000        0x0 /media/data/coding/GSoC/AVT/px4+mavlink/Firmware/Build/px4io-v2_default.build/nuttx-export/libs/libnuttx.a(c-lib_vsnprintf.o)
 .data          0x00000000        0x0 /media/data/coding/GSoC/AVT/px4+mavlink/Firmware/Build/px4io-v2_default.build/nuttx-export/libs/libnuttx.a(c-lib_vsnprintf.o)
 .bss           0x00000000        0x0 /media/data/coding/GSoC/AVT/px4+mavlink/Firmware/Build/px4io-v2_default.build/nuttx-export/libs/libnuttx.a(c-lib_vsnprintf.o)
 .text          0x00000000        0x0 /media/data/coding/GSoC/AVT/px4+mavlink/Firmware/Build/px4io-v2_default.build/nuttx-export/libs/libnuttx.a(c-sq_addafter.o)
 .data          0x00000000        0x0 /media/data/coding/GSoC/AVT/px4+mavlink/Firmware/Build/px4io-v2_default.build/nuttx-export/libs/libnuttx.a(c-sq_addafter.o)
 .bss           0x00000000        0x0 /media/data/coding/GSoC/AVT/px4+mavlink/Firmware/Build/px4io-v2_default.build/nuttx-export/libs/libnuttx.a(c-sq_addafter.o)
 .text          0x00000000        0x0 /media/data/coding/GSoC/AVT/px4+mavlink/Firmware/Build/px4io-v2_default.build/nuttx-export/libs/libnuttx.a(c-sq_addfirst.o)
 .data          0x00000000        0x0 /media/data/coding/GSoC/AVT/px4+mavlink/Firmware/Build/px4io-v2_default.build/nuttx-export/libs/libnuttx.a(c-sq_addfirst.o)
 .bss           0x00000000        0x0 /media/data/coding/GSoC/AVT/px4+mavlink/Firmware/Build/px4io-v2_default.build/nuttx-export/libs/libnuttx.a(c-sq_addfirst.o)
 .text          0x00000000        0x0 /media/data/coding/GSoC/AVT/px4+mavlink/Firmware/Build/px4io-v2_default.build/nuttx-export/libs/libnuttx.a(c-sq_addlast.o)
 .data          0x00000000        0x0 /media/data/coding/GSoC/AVT/px4+mavlink/Firmware/Build/px4io-v2_default.build/nuttx-export/libs/libnuttx.a(c-sq_addlast.o)
 .bss           0x00000000        0x0 /media/data/coding/GSoC/AVT/px4+mavlink/Firmware/Build/px4io-v2_default.build/nuttx-export/libs/libnuttx.a(c-sq_addlast.o)
 .text          0x00000000        0x0 /media/data/coding/GSoC/AVT/px4+mavlink/Firmware/Build/px4io-v2_default.build/nuttx-export/libs/libnuttx.a(c-sq_rem.o)
 .data          0x00000000        0x0 /media/data/coding/GSoC/AVT/px4+mavlink/Firmware/Build/px4io-v2_default.build/nuttx-export/libs/libnuttx.a(c-sq_rem.o)
 .bss           0x00000000        0x0 /media/data/coding/GSoC/AVT/px4+mavlink/Firmware/Build/px4io-v2_default.build/nuttx-export/libs/libnuttx.a(c-sq_rem.o)
 .text          0x00000000        0x0 /media/data/coding/GSoC/AVT/px4+mavlink/Firmware/Build/px4io-v2_default.build/nuttx-export/libs/libnuttx.a(mm-mm_calloc.o)
 .data          0x00000000        0x0 /media/data/coding/GSoC/AVT/px4+mavlink/Firmware/Build/px4io-v2_default.build/nuttx-export/libs/libnuttx.a(mm-mm_calloc.o)
 .bss           0x00000000        0x0 /media/data/coding/GSoC/AVT/px4+mavlink/Firmware/Build/px4io-v2_default.build/nuttx-export/libs/libnuttx.a(mm-mm_calloc.o)
 .text          0x00000000        0x0 /media/data/coding/GSoC/AVT/px4+mavlink/Firmware/Build/px4io-v2_default.build/nuttx-export/libs/libnuttx.a(mm-mm_free.o)
 .data          0x00000000        0x0 /media/data/coding/GSoC/AVT/px4+mavlink/Firmware/Build/px4io-v2_default.build/nuttx-export/libs/libnuttx.a(mm-mm_free.o)
 .bss           0x00000000        0x0 /media/data/coding/GSoC/AVT/px4+mavlink/Firmware/Build/px4io-v2_default.build/nuttx-export/libs/libnuttx.a(mm-mm_free.o)
 .text          0x00000000        0x0 /media/data/coding/GSoC/AVT/px4+mavlink/Firmware/Build/px4io-v2_default.build/nuttx-export/libs/libnuttx.a(mm-mm_mallinfo.o)
 .data          0x00000000        0x0 /media/data/coding/GSoC/AVT/px4+mavlink/Firmware/Build/px4io-v2_default.build/nuttx-export/libs/libnuttx.a(mm-mm_mallinfo.o)
 .bss           0x00000000        0x0 /media/data/coding/GSoC/AVT/px4+mavlink/Firmware/Build/px4io-v2_default.build/nuttx-export/libs/libnuttx.a(mm-mm_mallinfo.o)
 .text          0x00000000        0x0 /media/data/coding/GSoC/AVT/px4+mavlink/Firmware/Build/px4io-v2_default.build/nuttx-export/libs/libnuttx.a(mm-mm_malloc.o)
 .data          0x00000000        0x0 /media/data/coding/GSoC/AVT/px4+mavlink/Firmware/Build/px4io-v2_default.build/nuttx-export/libs/libnuttx.a(mm-mm_malloc.o)
 .bss           0x00000000        0x0 /media/data/coding/GSoC/AVT/px4+mavlink/Firmware/Build/px4io-v2_default.build/nuttx-export/libs/libnuttx.a(mm-mm_malloc.o)
 .text          0x00000000        0x0 /media/data/coding/GSoC/AVT/px4+mavlink/Firmware/Build/px4io-v2_default.build/nuttx-export/libs/libnuttx.a(mm-mm_sem.o)
 .data          0x00000000        0x0 /media/data/coding/GSoC/AVT/px4+mavlink/Firmware/Build/px4io-v2_default.build/nuttx-export/libs/libnuttx.a(mm-mm_sem.o)
 .bss           0x00000000        0x0 /media/data/coding/GSoC/AVT/px4+mavlink/Firmware/Build/px4io-v2_default.build/nuttx-export/libs/libnuttx.a(mm-mm_sem.o)
 .text          0x00000000        0x0 /media/data/coding/GSoC/AVT/px4+mavlink/Firmware/Build/px4io-v2_default.build/nuttx-export/libs/libnuttx.a(mm-mm_size2ndx.o)
 .data          0x00000000        0x0 /media/data/coding/GSoC/AVT/px4+mavlink/Firmware/Build/px4io-v2_default.build/nuttx-export/libs/libnuttx.a(mm-mm_size2ndx.o)
 .bss           0x00000000        0x0 /media/data/coding/GSoC/AVT/px4+mavlink/Firmware/Build/px4io-v2_default.build/nuttx-export/libs/libnuttx.a(mm-mm_size2ndx.o)
 .text          0x00000000        0x0 /media/data/coding/GSoC/AVT/px4+mavlink/Firmware/Build/px4io-v2_default.build/nuttx-export/libs/libnuttx.a(mm-mm_user.o)
 .data          0x00000000        0x0 /media/data/coding/GSoC/AVT/px4+mavlink/Firmware/Build/px4io-v2_default.build/nuttx-export/libs/libnuttx.a(mm-mm_user.o)
 .bss           0x00000000        0x0 /media/data/coding/GSoC/AVT/px4+mavlink/Firmware/Build/px4io-v2_default.build/nuttx-export/libs/libnuttx.a(mm-mm_user.o)
 .text.umm_addregion
                0x00000000       0x14 /media/data/coding/GSoC/AVT/px4+mavlink/Firmware/Build/px4io-v2_default.build/nuttx-export/libs/libnuttx.a(mm-mm_user.o)
 .text          0x00000000        0x0 /media/data/coding/GSoC/AVT/px4+mavlink/Firmware/Build/px4io-v2_default.build/nuttx-export/libs/libnuttx.a(mm-mm_zalloc.o)
 .data          0x00000000        0x0 /media/data/coding/GSoC/AVT/px4+mavlink/Firmware/Build/px4io-v2_default.build/nuttx-export/libs/libnuttx.a(mm-mm_zalloc.o)
 .bss           0x00000000        0x0 /media/data/coding/GSoC/AVT/px4+mavlink/Firmware/Build/px4io-v2_default.build/nuttx-export/libs/libnuttx.a(mm-mm_zalloc.o)
 .text          0x00000000        0x0 /media/data/coding/GSoC/AVT/px4+mavlink/Firmware/Build/px4io-v2_default.build/nuttx-export/libs/libnuttx.a(arch-stm32_dma.o)
 .data          0x00000000        0x0 /media/data/coding/GSoC/AVT/px4+mavlink/Firmware/Build/px4io-v2_default.build/nuttx-export/libs/libnuttx.a(arch-stm32_dma.o)
 .bss           0x00000000        0x0 /media/data/coding/GSoC/AVT/px4+mavlink/Firmware/Build/px4io-v2_default.build/nuttx-export/libs/libnuttx.a(arch-stm32_dma.o)
 .text          0x00000000        0x0 /media/data/coding/GSoC/AVT/px4+mavlink/Firmware/Build/px4io-v2_default.build/nuttx-export/libs/libnuttx.a(arch-stm32_gpio.o)
 .data          0x00000000        0x0 /media/data/coding/GSoC/AVT/px4+mavlink/Firmware/Build/px4io-v2_default.build/nuttx-export/libs/libnuttx.a(arch-stm32_gpio.o)
 .bss           0x00000000        0x0 /media/data/coding/GSoC/AVT/px4+mavlink/Firmware/Build/px4io-v2_default.build/nuttx-export/libs/libnuttx.a(arch-stm32_gpio.o)
 .text.stm32_unconfiggpio
                0x00000000        0xc /media/data/coding/GSoC/AVT/px4+mavlink/Firmware/Build/px4io-v2_default.build/nuttx-export/libs/libnuttx.a(arch-stm32_gpio.o)
 .text          0x00000000        0x0 /media/data/coding/GSoC/AVT/px4+mavlink/Firmware/Build/px4io-v2_default.build/nuttx-export/libs/libnuttx.a(arch-stm32_irq.o)
 .data          0x00000000        0x0 /media/data/coding/GSoC/AVT/px4+mavlink/Firmware/Build/px4io-v2_default.build/nuttx-export/libs/libnuttx.a(arch-stm32_irq.o)
 .bss           0x00000000        0x0 /media/data/coding/GSoC/AVT/px4+mavlink/Firmware/Build/px4io-v2_default.build/nuttx-export/libs/libnuttx.a(arch-stm32_irq.o)
 .text          0x00000000        0x0 /media/data/coding/GSoC/AVT/px4+mavlink/Firmware/Build/px4io-v2_default.build/nuttx-export/libs/libnuttx.a(arch-stm32_serial.o)
 .data          0x00000000        0x0 /media/data/coding/GSoC/AVT/px4+mavlink/Firmware/Build/px4io-v2_default.build/nuttx-export/libs/libnuttx.a(arch-stm32_serial.o)
 .bss           0x00000000        0x0 /media/data/coding/GSoC/AVT/px4+mavlink/Firmware/Build/px4io-v2_default.build/nuttx-export/libs/libnuttx.a(arch-stm32_serial.o)
 .text          0x00000000        0x0 /media/data/coding/GSoC/AVT/px4+mavlink/Firmware/Build/px4io-v2_default.build/nuttx-export/libs/libnuttx.a(arch-stm32_start.o)
 .data          0x00000000        0x0 /media/data/coding/GSoC/AVT/px4+mavlink/Firmware/Build/px4io-v2_default.build/nuttx-export/libs/libnuttx.a(arch-stm32_start.o)
 .bss           0x00000000        0x0 /media/data/coding/GSoC/AVT/px4+mavlink/Firmware/Build/px4io-v2_default.build/nuttx-export/libs/libnuttx.a(arch-stm32_start.o)
 .text          0x00000000        0x0 /media/data/coding/GSoC/AVT/px4+mavlink/Firmware/Build/px4io-v2_default.build/nuttx-export/libs/libnuttx.a(arch-up_assert.o)
 .data          0x00000000        0x0 /media/data/coding/GSoC/AVT/px4+mavlink/Firmware/Build/px4io-v2_default.build/nuttx-export/libs/libnuttx.a(arch-up_assert.o)
 .bss           0x00000000        0x0 /media/data/coding/GSoC/AVT/px4+mavlink/Firmware/Build/px4io-v2_default.build/nuttx-export/libs/libnuttx.a(arch-up_assert.o)
 .text          0x00000000        0x0 /media/data/coding/GSoC/AVT/px4+mavlink/Firmware/Build/px4io-v2_default.build/nuttx-export/libs/libnuttx.a(arch-up_hardfault.o)
 .data          0x00000000        0x0 /media/data/coding/GSoC/AVT/px4+mavlink/Firmware/Build/px4io-v2_default.build/nuttx-export/libs/libnuttx.a(arch-up_hardfault.o)
 .bss           0x00000000        0x0 /media/data/coding/GSoC/AVT/px4+mavlink/Firmware/Build/px4io-v2_default.build/nuttx-export/libs/libnuttx.a(arch-up_hardfault.o)
 .text          0x00000000        0x0 /media/data/coding/GSoC/AVT/px4+mavlink/Firmware/Build/px4io-v2_default.build/nuttx-export/libs/libnuttx.a(arch-up_modifyreg32.o)
 .data          0x00000000        0x0 /media/data/coding/GSoC/AVT/px4+mavlink/Firmware/Build/px4io-v2_default.build/nuttx-export/libs/libnuttx.a(arch-up_modifyreg32.o)
 .bss           0x00000000        0x0 /media/data/coding/GSoC/AVT/px4+mavlink/Firmware/Build/px4io-v2_default.build/nuttx-export/libs/libnuttx.a(arch-up_modifyreg32.o)
 .text          0x00000000        0x0 /media/data/coding/GSoC/AVT/px4+mavlink/Firmware/Build/px4io-v2_default.build/nuttx-export/libs/libnuttx.a(arch-up_svcall.o)
 .data          0x00000000        0x0 /media/data/coding/GSoC/AVT/px4+mavlink/Firmware/Build/px4io-v2_default.build/nuttx-export/libs/libnuttx.a(arch-up_svcall.o)
 .bss           0x00000000        0x0 /media/data/coding/GSoC/AVT/px4+mavlink/Firmware/Build/px4io-v2_default.build/nuttx-export/libs/libnuttx.a(arch-up_svcall.o)
 .text          0x00000000        0x0 /media/data/coding/GSoC/AVT/px4+mavlink/Firmware/Build/px4io-v2_default.build/nuttx-export/libs/libnuttx.a(arch-up_udelay.o)
 .data          0x00000000        0x0 /media/data/coding/GSoC/AVT/px4+mavlink/Firmware/Build/px4io-v2_default.build/nuttx-export/libs/libnuttx.a(arch-up_udelay.o)
 .bss           0x00000000        0x0 /media/data/coding/GSoC/AVT/px4+mavlink/Firmware/Build/px4io-v2_default.build/nuttx-export/libs/libnuttx.a(arch-up_udelay.o)
 .text.up_udelay
                0x00000000       0x8c /media/data/coding/GSoC/AVT/px4+mavlink/Firmware/Build/px4io-v2_default.build/nuttx-export/libs/libnuttx.a(arch-up_udelay.o)
 .text          0x00000000        0x0 /media/data/coding/GSoC/AVT/px4+mavlink/Firmware/Build/px4io-v2_default.build/nuttx-export/libs/libnuttx.a(arch-up_vectors.o)
 .data          0x00000000        0x0 /media/data/coding/GSoC/AVT/px4+mavlink/Firmware/Build/px4io-v2_default.build/nuttx-export/libs/libnuttx.a(arch-up_vectors.o)
 .bss           0x00000000        0x0 /media/data/coding/GSoC/AVT/px4+mavlink/Firmware/Build/px4io-v2_default.build/nuttx-export/libs/libnuttx.a(arch-up_vectors.o)
 .text          0x00000000        0x0 /media/data/coding/GSoC/AVT/px4+mavlink/Firmware/Build/px4io-v2_default.build/nuttx-export/libs/libnuttx.a(cxx-libxx_cxa_atexit.o)
 .data          0x00000000        0x0 /media/data/coding/GSoC/AVT/px4+mavlink/Firmware/Build/px4io-v2_default.build/nuttx-export/libs/libnuttx.a(cxx-libxx_cxa_atexit.o)
 .bss           0x00000000        0x0 /media/data/coding/GSoC/AVT/px4+mavlink/Firmware/Build/px4io-v2_default.build/nuttx-export/libs/libnuttx.a(cxx-libxx_cxa_atexit.o)
 .text          0x00000000        0x0 /media/data/coding/GSoC/AVT/px4+mavlink/Firmware/Build/px4io-v2_default.build/nuttx-export/libs/libnuttx.a(cxx-libxx_cxapurevirtual.o)
 .data          0x00000000        0x0 /media/data/coding/GSoC/AVT/px4+mavlink/Firmware/Build/px4io-v2_default.build/nuttx-export/libs/libnuttx.a(cxx-libxx_cxapurevirtual.o)
 .bss           0x00000000        0x0 /media/data/coding/GSoC/AVT/px4+mavlink/Firmware/Build/px4io-v2_default.build/nuttx-export/libs/libnuttx.a(cxx-libxx_cxapurevirtual.o)
 .text          0x00000000        0x0 /media/data/coding/GSoC/AVT/px4+mavlink/Firmware/Build/px4io-v2_default.build/nuttx-export/libs/libnuttx.a(cxx-libxx_delete.o)
 .data          0x00000000        0x0 /media/data/coding/GSoC/AVT/px4+mavlink/Firmware/Build/px4io-v2_default.build/nuttx-export/libs/libnuttx.a(cxx-libxx_delete.o)
 .bss           0x00000000        0x0 /media/data/coding/GSoC/AVT/px4+mavlink/Firmware/Build/px4io-v2_default.build/nuttx-export/libs/libnuttx.a(cxx-libxx_delete.o)
 .text          0x00000000        0x0 /media/data/coding/GSoC/AVT/px4+mavlink/Firmware/Build/px4io-v2_default.build/nuttx-export/libs/libnuttx.a(cxx-libxx_eabi_atexit.o)
 .data          0x00000000        0x0 /media/data/coding/GSoC/AVT/px4+mavlink/Firmware/Build/px4io-v2_default.build/nuttx-export/libs/libnuttx.a(cxx-libxx_eabi_atexit.o)
 .bss           0x00000000        0x0 /media/data/coding/GSoC/AVT/px4+mavlink/Firmware/Build/px4io-v2_default.build/nuttx-export/libs/libnuttx.a(cxx-libxx_eabi_atexit.o)
 .text          0x00000000        0x0 /media/data/coding/GSoC/AVT/px4+mavlink/Firmware/Build/px4io-v2_default.build/nuttx-export/libs/libnuttx.a(cxx-libxx_new.o)
 .data          0x00000000        0x0 /media/data/coding/GSoC/AVT/px4+mavlink/Firmware/Build/px4io-v2_default.build/nuttx-export/libs/libnuttx.a(cxx-libxx_new.o)
 .bss           0x00000000        0x0 /media/data/coding/GSoC/AVT/px4+mavlink/Firmware/Build/px4io-v2_default.build/nuttx-export/libs/libnuttx.a(cxx-libxx_new.o)
 .text          0x00000000        0x0 /media/data/coding/GSoC/AVT/px4+mavlink/Firmware/Build/px4io-v2_default.build/nuttx-export/libs/libnuttx.a(fs-fs_ioctl.o)
 .data          0x00000000        0x0 /media/data/coding/GSoC/AVT/px4+mavlink/Firmware/Build/px4io-v2_default.build/nuttx-export/libs/libnuttx.a(fs-fs_ioctl.o)
 .bss           0x00000000        0x0 /media/data/coding/GSoC/AVT/px4+mavlink/Firmware/Build/px4io-v2_default.build/nuttx-export/libs/libnuttx.a(fs-fs_ioctl.o)
 .text          0x00000000        0x0 /media/data/coding/GSoC/AVT/px4+mavlink/Firmware/Build/px4io-v2_default.build/nuttx-export/libs/libnuttx.a(fs-fs_open.o)
 .data          0x00000000        0x0 /media/data/coding/GSoC/AVT/px4+mavlink/Firmware/Build/px4io-v2_default.build/nuttx-export/libs/libnuttx.a(fs-fs_open.o)
 .bss           0x00000000        0x0 /media/data/coding/GSoC/AVT/px4+mavlink/Firmware/Build/px4io-v2_default.build/nuttx-export/libs/libnuttx.a(fs-fs_open.o)
 .text.inode_checkflags
                0x00000000       0x2c /media/data/coding/GSoC/AVT/px4+mavlink/Firmware/Build/px4io-v2_default.build/nuttx-export/libs/libnuttx.a(fs-fs_open.o)
 .text          0x00000000        0x0 /media/data/coding/GSoC/AVT/px4+mavlink/Firmware/Build/px4io-v2_default.build/nuttx-export/libs/libnuttx.a(fs-fs_read.o)
 .data          0x00000000        0x0 /media/data/coding/GSoC/AVT/px4+mavlink/Firmware/Build/px4io-v2_default.build/nuttx-export/libs/libnuttx.a(fs-fs_read.o)
 .bss           0x00000000        0x0 /media/data/coding/GSoC/AVT/px4+mavlink/Firmware/Build/px4io-v2_default.build/nuttx-export/libs/libnuttx.a(fs-fs_read.o)
 .text          0x00000000        0x0 /media/data/coding/GSoC/AVT/px4+mavlink/Firmware/Build/px4io-v2_default.build/nuttx-export/libs/libnuttx.a(fs-fs_write.o)
 .data          0x00000000        0x0 /media/data/coding/GSoC/AVT/px4+mavlink/Firmware/Build/px4io-v2_default.build/nuttx-export/libs/libnuttx.a(fs-fs_write.o)
 .bss           0x00000000        0x0 /media/data/coding/GSoC/AVT/px4+mavlink/Firmware/Build/px4io-v2_default.build/nuttx-export/libs/libnuttx.a(fs-fs_write.o)
 .text.write    0x00000000       0x58 /media/data/coding/GSoC/AVT/px4+mavlink/Firmware/Build/px4io-v2_default.build/nuttx-export/libs/libnuttx.a(fs-fs_write.o)
 .text          0x00000000        0x0 /media/data/coding/GSoC/AVT/px4+mavlink/Firmware/Build/px4io-v2_default.build/nuttx-export/libs/libnuttx.a(drivers-serialirq.o)
 .data          0x00000000        0x0 /media/data/coding/GSoC/AVT/px4+mavlink/Firmware/Build/px4io-v2_default.build/nuttx-export/libs/libnuttx.a(drivers-serialirq.o)
 .bss           0x00000000        0x0 /media/data/coding/GSoC/AVT/px4+mavlink/Firmware/Build/px4io-v2_default.build/nuttx-export/libs/libnuttx.a(drivers-serialirq.o)
 .text          0x00000000        0x0 /media/data/coding/GSoC/AVT/px4+mavlink/Firmware/Build/px4io-v2_default.build/nuttx-export/libs/libnuttx.a(drivers-serial.o)
 .data          0x00000000        0x0 /media/data/coding/GSoC/AVT/px4+mavlink/Firmware/Build/px4io-v2_default.build/nuttx-export/libs/libnuttx.a(drivers-serial.o)
 .bss           0x00000000        0x0 /media/data/coding/GSoC/AVT/px4+mavlink/Firmware/Build/px4io-v2_default.build/nuttx-export/libs/libnuttx.a(drivers-serial.o)
 .text          0x00000000        0x0 /media/data/coding/GSoC/AVT/px4+mavlink/Firmware/Build/px4io-v2_default.build/nuttx-export/libs/libnuttx.a(sched-errno_getptr.o)
 .data          0x00000000        0x0 /media/data/coding/GSoC/AVT/px4+mavlink/Firmware/Build/px4io-v2_default.build/nuttx-export/libs/libnuttx.a(sched-errno_getptr.o)
 .bss           0x00000000        0x0 /media/data/coding/GSoC/AVT/px4+mavlink/Firmware/Build/px4io-v2_default.build/nuttx-export/libs/libnuttx.a(sched-errno_getptr.o)
 .text          0x00000000        0x0 /media/data/coding/GSoC/AVT/px4+mavlink/Firmware/Build/px4io-v2_default.build/nuttx-export/libs/libnuttx.a(sched-exit.o)
 .data          0x00000000        0x0 /media/data/coding/GSoC/AVT/px4+mavlink/Firmware/Build/px4io-v2_default.build/nuttx-export/libs/libnuttx.a(sched-exit.o)
 .bss           0x00000000        0x0 /media/data/coding/GSoC/AVT/px4+mavlink/Firmware/Build/px4io-v2_default.build/nuttx-export/libs/libnuttx.a(sched-exit.o)
 .text          0x00000000        0x0 /media/data/coding/GSoC/AVT/px4+mavlink/Firmware/Build/px4io-v2_default.build/nuttx-export/libs/libnuttx.a(sched-getpid.o)
 .data          0x00000000        0x0 /media/data/coding/GSoC/AVT/px4+mavlink/Firmware/Build/px4io-v2_default.build/nuttx-export/libs/libnuttx.a(sched-getpid.o)
 .bss           0x00000000        0x0 /media/data/coding/GSoC/AVT/px4+mavlink/Firmware/Build/px4io-v2_default.build/nuttx-export/libs/libnuttx.a(sched-getpid.o)
 .text          0x00000000        0x0 /media/data/coding/GSoC/AVT/px4+mavlink/Firmware/Build/px4io-v2_default.build/nuttx-export/libs/libnuttx.a(sched-os_start.o)
 .data          0x00000000        0x0 /media/data/coding/GSoC/AVT/px4+mavlink/Firmware/Build/px4io-v2_default.build/nuttx-export/libs/libnuttx.a(sched-os_start.o)
 .bss           0x00000000        0x0 /media/data/coding/GSoC/AVT/px4+mavlink/Firmware/Build/px4io-v2_default.build/nuttx-export/libs/libnuttx.a(sched-os_start.o)
 .text          0x00000000        0x0 /media/data/coding/GSoC/AVT/px4+mavlink/Firmware/Build/px4io-v2_default.build/nuttx-export/libs/libnuttx.a(sched-sched_garbage.o)
 .data          0x00000000        0x0 /media/data/coding/GSoC/AVT/px4+mavlink/Firmware/Build/px4io-v2_default.build/nuttx-export/libs/libnuttx.a(sched-sched_garbage.o)
 .bss           0x00000000        0x0 /media/data/coding/GSoC/AVT/px4+mavlink/Firmware/Build/px4io-v2_default.build/nuttx-export/libs/libnuttx.a(sched-sched_garbage.o)
 .text          0x00000000        0x0 /media/data/coding/GSoC/AVT/px4+mavlink/Firmware/Build/px4io-v2_default.build/nuttx-export/libs/libnuttx.a(sched-sched_getfiles.o)
 .data          0x00000000        0x0 /media/data/coding/GSoC/AVT/px4+mavlink/Firmware/Build/px4io-v2_default.build/nuttx-export/libs/libnuttx.a(sched-sched_getfiles.o)
 .bss           0x00000000        0x0 /media/data/coding/GSoC/AVT/px4+mavlink/Firmware/Build/px4io-v2_default.build/nuttx-export/libs/libnuttx.a(sched-sched_getfiles.o)
 .text          0x00000000        0x0 /media/data/coding/GSoC/AVT/px4+mavlink/Firmware/Build/px4io-v2_default.build/nuttx-export/libs/libnuttx.a(sched-sem_post.o)
 .data          0x00000000        0x0 /media/data/coding/GSoC/AVT/px4+mavlink/Firmware/Build/px4io-v2_default.build/nuttx-export/libs/libnuttx.a(sched-sem_post.o)
 .bss           0x00000000        0x0 /media/data/coding/GSoC/AVT/px4+mavlink/Firmware/Build/px4io-v2_default.build/nuttx-export/libs/libnuttx.a(sched-sem_post.o)
 .text          0x00000000        0x0 /media/data/coding/GSoC/AVT/px4+mavlink/Firmware/Build/px4io-v2_default.build/nuttx-export/libs/libnuttx.a(sched-sem_trywait.o)
 .data          0x00000000        0x0 /media/data/coding/GSoC/AVT/px4+mavlink/Firmware/Build/px4io-v2_default.build/nuttx-export/libs/libnuttx.a(sched-sem_trywait.o)
 .bss           0x00000000        0x0 /media/data/coding/GSoC/AVT/px4+mavlink/Firmware/Build/px4io-v2_default.build/nuttx-export/libs/libnuttx.a(sched-sem_trywait.o)
 .text          0x00000000        0x0 /media/data/coding/GSoC/AVT/px4+mavlink/Firmware/Build/px4io-v2_default.build/nuttx-export/libs/libnuttx.a(sched-sem_wait.o)
 .data          0x00000000        0x0 /media/data/coding/GSoC/AVT/px4+mavlink/Firmware/Build/px4io-v2_default.build/nuttx-export/libs/libnuttx.a(sched-sem_wait.o)
 .bss           0x00000000        0x0 /media/data/coding/GSoC/AVT/px4+mavlink/Firmware/Build/px4io-v2_default.build/nuttx-export/libs/libnuttx.a(sched-sem_wait.o)
 .text          0x00000000        0x0 /media/data/coding/GSoC/AVT/px4+mavlink/Firmware/Build/px4io-v2_default.build/nuttx-export/libs/libnuttx.a(sched-task_exithook.o)
 .data          0x00000000        0x0 /media/data/coding/GSoC/AVT/px4+mavlink/Firmware/Build/px4io-v2_default.build/nuttx-export/libs/libnuttx.a(sched-task_exithook.o)
 .bss           0x00000000        0x0 /media/data/coding/GSoC/AVT/px4+mavlink/Firmware/Build/px4io-v2_default.build/nuttx-export/libs/libnuttx.a(sched-task_exithook.o)
 .text          0x00000000        0x0 /media/data/coding/GSoC/AVT/px4+mavlink/Firmware/Build/px4io-v2_default.build/nuttx-export/libs/libnuttx.a(sched-task_recover.o)
 .data          0x00000000        0x0 /media/data/coding/GSoC/AVT/px4+mavlink/Firmware/Build/px4io-v2_default.build/nuttx-export/libs/libnuttx.a(sched-task_recover.o)
 .bss           0x00000000        0x0 /media/data/coding/GSoC/AVT/px4+mavlink/Firmware/Build/px4io-v2_default.build/nuttx-export/libs/libnuttx.a(sched-task_recover.o)
 .text          0x00000000        0x0 /media/data/coding/GSoC/AVT/px4+mavlink/Firmware/Build/px4io-v2_default.build/nuttx-export/libs/libnuttx.a(sched-wd_cancel.o)
 .data          0x00000000        0x0 /media/data/coding/GSoC/AVT/px4+mavlink/Firmware/Build/px4io-v2_default.build/nuttx-export/libs/libnuttx.a(sched-wd_cancel.o)
 .bss           0x00000000        0x0 /media/data/coding/GSoC/AVT/px4+mavlink/Firmware/Build/px4io-v2_default.build/nuttx-export/libs/libnuttx.a(sched-wd_cancel.o)
 .text          0x00000000        0x0 /media/data/coding/GSoC/AVT/px4+mavlink/Firmware/Build/px4io-v2_default.build/nuttx-export/libs/libnuttx.a(sched-wd_delete.o)
 .data          0x00000000        0x0 /media/data/coding/GSoC/AVT/px4+mavlink/Firmware/Build/px4io-v2_default.build/nuttx-export/libs/libnuttx.a(sched-wd_delete.o)
 .bss           0x00000000        0x0 /media/data/coding/GSoC/AVT/px4+mavlink/Firmware/Build/px4io-v2_default.build/nuttx-export/libs/libnuttx.a(sched-wd_delete.o)
 .text          0x00000000        0x0 /media/data/coding/GSoC/AVT/px4+mavlink/Firmware/Build/px4io-v2_default.build/nuttx-export/libs/libnuttx.a(sched-wd_initialize.o)
 .data          0x00000000        0x0 /media/data/coding/GSoC/AVT/px4+mavlink/Firmware/Build/px4io-v2_default.build/nuttx-export/libs/libnuttx.a(sched-wd_initialize.o)
 .bss           0x00000000        0x0 /media/data/coding/GSoC/AVT/px4+mavlink/Firmware/Build/px4io-v2_default.build/nuttx-export/libs/libnuttx.a(sched-wd_initialize.o)
 .text          0x00000000        0x0 /media/data/coding/GSoC/AVT/px4+mavlink/Firmware/Build/px4io-v2_default.build/nuttx-export/libs/libnuttx.a(c-dq_addfirst.o)
 .data          0x00000000        0x0 /media/data/coding/GSoC/AVT/px4+mavlink/Firmware/Build/px4io-v2_default.build/nuttx-export/libs/libnuttx.a(c-dq_addfirst.o)
 .bss           0x00000000        0x0 /media/data/coding/GSoC/AVT/px4+mavlink/Firmware/Build/px4io-v2_default.build/nuttx-export/libs/libnuttx.a(c-dq_addfirst.o)
 .text          0x00000000        0x0 /media/data/coding/GSoC/AVT/px4+mavlink/Firmware/Build/px4io-v2_default.build/nuttx-export/libs/libnuttx.a(c-lib_cfgetspeed.o)
 .data          0x00000000        0x0 /media/data/coding/GSoC/AVT/px4+mavlink/Firmware/Build/px4io-v2_default.build/nuttx-export/libs/libnuttx.a(c-lib_cfgetspeed.o)
 .bss           0x00000000        0x0 /media/data/coding/GSoC/AVT/px4+mavlink/Firmware/Build/px4io-v2_default.build/nuttx-export/libs/libnuttx.a(c-lib_cfgetspeed.o)
 .text          0x00000000        0x0 /media/data/coding/GSoC/AVT/px4+mavlink/Firmware/Build/px4io-v2_default.build/nuttx-export/libs/libnuttx.a(c-lib_checkbase.o)
 .data          0x00000000        0x0 /media/data/coding/GSoC/AVT/px4+mavlink/Firmware/Build/px4io-v2_default.build/nuttx-export/libs/libnuttx.a(c-lib_checkbase.o)
 .bss           0x00000000        0x0 /media/data/coding/GSoC/AVT/px4+mavlink/Firmware/Build/px4io-v2_default.build/nuttx-export/libs/libnuttx.a(c-lib_checkbase.o)
 .text          0x00000000        0x0 /media/data/coding/GSoC/AVT/px4+mavlink/Firmware/Build/px4io-v2_default.build/nuttx-export/libs/libnuttx.a(c-lib_isbasedigit.o)
 .data          0x00000000        0x0 /media/data/coding/GSoC/AVT/px4+mavlink/Firmware/Build/px4io-v2_default.build/nuttx-export/libs/libnuttx.a(c-lib_isbasedigit.o)
 .bss           0x00000000        0x0 /media/data/coding/GSoC/AVT/px4+mavlink/Firmware/Build/px4io-v2_default.build/nuttx-export/libs/libnuttx.a(c-lib_isbasedigit.o)
 .text          0x00000000        0x0 /media/data/coding/GSoC/AVT/px4+mavlink/Firmware/Build/px4io-v2_default.build/nuttx-export/libs/libnuttx.a(c-lib_libvsprintf.o)
 .data          0x00000000        0x0 /media/data/coding/GSoC/AVT/px4+mavlink/Firmware/Build/px4io-v2_default.build/nuttx-export/libs/libnuttx.a(c-lib_libvsprintf.o)
 .bss           0x00000000        0x0 /media/data/coding/GSoC/AVT/px4+mavlink/Firmware/Build/px4io-v2_default.build/nuttx-export/libs/libnuttx.a(c-lib_libvsprintf.o)
 .text          0x00000000        0x0 /media/data/coding/GSoC/AVT/px4+mavlink/Firmware/Build/px4io-v2_default.build/nuttx-export/libs/libnuttx.a(c-lib_lowoutstream.o)
 .data          0x00000000        0x0 /media/data/coding/GSoC/AVT/px4+mavlink/Firmware/Build/px4io-v2_default.build/nuttx-export/libs/libnuttx.a(c-lib_lowoutstream.o)
 .bss           0x00000000        0x0 /media/data/coding/GSoC/AVT/px4+mavlink/Firmware/Build/px4io-v2_default.build/nuttx-export/libs/libnuttx.a(c-lib_lowoutstream.o)
 .text          0x00000000        0x0 /media/data/coding/GSoC/AVT/px4+mavlink/Firmware/Build/px4io-v2_default.build/nuttx-export/libs/libnuttx.a(c-lib_memoutstream.o)
 .data          0x00000000        0x0 /media/data/coding/GSoC/AVT/px4+mavlink/Firmware/Build/px4io-v2_default.build/nuttx-export/libs/libnuttx.a(c-lib_memoutstream.o)
 .bss           0x00000000        0x0 /media/data/coding/GSoC/AVT/px4+mavlink/Firmware/Build/px4io-v2_default.build/nuttx-export/libs/libnuttx.a(c-lib_memoutstream.o)
 .text          0x00000000        0x0 /media/data/coding/GSoC/AVT/px4+mavlink/Firmware/Build/px4io-v2_default.build/nuttx-export/libs/libnuttx.a(c-lib_nulloutstream.o)
 .data          0x00000000        0x0 /media/data/coding/GSoC/AVT/px4+mavlink/Firmware/Build/px4io-v2_default.build/nuttx-export/libs/libnuttx.a(c-lib_nulloutstream.o)
 .bss           0x00000000        0x0 /media/data/coding/GSoC/AVT/px4+mavlink/Firmware/Build/px4io-v2_default.build/nuttx-export/libs/libnuttx.a(c-lib_nulloutstream.o)
 .text          0x00000000        0x0 /media/data/coding/GSoC/AVT/px4+mavlink/Firmware/Build/px4io-v2_default.build/nuttx-export/libs/libnuttx.a(c-lib_rawoutstream.o)
 .data          0x00000000        0x0 /media/data/coding/GSoC/AVT/px4+mavlink/Firmware/Build/px4io-v2_default.build/nuttx-export/libs/libnuttx.a(c-lib_rawoutstream.o)
 .bss           0x00000000        0x0 /media/data/coding/GSoC/AVT/px4+mavlink/Firmware/Build/px4io-v2_default.build/nuttx-export/libs/libnuttx.a(c-lib_rawoutstream.o)
 .text.rawoutstream_putc
                0x00000000       0x30 /media/data/coding/GSoC/AVT/px4+mavlink/Firmware/Build/px4io-v2_default.build/nuttx-export/libs/libnuttx.a(c-lib_rawoutstream.o)
 .text.lib_rawoutstream
                0x00000000       0x14 /media/data/coding/GSoC/AVT/px4+mavlink/Firmware/Build/px4io-v2_default.build/nuttx-export/libs/libnuttx.a(c-lib_rawoutstream.o)
 .text          0x00000000        0x0 /media/data/coding/GSoC/AVT/px4+mavlink/Firmware/Build/px4io-v2_default.build/nuttx-export/libs/libnuttx.a(c-lib_skipspace.o)
 .data          0x00000000        0x0 /media/data/coding/GSoC/AVT/px4+mavlink/Firmware/Build/px4io-v2_default.build/nuttx-export/libs/libnuttx.a(c-lib_skipspace.o)
 .bss           0x00000000        0x0 /media/data/coding/GSoC/AVT/px4+mavlink/Firmware/Build/px4io-v2_default.build/nuttx-export/libs/libnuttx.a(c-lib_skipspace.o)
 .text          0x00000000        0x0 /media/data/coding/GSoC/AVT/px4+mavlink/Firmware/Build/px4io-v2_default.build/nuttx-export/libs/libnuttx.a(c-lib_strlen.o)
 .data          0x00000000        0x0 /media/data/coding/GSoC/AVT/px4+mavlink/Firmware/Build/px4io-v2_default.build/nuttx-export/libs/libnuttx.a(c-lib_strlen.o)
 .bss           0x00000000        0x0 /media/data/coding/GSoC/AVT/px4+mavlink/Firmware/Build/px4io-v2_default.build/nuttx-export/libs/libnuttx.a(c-lib_strlen.o)
 .text          0x00000000        0x0 /media/data/coding/GSoC/AVT/px4+mavlink/Firmware/Build/px4io-v2_default.build/nuttx-export/libs/libnuttx.a(c-sem_init.o)
 .data          0x00000000        0x0 /media/data/coding/GSoC/AVT/px4+mavlink/Firmware/Build/px4io-v2_default.build/nuttx-export/libs/libnuttx.a(c-sem_init.o)
 .bss           0x00000000        0x0 /media/data/coding/GSoC/AVT/px4+mavlink/Firmware/Build/px4io-v2_default.build/nuttx-export/libs/libnuttx.a(c-sem_init.o)
 .text          0x00000000        0x0 /media/data/coding/GSoC/AVT/px4+mavlink/Firmware/Build/px4io-v2_default.build/nuttx-export/libs/libnuttx.a(c-sq_remafter.o)
 .data          0x00000000        0x0 /media/data/coding/GSoC/AVT/px4+mavlink/Firmware/Build/px4io-v2_default.build/nuttx-export/libs/libnuttx.a(c-sq_remafter.o)
 .bss           0x00000000        0x0 /media/data/coding/GSoC/AVT/px4+mavlink/Firmware/Build/px4io-v2_default.build/nuttx-export/libs/libnuttx.a(c-sq_remafter.o)
 .text          0x00000000        0x0 /media/data/coding/GSoC/AVT/px4+mavlink/Firmware/Build/px4io-v2_default.build/nuttx-export/libs/libnuttx.a(c-sq_remfirst.o)
 .data          0x00000000        0x0 /media/data/coding/GSoC/AVT/px4+mavlink/Firmware/Build/px4io-v2_default.build/nuttx-export/libs/libnuttx.a(c-sq_remfirst.o)
 .bss           0x00000000        0x0 /media/data/coding/GSoC/AVT/px4+mavlink/Firmware/Build/px4io-v2_default.build/nuttx-export/libs/libnuttx.a(c-sq_remfirst.o)
 .text          0x00000000        0x0 /media/data/coding/GSoC/AVT/px4+mavlink/Firmware/Build/px4io-v2_default.build/nuttx-export/libs/libnuttx.a(mm-mm_addfreechunk.o)
 .data          0x00000000        0x0 /media/data/coding/GSoC/AVT/px4+mavlink/Firmware/Build/px4io-v2_default.build/nuttx-export/libs/libnuttx.a(mm-mm_addfreechunk.o)
 .bss           0x00000000        0x0 /media/data/coding/GSoC/AVT/px4+mavlink/Firmware/Build/px4io-v2_default.build/nuttx-export/libs/libnuttx.a(mm-mm_addfreechunk.o)
 .text          0x00000000        0x0 /media/data/coding/GSoC/AVT/px4+mavlink/Firmware/Build/px4io-v2_default.build/nuttx-export/libs/libnuttx.a(mm-mm_initialize.o)
 .data          0x00000000        0x0 /media/data/coding/GSoC/AVT/px4+mavlink/Firmware/Build/px4io-v2_default.build/nuttx-export/libs/libnuttx.a(mm-mm_initialize.o)
 .bss           0x00000000        0x0 /media/data/coding/GSoC/AVT/px4+mavlink/Firmware/Build/px4io-v2_default.build/nuttx-export/libs/libnuttx.a(mm-mm_initialize.o)
 .text.mm_addregion
                0x00000000       0x50 /media/data/coding/GSoC/AVT/px4+mavlink/Firmware/Build/px4io-v2_default.build/nuttx-export/libs/libnuttx.a(mm-mm_initialize.o)
 .text          0x00000000        0x0 /media/data/coding/GSoC/AVT/px4+mavlink/Firmware/Build/px4io-v2_default.build/nuttx-export/libs/libnuttx.a(arch-stm32_allocateheap.o)
 .data          0x00000000        0x0 /media/data/coding/GSoC/AVT/px4+mavlink/Firmware/Build/px4io-v2_default.build/nuttx-export/libs/libnuttx.a(arch-stm32_allocateheap.o)
 .bss           0x00000000        0x0 /media/data/coding/GSoC/AVT/px4+mavlink/Firmware/Build/px4io-v2_default.build/nuttx-export/libs/libnuttx.a(arch-stm32_allocateheap.o)
 .text          0x00000000        0x0 /media/data/coding/GSoC/AVT/px4+mavlink/Firmware/Build/px4io-v2_default.build/nuttx-export/libs/libnuttx.a(arch-stm32_idle.o)
 .data          0x00000000        0x0 /media/data/coding/GSoC/AVT/px4+mavlink/Firmware/Build/px4io-v2_default.build/nuttx-export/libs/libnuttx.a(arch-stm32_idle.o)
 .bss           0x00000000        0x0 /media/data/coding/GSoC/AVT/px4+mavlink/Firmware/Build/px4io-v2_default.build/nuttx-export/libs/libnuttx.a(arch-stm32_idle.o)
 .text          0x00000000        0x0 /media/data/coding/GSoC/AVT/px4+mavlink/Firmware/Build/px4io-v2_default.build/nuttx-export/libs/libnuttx.a(arch-stm32_lowputc.o)
 .data          0x00000000        0x0 /media/data/coding/GSoC/AVT/px4+mavlink/Firmware/Build/px4io-v2_default.build/nuttx-export/libs/libnuttx.a(arch-stm32_lowputc.o)
 .bss           0x00000000        0x0 /media/data/coding/GSoC/AVT/px4+mavlink/Firmware/Build/px4io-v2_default.build/nuttx-export/libs/libnuttx.a(arch-stm32_lowputc.o)
 .text          0x00000000        0x0 /media/data/coding/GSoC/AVT/px4+mavlink/Firmware/Build/px4io-v2_default.build/nuttx-export/libs/libnuttx.a(arch-stm32_rcc.o)
 .data          0x00000000        0x0 /media/data/coding/GSoC/AVT/px4+mavlink/Firmware/Build/px4io-v2_default.build/nuttx-export/libs/libnuttx.a(arch-stm32_rcc.o)
 .bss           0x00000000        0x0 /media/data/coding/GSoC/AVT/px4+mavlink/Firmware/Build/px4io-v2_default.build/nuttx-export/libs/libnuttx.a(arch-stm32_rcc.o)
 .text          0x00000000        0x0 /media/data/coding/GSoC/AVT/px4+mavlink/Firmware/Build/px4io-v2_default.build/nuttx-export/libs/libnuttx.a(arch-stm32_vectors.o)
 .data          0x00000000        0x0 /media/data/coding/GSoC/AVT/px4+mavlink/Firmware/Build/px4io-v2_default.build/nuttx-export/libs/libnuttx.a(arch-stm32_vectors.o)
 .bss           0x00000000        0x0 /media/data/coding/GSoC/AVT/px4+mavlink/Firmware/Build/px4io-v2_default.build/nuttx-export/libs/libnuttx.a(arch-stm32_vectors.o)
 .text          0x00000000        0x0 /media/data/coding/GSoC/AVT/px4+mavlink/Firmware/Build/px4io-v2_default.build/nuttx-export/libs/libnuttx.a(arch-up_blocktask.o)
 .data          0x00000000        0x0 /media/data/coding/GSoC/AVT/px4+mavlink/Firmware/Build/px4io-v2_default.build/nuttx-export/libs/libnuttx.a(arch-up_blocktask.o)
 .bss           0x00000000        0x0 /media/data/coding/GSoC/AVT/px4+mavlink/Firmware/Build/px4io-v2_default.build/nuttx-export/libs/libnuttx.a(arch-up_blocktask.o)
 .text          0x00000000        0x0 /media/data/coding/GSoC/AVT/px4+mavlink/Firmware/Build/px4io-v2_default.build/nuttx-export/libs/libnuttx.a(arch-up_copystate.o)
 .data          0x00000000        0x0 /media/data/coding/GSoC/AVT/px4+mavlink/Firmware/Build/px4io-v2_default.build/nuttx-export/libs/libnuttx.a(arch-up_copystate.o)
 .bss           0x00000000        0x0 /media/data/coding/GSoC/AVT/px4+mavlink/Firmware/Build/px4io-v2_default.build/nuttx-export/libs/libnuttx.a(arch-up_copystate.o)
 .data          0x00000000        0x0 /media/data/coding/GSoC/AVT/px4+mavlink/Firmware/Build/px4io-v2_default.build/nuttx-export/libs/libnuttx.a(arch-up_exception.o)
 .bss           0x00000000        0x0 /media/data/coding/GSoC/AVT/px4+mavlink/Firmware/Build/px4io-v2_default.build/nuttx-export/libs/libnuttx.a(arch-up_exception.o)
 .text          0x00000000        0x0 /media/data/coding/GSoC/AVT/px4+mavlink/Firmware/Build/px4io-v2_default.build/nuttx-export/libs/libnuttx.a(arch-up_exit.o)
 .data          0x00000000        0x0 /media/data/coding/GSoC/AVT/px4+mavlink/Firmware/Build/px4io-v2_default.build/nuttx-export/libs/libnuttx.a(arch-up_exit.o)
 .bss           0x00000000        0x0 /media/data/coding/GSoC/AVT/px4+mavlink/Firmware/Build/px4io-v2_default.build/nuttx-export/libs/libnuttx.a(arch-up_exit.o)
 .data          0x00000000        0x0 /media/data/coding/GSoC/AVT/px4+mavlink/Firmware/Build/px4io-v2_default.build/nuttx-export/libs/libnuttx.a(arch-up_fullcontextrestore.o)
 .bss           0x00000000        0x0 /media/data/coding/GSoC/AVT/px4+mavlink/Firmware/Build/px4io-v2_default.build/nuttx-export/libs/libnuttx.a(arch-up_fullcontextrestore.o)
 .text          0x00000000        0x0 /media/data/coding/GSoC/AVT/px4+mavlink/Firmware/Build/px4io-v2_default.build/nuttx-export/libs/libnuttx.a(arch-up_initialize.o)
 .data          0x00000000        0x0 /media/data/coding/GSoC/AVT/px4+mavlink/Firmware/Build/px4io-v2_default.build/nuttx-export/libs/libnuttx.a(arch-up_initialize.o)
 .bss           0x00000000        0x0 /media/data/coding/GSoC/AVT/px4+mavlink/Firmware/Build/px4io-v2_default.build/nuttx-export/libs/libnuttx.a(arch-up_initialize.o)
 .text          0x00000000        0x0 /media/data/coding/GSoC/AVT/px4+mavlink/Firmware/Build/px4io-v2_default.build/nuttx-export/libs/libnuttx.a(arch-up_initialstate.o)
 .data          0x00000000        0x0 /media/data/coding/GSoC/AVT/px4+mavlink/Firmware/Build/px4io-v2_default.build/nuttx-export/libs/libnuttx.a(arch-up_initialstate.o)
 .bss           0x00000000        0x0 /media/data/coding/GSoC/AVT/px4+mavlink/Firmware/Build/px4io-v2_default.build/nuttx-export/libs/libnuttx.a(arch-up_initialstate.o)
 .text          0x00000000        0x0 /media/data/coding/GSoC/AVT/px4+mavlink/Firmware/Build/px4io-v2_default.build/nuttx-export/libs/libnuttx.a(arch-up_interruptcontext.o)
 .data          0x00000000        0x0 /media/data/coding/GSoC/AVT/px4+mavlink/Firmware/Build/px4io-v2_default.build/nuttx-export/libs/libnuttx.a(arch-up_interruptcontext.o)
 .bss           0x00000000        0x0 /media/data/coding/GSoC/AVT/px4+mavlink/Firmware/Build/px4io-v2_default.build/nuttx-export/libs/libnuttx.a(arch-up_interruptcontext.o)
 .text          0x00000000        0x0 /media/data/coding/GSoC/AVT/px4+mavlink/Firmware/Build/px4io-v2_default.build/nuttx-export/libs/libnuttx.a(arch-up_mdelay.o)
 .data          0x00000000        0x0 /media/data/coding/GSoC/AVT/px4+mavlink/Firmware/Build/px4io-v2_default.build/nuttx-export/libs/libnuttx.a(arch-up_mdelay.o)
 .bss           0x00000000        0x0 /media/data/coding/GSoC/AVT/px4+mavlink/Firmware/Build/px4io-v2_default.build/nuttx-export/libs/libnuttx.a(arch-up_mdelay.o)
 .data          0x00000000        0x0 /media/data/coding/GSoC/AVT/px4+mavlink/Firmware/Build/px4io-v2_default.build/nuttx-export/libs/libnuttx.a(arch-up_switchcontext.o)
 .bss           0x00000000        0x0 /media/data/coding/GSoC/AVT/px4+mavlink/Firmware/Build/px4io-v2_default.build/nuttx-export/libs/libnuttx.a(arch-up_switchcontext.o)
 .text          0x00000000        0x0 /media/data/coding/GSoC/AVT/px4+mavlink/Firmware/Build/px4io-v2_default.build/nuttx-export/libs/libnuttx.a(arch-up_unblocktask.o)
 .data          0x00000000        0x0 /media/data/coding/GSoC/AVT/px4+mavlink/Firmware/Build/px4io-v2_default.build/nuttx-export/libs/libnuttx.a(arch-up_unblocktask.o)
 .bss           0x00000000        0x0 /media/data/coding/GSoC/AVT/px4+mavlink/Firmware/Build/px4io-v2_default.build/nuttx-export/libs/libnuttx.a(arch-up_unblocktask.o)
 .text          0x00000000        0x0 /media/data/coding/GSoC/AVT/px4+mavlink/Firmware/Build/px4io-v2_default.build/nuttx-export/libs/libnuttx.a(fs-fs_files.o)
 .data          0x00000000        0x0 /media/data/coding/GSoC/AVT/px4+mavlink/Firmware/Build/px4io-v2_default.build/nuttx-export/libs/libnuttx.a(fs-fs_files.o)
 .bss           0x00000000        0x0 /media/data/coding/GSoC/AVT/px4+mavlink/Firmware/Build/px4io-v2_default.build/nuttx-export/libs/libnuttx.a(fs-fs_files.o)
 .text          0x00000000        0x0 /media/data/coding/GSoC/AVT/px4+mavlink/Firmware/Build/px4io-v2_default.build/nuttx-export/libs/libnuttx.a(fs-fs_inodeaddref.o)
 .data          0x00000000        0x0 /media/data/coding/GSoC/AVT/px4+mavlink/Firmware/Build/px4io-v2_default.build/nuttx-export/libs/libnuttx.a(fs-fs_inodeaddref.o)
 .bss           0x00000000        0x0 /media/data/coding/GSoC/AVT/px4+mavlink/Firmware/Build/px4io-v2_default.build/nuttx-export/libs/libnuttx.a(fs-fs_inodeaddref.o)
 .text          0x00000000        0x0 /media/data/coding/GSoC/AVT/px4+mavlink/Firmware/Build/px4io-v2_default.build/nuttx-export/libs/libnuttx.a(fs-fs_inodefind.o)
 .data          0x00000000        0x0 /media/data/coding/GSoC/AVT/px4+mavlink/Firmware/Build/px4io-v2_default.build/nuttx-export/libs/libnuttx.a(fs-fs_inodefind.o)
 .bss           0x00000000        0x0 /media/data/coding/GSoC/AVT/px4+mavlink/Firmware/Build/px4io-v2_default.build/nuttx-export/libs/libnuttx.a(fs-fs_inodefind.o)
 .text          0x00000000        0x0 /media/data/coding/GSoC/AVT/px4+mavlink/Firmware/Build/px4io-v2_default.build/nuttx-export/libs/libnuttx.a(fs-fs_inode.o)
 .data          0x00000000        0x0 /media/data/coding/GSoC/AVT/px4+mavlink/Firmware/Build/px4io-v2_default.build/nuttx-export/libs/libnuttx.a(fs-fs_inode.o)
 .bss           0x00000000        0x0 /media/data/coding/GSoC/AVT/px4+mavlink/Firmware/Build/px4io-v2_default.build/nuttx-export/libs/libnuttx.a(fs-fs_inode.o)
 .text          0x00000000        0x0 /media/data/coding/GSoC/AVT/px4+mavlink/Firmware/Build/px4io-v2_default.build/nuttx-export/libs/libnuttx.a(fs-fs_inoderelease.o)
 .data          0x00000000        0x0 /media/data/coding/GSoC/AVT/px4+mavlink/Firmware/Build/px4io-v2_default.build/nuttx-export/libs/libnuttx.a(fs-fs_inoderelease.o)
 .bss           0x00000000        0x0 /media/data/coding/GSoC/AVT/px4+mavlink/Firmware/Build/px4io-v2_default.build/nuttx-export/libs/libnuttx.a(fs-fs_inoderelease.o)
 .text          0x00000000        0x0 /media/data/coding/GSoC/AVT/px4+mavlink/Firmware/Build/px4io-v2_default.build/nuttx-export/libs/libnuttx.a(fs-fs_registerdriver.o)
 .data          0x00000000        0x0 /media/data/coding/GSoC/AVT/px4+mavlink/Firmware/Build/px4io-v2_default.build/nuttx-export/libs/libnuttx.a(fs-fs_registerdriver.o)
 .bss           0x00000000        0x0 /media/data/coding/GSoC/AVT/px4+mavlink/Firmware/Build/px4io-v2_default.build/nuttx-export/libs/libnuttx.a(fs-fs_registerdriver.o)
 .text          0x00000000        0x0 /media/data/coding/GSoC/AVT/px4+mavlink/Firmware/Build/px4io-v2_default.build/nuttx-export/libs/libnuttx.a(sched-group_create.o)
 .data          0x00000000        0x0 /media/data/coding/GSoC/AVT/px4+mavlink/Firmware/Build/px4io-v2_default.build/nuttx-export/libs/libnuttx.a(sched-group_create.o)
 .bss           0x00000000        0x0 /media/data/coding/GSoC/AVT/px4+mavlink/Firmware/Build/px4io-v2_default.build/nuttx-export/libs/libnuttx.a(sched-group_create.o)
 .text          0x00000000        0x0 /media/data/coding/GSoC/AVT/px4+mavlink/Firmware/Build/px4io-v2_default.build/nuttx-export/libs/libnuttx.a(sched-group_leave.o)
 .data          0x00000000        0x0 /media/data/coding/GSoC/AVT/px4+mavlink/Firmware/Build/px4io-v2_default.build/nuttx-export/libs/libnuttx.a(sched-group_leave.o)
 .bss           0x00000000        0x0 /media/data/coding/GSoC/AVT/px4+mavlink/Firmware/Build/px4io-v2_default.build/nuttx-export/libs/libnuttx.a(sched-group_leave.o)
 .text          0x00000000        0x0 /media/data/coding/GSoC/AVT/px4+mavlink/Firmware/Build/px4io-v2_default.build/nuttx-export/libs/libnuttx.a(sched-group_setupidlefiles.o)
 .data          0x00000000        0x0 /media/data/coding/GSoC/AVT/px4+mavlink/Firmware/Build/px4io-v2_default.build/nuttx-export/libs/libnuttx.a(sched-group_setupidlefiles.o)
 .bss           0x00000000        0x0 /media/data/coding/GSoC/AVT/px4+mavlink/Firmware/Build/px4io-v2_default.build/nuttx-export/libs/libnuttx.a(sched-group_setupidlefiles.o)
 .text          0x00000000        0x0 /media/data/coding/GSoC/AVT/px4+mavlink/Firmware/Build/px4io-v2_default.build/nuttx-export/libs/libnuttx.a(sched-os_bringup.o)
 .data          0x00000000        0x0 /media/data/coding/GSoC/AVT/px4+mavlink/Firmware/Build/px4io-v2_default.build/nuttx-export/libs/libnuttx.a(sched-os_bringup.o)
 .bss           0x00000000        0x0 /media/data/coding/GSoC/AVT/px4+mavlink/Firmware/Build/px4io-v2_default.build/nuttx-export/libs/libnuttx.a(sched-os_bringup.o)
 .text          0x00000000        0x0 /media/data/coding/GSoC/AVT/px4+mavlink/Firmware/Build/px4io-v2_default.build/nuttx-export/libs/libnuttx.a(sched-sched_addblocked.o)
 .data          0x00000000        0x0 /media/data/coding/GSoC/AVT/px4+mavlink/Firmware/Build/px4io-v2_default.build/nuttx-export/libs/libnuttx.a(sched-sched_addblocked.o)
 .bss           0x00000000        0x0 /media/data/coding/GSoC/AVT/px4+mavlink/Firmware/Build/px4io-v2_default.build/nuttx-export/libs/libnuttx.a(sched-sched_addblocked.o)
 .text          0x00000000        0x0 /media/data/coding/GSoC/AVT/px4+mavlink/Firmware/Build/px4io-v2_default.build/nuttx-export/libs/libnuttx.a(sched-sched_addprioritized.o)
 .data          0x00000000        0x0 /media/data/coding/GSoC/AVT/px4+mavlink/Firmware/Build/px4io-v2_default.build/nuttx-export/libs/libnuttx.a(sched-sched_addprioritized.o)
 .bss           0x00000000        0x0 /media/data/coding/GSoC/AVT/px4+mavlink/Firmware/Build/px4io-v2_default.build/nuttx-export/libs/libnuttx.a(sched-sched_addprioritized.o)
 .text          0x00000000        0x0 /media/data/coding/GSoC/AVT/px4+mavlink/Firmware/Build/px4io-v2_default.build/nuttx-export/libs/libnuttx.a(sched-sched_addreadytorun.o)
 .data          0x00000000        0x0 /media/data/coding/GSoC/AVT/px4+mavlink/Firmware/Build/px4io-v2_default.build/nuttx-export/libs/libnuttx.a(sched-sched_addreadytorun.o)
 .bss           0x00000000        0x0 /media/data/coding/GSoC/AVT/px4+mavlink/Firmware/Build/px4io-v2_default.build/nuttx-export/libs/libnuttx.a(sched-sched_addreadytorun.o)
 .text          0x00000000        0x0 /media/data/coding/GSoC/AVT/px4+mavlink/Firmware/Build/px4io-v2_default.build/nuttx-export/libs/libnuttx.a(sched-sched_free.o)
 .data          0x00000000        0x0 /media/data/coding/GSoC/AVT/px4+mavlink/Firmware/Build/px4io-v2_default.build/nuttx-export/libs/libnuttx.a(sched-sched_free.o)
 .bss           0x00000000        0x0 /media/data/coding/GSoC/AVT/px4+mavlink/Firmware/Build/px4io-v2_default.build/nuttx-export/libs/libnuttx.a(sched-sched_free.o)
 .text          0x00000000        0x0 /media/data/coding/GSoC/AVT/px4+mavlink/Firmware/Build/px4io-v2_default.build/nuttx-export/libs/libnuttx.a(sched-sched_mergepending.o)
 .data          0x00000000        0x0 /media/data/coding/GSoC/AVT/px4+mavlink/Firmware/Build/px4io-v2_default.build/nuttx-export/libs/libnuttx.a(sched-sched_mergepending.o)
 .bss           0x00000000        0x0 /media/data/coding/GSoC/AVT/px4+mavlink/Firmware/Build/px4io-v2_default.build/nuttx-export/libs/libnuttx.a(sched-sched_mergepending.o)
 .text          0x00000000        0x0 /media/data/coding/GSoC/AVT/px4+mavlink/Firmware/Build/px4io-v2_default.build/nuttx-export/libs/libnuttx.a(sched-sched_removeblocked.o)
 .data          0x00000000        0x0 /media/data/coding/GSoC/AVT/px4+mavlink/Firmware/Build/px4io-v2_default.build/nuttx-export/libs/libnuttx.a(sched-sched_removeblocked.o)
 .bss           0x00000000        0x0 /media/data/coding/GSoC/AVT/px4+mavlink/Firmware/Build/px4io-v2_default.build/nuttx-export/libs/libnuttx.a(sched-sched_removeblocked.o)
 .text          0x00000000        0x0 /media/data/coding/GSoC/AVT/px4+mavlink/Firmware/Build/px4io-v2_default.build/nuttx-export/libs/libnuttx.a(sched-sched_removereadytorun.o)
 .data          0x00000000        0x0 /media/data/coding/GSoC/AVT/px4+mavlink/Firmware/Build/px4io-v2_default.build/nuttx-export/libs/libnuttx.a(sched-sched_removereadytorun.o)
 .bss           0x00000000        0x0 /media/data/coding/GSoC/AVT/px4+mavlink/Firmware/Build/px4io-v2_default.build/nuttx-export/libs/libnuttx.a(sched-sched_removereadytorun.o)
 .text          0x00000000        0x0 /media/data/coding/GSoC/AVT/px4+mavlink/Firmware/Build/px4io-v2_default.build/nuttx-export/libs/libnuttx.a(sched-sem_destroy.o)
 .data          0x00000000        0x0 /media/data/coding/GSoC/AVT/px4+mavlink/Firmware/Build/px4io-v2_default.build/nuttx-export/libs/libnuttx.a(sched-sem_destroy.o)
 .bss           0x00000000        0x0 /media/data/coding/GSoC/AVT/px4+mavlink/Firmware/Build/px4io-v2_default.build/nuttx-export/libs/libnuttx.a(sched-sem_destroy.o)
 .text          0x00000000        0x0 /media/data/coding/GSoC/AVT/px4+mavlink/Firmware/Build/px4io-v2_default.build/nuttx-export/libs/libnuttx.a(sched-task_create.o)
 .data          0x00000000        0x0 /media/data/coding/GSoC/AVT/px4+mavlink/Firmware/Build/px4io-v2_default.build/nuttx-export/libs/libnuttx.a(sched-task_create.o)
 .bss           0x00000000        0x0 /media/data/coding/GSoC/AVT/px4+mavlink/Firmware/Build/px4io-v2_default.build/nuttx-export/libs/libnuttx.a(sched-task_create.o)
 .text.kernel_thread
                0x00000000       0x20 /media/data/coding/GSoC/AVT/px4+mavlink/Firmware/Build/px4io-v2_default.build/nuttx-export/libs/libnuttx.a(sched-task_create.o)
 .text          0x00000000        0x0 /media/data/coding/GSoC/AVT/px4+mavlink/Firmware/Build/px4io-v2_default.build/nuttx-export/libs/libnuttx.a(sched-task_exit.o)
 .data          0x00000000        0x0 /media/data/coding/GSoC/AVT/px4+mavlink/Firmware/Build/px4io-v2_default.build/nuttx-export/libs/libnuttx.a(sched-task_exit.o)
 .bss           0x00000000        0x0 /media/data/coding/GSoC/AVT/px4+mavlink/Firmware/Build/px4io-v2_default.build/nuttx-export/libs/libnuttx.a(sched-task_exit.o)
 .text          0x00000000        0x0 /media/data/coding/GSoC/AVT/px4+mavlink/Firmware/Build/px4io-v2_default.build/nuttx-export/libs/libnuttx.a(sched-task_setup.o)
 .data          0x00000000        0x0 /media/data/coding/GSoC/AVT/px4+mavlink/Firmware/Build/px4io-v2_default.build/nuttx-export/libs/libnuttx.a(sched-task_setup.o)
 .bss           0x00000000        0x0 /media/data/coding/GSoC/AVT/px4+mavlink/Firmware/Build/px4io-v2_default.build/nuttx-export/libs/libnuttx.a(sched-task_setup.o)
 .text          0x00000000        0x0 /media/data/coding/GSoC/AVT/px4+mavlink/Firmware/Build/px4io-v2_default.build/nuttx-export/libs/libnuttx.a(sched-task_start.o)
 .data          0x00000000        0x0 /media/data/coding/GSoC/AVT/px4+mavlink/Firmware/Build/px4io-v2_default.build/nuttx-export/libs/libnuttx.a(sched-task_start.o)
 .bss           0x00000000        0x0 /media/data/coding/GSoC/AVT/px4+mavlink/Firmware/Build/px4io-v2_default.build/nuttx-export/libs/libnuttx.a(sched-task_start.o)
 .text          0x00000000        0x0 /media/data/coding/GSoC/AVT/px4+mavlink/Firmware/Build/px4io-v2_default.build/nuttx-export/libs/libnuttx.a(sched-task_terminate.o)
 .data          0x00000000        0x0 /media/data/coding/GSoC/AVT/px4+mavlink/Firmware/Build/px4io-v2_default.build/nuttx-export/libs/libnuttx.a(sched-task_terminate.o)
 .bss           0x00000000        0x0 /media/data/coding/GSoC/AVT/px4+mavlink/Firmware/Build/px4io-v2_default.build/nuttx-export/libs/libnuttx.a(sched-task_terminate.o)
 .text          0x00000000        0x0 /media/data/coding/GSoC/AVT/px4+mavlink/Firmware/Build/px4io-v2_default.build/nuttx-export/libs/libnuttx.a(c-dq_addlast.o)
 .data          0x00000000        0x0 /media/data/coding/GSoC/AVT/px4+mavlink/Firmware/Build/px4io-v2_default.build/nuttx-export/libs/libnuttx.a(c-dq_addlast.o)
 .bss           0x00000000        0x0 /media/data/coding/GSoC/AVT/px4+mavlink/Firmware/Build/px4io-v2_default.build/nuttx-export/libs/libnuttx.a(c-dq_addlast.o)
 .text          0x00000000        0x0 /media/data/coding/GSoC/AVT/px4+mavlink/Firmware/Build/px4io-v2_default.build/nuttx-export/libs/libnuttx.a(c-dq_rem.o)
 .data          0x00000000        0x0 /media/data/coding/GSoC/AVT/px4+mavlink/Firmware/Build/px4io-v2_default.build/nuttx-export/libs/libnuttx.a(c-dq_rem.o)
 .bss           0x00000000        0x0 /media/data/coding/GSoC/AVT/px4+mavlink/Firmware/Build/px4io-v2_default.build/nuttx-export/libs/libnuttx.a(c-dq_rem.o)
 .text          0x00000000        0x0 /media/data/coding/GSoC/AVT/px4+mavlink/Firmware/Build/px4io-v2_default.build/nuttx-export/libs/libnuttx.a(c-lib_strdup.o)
 .data          0x00000000        0x0 /media/data/coding/GSoC/AVT/px4+mavlink/Firmware/Build/px4io-v2_default.build/nuttx-export/libs/libnuttx.a(c-lib_strdup.o)
 .bss           0x00000000        0x0 /media/data/coding/GSoC/AVT/px4+mavlink/Firmware/Build/px4io-v2_default.build/nuttx-export/libs/libnuttx.a(c-lib_strdup.o)
 .text          0x00000000        0x0 /media/data/coding/GSoC/AVT/px4+mavlink/Firmware/Build/px4io-v2_default.build/nuttx-export/libs/libnuttx.a(arch-stm32_timerisr.o)
 .data          0x00000000        0x0 /media/data/coding/GSoC/AVT/px4+mavlink/Firmware/Build/px4io-v2_default.build/nuttx-export/libs/libnuttx.a(arch-stm32_timerisr.o)
 .bss           0x00000000        0x0 /media/data/coding/GSoC/AVT/px4+mavlink/Firmware/Build/px4io-v2_default.build/nuttx-export/libs/libnuttx.a(arch-stm32_timerisr.o)
 .text          0x00000000        0x0 /media/data/coding/GSoC/AVT/px4+mavlink/Firmware/Build/px4io-v2_default.build/nuttx-export/libs/libnuttx.a(arch-up_createstack.o)
 .data          0x00000000        0x0 /media/data/coding/GSoC/AVT/px4+mavlink/Firmware/Build/px4io-v2_default.build/nuttx-export/libs/libnuttx.a(arch-up_createstack.o)
 .bss           0x00000000        0x0 /media/data/coding/GSoC/AVT/px4+mavlink/Firmware/Build/px4io-v2_default.build/nuttx-export/libs/libnuttx.a(arch-up_createstack.o)
 .text          0x00000000        0x0 /media/data/coding/GSoC/AVT/px4+mavlink/Firmware/Build/px4io-v2_default.build/nuttx-export/libs/libnuttx.a(arch-up_doirq.o)
 .data          0x00000000        0x0 /media/data/coding/GSoC/AVT/px4+mavlink/Firmware/Build/px4io-v2_default.build/nuttx-export/libs/libnuttx.a(arch-up_doirq.o)
 .bss           0x00000000        0x0 /media/data/coding/GSoC/AVT/px4+mavlink/Firmware/Build/px4io-v2_default.build/nuttx-export/libs/libnuttx.a(arch-up_doirq.o)
 .text          0x00000000        0x0 /media/data/coding/GSoC/AVT/px4+mavlink/Firmware/Build/px4io-v2_default.build/nuttx-export/libs/libnuttx.a(arch-up_releasestack.o)
 .data          0x00000000        0x0 /media/data/coding/GSoC/AVT/px4+mavlink/Firmware/Build/px4io-v2_default.build/nuttx-export/libs/libnuttx.a(arch-up_releasestack.o)
 .bss           0x00000000        0x0 /media/data/coding/GSoC/AVT/px4+mavlink/Firmware/Build/px4io-v2_default.build/nuttx-export/libs/libnuttx.a(arch-up_releasestack.o)
 .text          0x00000000        0x0 /media/data/coding/GSoC/AVT/px4+mavlink/Firmware/Build/px4io-v2_default.build/nuttx-export/libs/libnuttx.a(fs-fs_close.o)
 .data          0x00000000        0x0 /media/data/coding/GSoC/AVT/px4+mavlink/Firmware/Build/px4io-v2_default.build/nuttx-export/libs/libnuttx.a(fs-fs_close.o)
 .bss           0x00000000        0x0 /media/data/coding/GSoC/AVT/px4+mavlink/Firmware/Build/px4io-v2_default.build/nuttx-export/libs/libnuttx.a(fs-fs_close.o)
 .text          0x00000000        0x0 /media/data/coding/GSoC/AVT/px4+mavlink/Firmware/Build/px4io-v2_default.build/nuttx-export/libs/libnuttx.a(fs-fs_filedup2.o)
 .data          0x00000000        0x0 /media/data/coding/GSoC/AVT/px4+mavlink/Firmware/Build/px4io-v2_default.build/nuttx-export/libs/libnuttx.a(fs-fs_filedup2.o)
 .bss           0x00000000        0x0 /media/data/coding/GSoC/AVT/px4+mavlink/Firmware/Build/px4io-v2_default.build/nuttx-export/libs/libnuttx.a(fs-fs_filedup2.o)
 .text          0x00000000        0x0 /media/data/coding/GSoC/AVT/px4+mavlink/Firmware/Build/px4io-v2_default.build/nuttx-export/libs/libnuttx.a(fs-fs_inodereserve.o)
 .data          0x00000000        0x0 /media/data/coding/GSoC/AVT/px4+mavlink/Firmware/Build/px4io-v2_default.build/nuttx-export/libs/libnuttx.a(fs-fs_inodereserve.o)
 .bss           0x00000000        0x0 /media/data/coding/GSoC/AVT/px4+mavlink/Firmware/Build/px4io-v2_default.build/nuttx-export/libs/libnuttx.a(fs-fs_inodereserve.o)
 .text          0x00000000        0x0 /media/data/coding/GSoC/AVT/px4+mavlink/Firmware/Build/px4io-v2_default.build/nuttx-export/libs/libnuttx.a(sched-group_setuptaskfiles.o)
 .data          0x00000000        0x0 /media/data/coding/GSoC/AVT/px4+mavlink/Firmware/Build/px4io-v2_default.build/nuttx-export/libs/libnuttx.a(sched-group_setuptaskfiles.o)
 .bss           0x00000000        0x0 /media/data/coding/GSoC/AVT/px4+mavlink/Firmware/Build/px4io-v2_default.build/nuttx-export/libs/libnuttx.a(sched-group_setuptaskfiles.o)
 .text          0x00000000        0x0 /media/data/coding/GSoC/AVT/px4+mavlink/Firmware/Build/px4io-v2_default.build/nuttx-export/libs/libnuttx.a(sched-irq_dispatch.o)
 .data          0x00000000        0x0 /media/data/coding/GSoC/AVT/px4+mavlink/Firmware/Build/px4io-v2_default.build/nuttx-export/libs/libnuttx.a(sched-irq_dispatch.o)
 .bss           0x00000000        0x0 /media/data/coding/GSoC/AVT/px4+mavlink/Firmware/Build/px4io-v2_default.build/nuttx-export/libs/libnuttx.a(sched-irq_dispatch.o)
 .text          0x00000000        0x0 /media/data/coding/GSoC/AVT/px4+mavlink/Firmware/Build/px4io-v2_default.build/nuttx-export/libs/libnuttx.a(sched-sched_gettcb.o)
 .data          0x00000000        0x0 /media/data/coding/GSoC/AVT/px4+mavlink/Firmware/Build/px4io-v2_default.build/nuttx-export/libs/libnuttx.a(sched-sched_gettcb.o)
 .bss           0x00000000        0x0 /media/data/coding/GSoC/AVT/px4+mavlink/Firmware/Build/px4io-v2_default.build/nuttx-export/libs/libnuttx.a(sched-sched_gettcb.o)
 .text          0x00000000        0x0 /media/data/coding/GSoC/AVT/px4+mavlink/Firmware/Build/px4io-v2_default.build/nuttx-export/libs/libnuttx.a(sched-sched_lock.o)
 .data          0x00000000        0x0 /media/data/coding/GSoC/AVT/px4+mavlink/Firmware/Build/px4io-v2_default.build/nuttx-export/libs/libnuttx.a(sched-sched_lock.o)
 .bss           0x00000000        0x0 /media/data/coding/GSoC/AVT/px4+mavlink/Firmware/Build/px4io-v2_default.build/nuttx-export/libs/libnuttx.a(sched-sched_lock.o)
 .text          0x00000000        0x0 /media/data/coding/GSoC/AVT/px4+mavlink/Firmware/Build/px4io-v2_default.build/nuttx-export/libs/libnuttx.a(sched-sched_processtimer.o)
 .data          0x00000000        0x0 /media/data/coding/GSoC/AVT/px4+mavlink/Firmware/Build/px4io-v2_default.build/nuttx-export/libs/libnuttx.a(sched-sched_processtimer.o)
 .bss           0x00000000        0x0 /media/data/coding/GSoC/AVT/px4+mavlink/Firmware/Build/px4io-v2_default.build/nuttx-export/libs/libnuttx.a(sched-sched_processtimer.o)
 .text          0x00000000        0x0 /media/data/coding/GSoC/AVT/px4+mavlink/Firmware/Build/px4io-v2_default.build/nuttx-export/libs/libnuttx.a(sched-sched_releasetcb.o)
 .data          0x00000000        0x0 /media/data/coding/GSoC/AVT/px4+mavlink/Firmware/Build/px4io-v2_default.build/nuttx-export/libs/libnuttx.a(sched-sched_releasetcb.o)
 .bss           0x00000000        0x0 /media/data/coding/GSoC/AVT/px4+mavlink/Firmware/Build/px4io-v2_default.build/nuttx-export/libs/libnuttx.a(sched-sched_releasetcb.o)
 .text          0x00000000        0x0 /media/data/coding/GSoC/AVT/px4+mavlink/Firmware/Build/px4io-v2_default.build/nuttx-export/libs/libnuttx.a(sched-sched_unlock.o)
 .data          0x00000000        0x0 /media/data/coding/GSoC/AVT/px4+mavlink/Firmware/Build/px4io-v2_default.build/nuttx-export/libs/libnuttx.a(sched-sched_unlock.o)
 .bss           0x00000000        0x0 /media/data/coding/GSoC/AVT/px4+mavlink/Firmware/Build/px4io-v2_default.build/nuttx-export/libs/libnuttx.a(sched-sched_unlock.o)
 .text          0x00000000        0x0 /media/data/coding/GSoC/AVT/px4+mavlink/Firmware/Build/px4io-v2_default.build/nuttx-export/libs/libnuttx.a(sched-task_activate.o)
 .data          0x00000000        0x0 /media/data/coding/GSoC/AVT/px4+mavlink/Firmware/Build/px4io-v2_default.build/nuttx-export/libs/libnuttx.a(sched-task_activate.o)
 .bss           0x00000000        0x0 /media/data/coding/GSoC/AVT/px4+mavlink/Firmware/Build/px4io-v2_default.build/nuttx-export/libs/libnuttx.a(sched-task_activate.o)
 .text          0x00000000        0x0 /media/data/coding/GSoC/AVT/px4+mavlink/Firmware/Build/px4io-v2_default.build/nuttx-export/libs/libnuttx.a(c-lib_strcpy.o)
 .data          0x00000000        0x0 /media/data/coding/GSoC/AVT/px4+mavlink/Firmware/Build/px4io-v2_default.build/nuttx-export/libs/libnuttx.a(c-lib_strcpy.o)
 .bss           0x00000000        0x0 /media/data/coding/GSoC/AVT/px4+mavlink/Firmware/Build/px4io-v2_default.build/nuttx-export/libs/libnuttx.a(c-lib_strcpy.o)
 .text          0x00000000        0x0 /media/data/coding/GSoC/AVT/px4+mavlink/Firmware/Build/px4io-v2_default.build/nuttx-export/libs/libnuttx.a(arch-up_releasepending.o)
 .data          0x00000000        0x0 /media/data/coding/GSoC/AVT/px4+mavlink/Firmware/Build/px4io-v2_default.build/nuttx-export/libs/libnuttx.a(arch-up_releasepending.o)
 .bss           0x00000000        0x0 /media/data/coding/GSoC/AVT/px4+mavlink/Firmware/Build/px4io-v2_default.build/nuttx-export/libs/libnuttx.a(arch-up_releasepending.o)
 .data          0x00000000        0x0 /home/avnishks/gcc-arm-none-eabi-4_6-2012q2/bin/../lib/gcc/arm-none-eabi/4.6.2/armv7-m/libgcc.a(_arm_addsubsf3.o)
 .bss           0x00000000        0x0 /home/avnishks/gcc-arm-none-eabi-4_6-2012q2/bin/../lib/gcc/arm-none-eabi/4.6.2/armv7-m/libgcc.a(_arm_addsubsf3.o)
 .data          0x00000000        0x0 /home/avnishks/gcc-arm-none-eabi-4_6-2012q2/bin/../lib/gcc/arm-none-eabi/4.6.2/armv7-m/libgcc.a(_arm_muldivsf3.o)
 .bss           0x00000000        0x0 /home/avnishks/gcc-arm-none-eabi-4_6-2012q2/bin/../lib/gcc/arm-none-eabi/4.6.2/armv7-m/libgcc.a(_arm_muldivsf3.o)
 .data          0x00000000        0x0 /home/avnishks/gcc-arm-none-eabi-4_6-2012q2/bin/../lib/gcc/arm-none-eabi/4.6.2/armv7-m/libgcc.a(_arm_cmpsf2.o)
 .bss           0x00000000        0x0 /home/avnishks/gcc-arm-none-eabi-4_6-2012q2/bin/../lib/gcc/arm-none-eabi/4.6.2/armv7-m/libgcc.a(_arm_cmpsf2.o)
 .data          0x00000000        0x0 /home/avnishks/gcc-arm-none-eabi-4_6-2012q2/bin/../lib/gcc/arm-none-eabi/4.6.2/armv7-m/libgcc.a(_arm_fixsfsi.o)
 .bss           0x00000000        0x0 /home/avnishks/gcc-arm-none-eabi-4_6-2012q2/bin/../lib/gcc/arm-none-eabi/4.6.2/armv7-m/libgcc.a(_arm_fixsfsi.o)
 .data          0x00000000        0x0 /home/avnishks/gcc-arm-none-eabi-4_6-2012q2/bin/../lib/gcc/arm-none-eabi/4.6.2/armv7-m/libgcc.a(_arm_fixunssfsi.o)
 .bss           0x00000000        0x0 /home/avnishks/gcc-arm-none-eabi-4_6-2012q2/bin/../lib/gcc/arm-none-eabi/4.6.2/armv7-m/libgcc.a(_arm_fixunssfsi.o)
 .data          0x00000000        0x0 /home/avnishks/gcc-arm-none-eabi-4_6-2012q2/bin/../lib/gcc/arm-none-eabi/4.6.2/armv7-m/libgcc.a(_aeabi_uldivmod.o)
 .bss           0x00000000        0x0 /home/avnishks/gcc-arm-none-eabi-4_6-2012q2/bin/../lib/gcc/arm-none-eabi/4.6.2/armv7-m/libgcc.a(_aeabi_uldivmod.o)
 .data          0x00000000        0x0 /home/avnishks/gcc-arm-none-eabi-4_6-2012q2/bin/../lib/gcc/arm-none-eabi/4.6.2/armv7-m/libgcc.a(bpabi.o)
 .bss           0x00000000        0x0 /home/avnishks/gcc-arm-none-eabi-4_6-2012q2/bin/../lib/gcc/arm-none-eabi/4.6.2/armv7-m/libgcc.a(bpabi.o)
 .ARM.extab     0x00000000        0x0 /home/avnishks/gcc-arm-none-eabi-4_6-2012q2/bin/../lib/gcc/arm-none-eabi/4.6.2/armv7-m/libgcc.a(bpabi.o)
 .data          0x00000000        0x0 /home/avnishks/gcc-arm-none-eabi-4_6-2012q2/bin/../lib/gcc/arm-none-eabi/4.6.2/armv7-m/libgcc.a(unwind-arm.o)
 .bss           0x00000000        0x0 /home/avnishks/gcc-arm-none-eabi-4_6-2012q2/bin/../lib/gcc/arm-none-eabi/4.6.2/armv7-m/libgcc.a(unwind-arm.o)
 .data          0x00000000        0x0 /home/avnishks/gcc-arm-none-eabi-4_6-2012q2/bin/../lib/gcc/arm-none-eabi/4.6.2/armv7-m/libgcc.a(libunwind.o)
 .bss           0x00000000        0x0 /home/avnishks/gcc-arm-none-eabi-4_6-2012q2/bin/../lib/gcc/arm-none-eabi/4.6.2/armv7-m/libgcc.a(libunwind.o)
 .data          0x00000000        0x0 /home/avnishks/gcc-arm-none-eabi-4_6-2012q2/bin/../lib/gcc/arm-none-eabi/4.6.2/armv7-m/libgcc.a(pr-support.o)
 .bss           0x00000000        0x0 /home/avnishks/gcc-arm-none-eabi-4_6-2012q2/bin/../lib/gcc/arm-none-eabi/4.6.2/armv7-m/libgcc.a(pr-support.o)
 .data          0x00000000        0x0 /home/avnishks/gcc-arm-none-eabi-4_6-2012q2/bin/../lib/gcc/arm-none-eabi/4.6.2/armv7-m/libgcc.a(_dvmd_tls.o)
 .bss           0x00000000        0x0 /home/avnishks/gcc-arm-none-eabi-4_6-2012q2/bin/../lib/gcc/arm-none-eabi/4.6.2/armv7-m/libgcc.a(_dvmd_tls.o)
 .data          0x00000000        0x0 /home/avnishks/gcc-arm-none-eabi-4_6-2012q2/bin/../lib/gcc/arm-none-eabi/4.6.2/armv7-m/libgcc.a(_divdi3.o)
 .bss           0x00000000        0x0 /home/avnishks/gcc-arm-none-eabi-4_6-2012q2/bin/../lib/gcc/arm-none-eabi/4.6.2/armv7-m/libgcc.a(_divdi3.o)
 .ARM.extab     0x00000000        0x0 /home/avnishks/gcc-arm-none-eabi-4_6-2012q2/bin/../lib/gcc/arm-none-eabi/4.6.2/armv7-m/libgcc.a(_divdi3.o)
 .data          0x00000000        0x0 /home/avnishks/gcc-arm-none-eabi-4_6-2012q2/bin/../lib/gcc/arm-none-eabi/4.6.2/armv7-m/libgcc.a(_udivdi3.o)
 .bss           0x00000000        0x0 /home/avnishks/gcc-arm-none-eabi-4_6-2012q2/bin/../lib/gcc/arm-none-eabi/4.6.2/armv7-m/libgcc.a(_udivdi3.o)
 .ARM.extab     0x00000000        0x0 /home/avnishks/gcc-arm-none-eabi-4_6-2012q2/bin/../lib/gcc/arm-none-eabi/4.6.2/armv7-m/libgcc.a(_udivdi3.o)

Memory Configuration

Name             Origin             Length             Attributes
flash            0x08001000         0x0000f000         xr
sram             0x20000000         0x00002000         xrw
*default*        0x00000000         0xffffffff

Linker script and memory map


.text           0x08001000     0xd5e8
                0x08001000                _stext = ABSOLUTE (.)
 *(.vectors)
 .vectors       0x08001000      0x134 /media/data/coding/GSoC/AVT/px4+mavlink/Firmware/Build/px4io-v2_default.build/nuttx-export/libs/libnuttx.a(arch-up_vectors.o)
                0x08001000                _vectors
 *(.text .text.*)
 .text.stm32_boardinitialize
                0x08001134      0x11c /media/data/coding/GSoC/AVT/px4+mavlink/Firmware/Build/px4io-v2_default.build//media/data/coding/GSoC/AVT/px4+mavlink/Firmware/src/drivers/boards/px4io-v2/module.pre.o
                0x08001134                stm32_boardinitialize
 .text.hrt_call_enter
                0x08001250       0xf0 /media/data/coding/GSoC/AVT/px4+mavlink/Firmware/Build/px4io-v2_default.build//media/data/coding/GSoC/AVT/px4+mavlink/Firmware/src/drivers/stm32/module.pre.o
 .text.hrt_tim_isr
                0x08001340      0x428 /media/data/coding/GSoC/AVT/px4+mavlink/Firmware/Build/px4io-v2_default.build//media/data/coding/GSoC/AVT/px4+mavlink/Firmware/src/drivers/stm32/module.pre.o
 .text.hrt_absolute_time
                0x08001768       0x50 /media/data/coding/GSoC/AVT/px4+mavlink/Firmware/Build/px4io-v2_default.build//media/data/coding/GSoC/AVT/px4+mavlink/Firmware/src/drivers/stm32/module.pre.o
                0x08001768                hrt_absolute_time
 .text.hrt_elapsed_time
                0x080017b8       0x6c /media/data/coding/GSoC/AVT/px4+mavlink/Firmware/Build/px4io-v2_default.build//media/data/coding/GSoC/AVT/px4+mavlink/Firmware/src/drivers/stm32/module.pre.o
                0x080017b8                hrt_elapsed_time
 .text.hrt_init
                0x08001824       0xe4 /media/data/coding/GSoC/AVT/px4+mavlink/Firmware/Build/px4io-v2_default.build//media/data/coding/GSoC/AVT/px4+mavlink/Firmware/src/drivers/stm32/module.pre.o
                0x08001824                hrt_init
 .text.hrt_call_every
                0x08001908       0xa0 /media/data/coding/GSoC/AVT/px4+mavlink/Firmware/Build/px4io-v2_default.build//media/data/coding/GSoC/AVT/px4+mavlink/Firmware/src/drivers/stm32/module.pre.o
                0x08001908                hrt_call_every
 .text.up_pwm_servo_set
                0x080019a8       0x64 /media/data/coding/GSoC/AVT/px4+mavlink/Firmware/Build/px4io-v2_default.build//media/data/coding/GSoC/AVT/px4+mavlink/Firmware/src/drivers/stm32/module.pre.o
                0x080019a8                up_pwm_servo_set
 .text.up_pwm_servo_init
                0x08001a0c      0x6d4 /media/data/coding/GSoC/AVT/px4+mavlink/Firmware/Build/px4io-v2_default.build//media/data/coding/GSoC/AVT/px4+mavlink/Firmware/src/drivers/stm32/module.pre.o
                0x08001a0c                up_pwm_servo_init
 .text.up_pwm_servo_set_rate_group_update
                0x080020e0       0x44 /media/data/coding/GSoC/AVT/px4+mavlink/Firmware/Build/px4io-v2_default.build//media/data/coding/GSoC/AVT/px4+mavlink/Firmware/src/drivers/stm32/module.pre.o
                0x080020e0                up_pwm_servo_set_rate_group_update
 .text.up_pwm_servo_get_rate_group
                0x08002124       0x9c /media/data/coding/GSoC/AVT/px4+mavlink/Firmware/Build/px4io-v2_default.build//media/data/coding/GSoC/AVT/px4+mavlink/Firmware/src/drivers/stm32/module.pre.o
                0x08002124                up_pwm_servo_get_rate_group
 .text.up_pwm_servo_arm
                0x080021c0       0x68 /media/data/coding/GSoC/AVT/px4+mavlink/Firmware/Build/px4io-v2_default.build//media/data/coding/GSoC/AVT/px4+mavlink/Firmware/src/drivers/stm32/module.pre.o
                0x080021c0                up_pwm_servo_arm
 .text.adc_measure
                0x08002228       0xa8 /media/data/coding/GSoC/AVT/px4+mavlink/Firmware/Build/px4io-v2_default.build//media/data/coding/GSoC/AVT/px4+mavlink/Firmware/src/modules/px4iofirmware/module.pre.o
 .text.controls_init
                0x080022d0      0x15c /media/data/coding/GSoC/AVT/px4+mavlink/Firmware/Build/px4io-v2_default.build//media/data/coding/GSoC/AVT/px4+mavlink/Firmware/src/modules/px4iofirmware/module.pre.o
 *fill*         0x0800242c        0x4 00
 .text.controls_tick
                0x08002430      0x3d0 /media/data/coding/GSoC/AVT/px4+mavlink/Firmware/Build/px4io-v2_default.build//media/data/coding/GSoC/AVT/px4+mavlink/Firmware/src/modules/px4iofirmware/module.pre.o
 .text.dsm_guess_format
                0x08002800      0x240 /media/data/coding/GSoC/AVT/px4+mavlink/Firmware/Build/px4io-v2_default.build//media/data/coding/GSoC/AVT/px4+mavlink/Firmware/src/modules/px4iofirmware/module.pre.o
 .text.dsm_init
                0x08002a40       0x70 /media/data/coding/GSoC/AVT/px4+mavlink/Firmware/Build/px4io-v2_default.build//media/data/coding/GSoC/AVT/px4+mavlink/Firmware/src/modules/px4iofirmware/module.pre.o
 .text.dsm_bind
                0x08002ab0        0x4 /media/data/coding/GSoC/AVT/px4+mavlink/Firmware/Build/px4io-v2_default.build//media/data/coding/GSoC/AVT/px4+mavlink/Firmware/src/modules/px4iofirmware/module.pre.o
 .text.dsm_input
                0x08002ab4      0x634 /media/data/coding/GSoC/AVT/px4+mavlink/Firmware/Build/px4io-v2_default.build//media/data/coding/GSoC/AVT/px4+mavlink/Firmware/src/modules/px4iofirmware/module.pre.o
 .text.isr_debug
                0x080030e8       0x5c /media/data/coding/GSoC/AVT/px4+mavlink/Firmware/Build/px4io-v2_default.build//media/data/coding/GSoC/AVT/px4+mavlink/Firmware/src/modules/px4iofirmware/module.pre.o
 .text.user_start
                0x08003144      0x228 /media/data/coding/GSoC/AVT/px4+mavlink/Firmware/Build/px4io-v2_default.build//media/data/coding/GSoC/AVT/px4+mavlink/Firmware/src/modules/px4iofirmware/module.pre.o
                0x08003144                user_start
 .text.pwm_configure_rates
                0x0800336c      0x2fc /media/data/coding/GSoC/AVT/px4+mavlink/Firmware/Build/px4io-v2_default.build//media/data/coding/GSoC/AVT/px4+mavlink/Firmware/src/modules/px4iofirmware/module.pre.o
 .text.registers_set
                0x08003668      0x6e0 /media/data/coding/GSoC/AVT/px4+mavlink/Firmware/Build/px4io-v2_default.build//media/data/coding/GSoC/AVT/px4+mavlink/Firmware/src/modules/px4iofirmware/module.pre.o
 .text.registers_get
                0x08003d48      0x2c0 /media/data/coding/GSoC/AVT/px4+mavlink/Firmware/Build/px4io-v2_default.build//media/data/coding/GSoC/AVT/px4+mavlink/Firmware/src/modules/px4iofirmware/module.pre.o
 .text.heartbeat_blink
                0x08004008       0x20 /media/data/coding/GSoC/AVT/px4+mavlink/Firmware/Build/px4io-v2_default.build//media/data/coding/GSoC/AVT/px4+mavlink/Firmware/src/modules/px4iofirmware/module.pre.o
 .text.safety_check_button
                0x08004028      0x104 /media/data/coding/GSoC/AVT/px4+mavlink/Firmware/Build/px4io-v2_default.build//media/data/coding/GSoC/AVT/px4+mavlink/Firmware/src/modules/px4iofirmware/module.pre.o
 .text.failsafe_blink
                0x0800412c       0x3c /media/data/coding/GSoC/AVT/px4+mavlink/Firmware/Build/px4io-v2_default.build//media/data/coding/GSoC/AVT/px4+mavlink/Firmware/src/modules/px4iofirmware/module.pre.o
 .text.safety_init
                0x08004168       0x90 /media/data/coding/GSoC/AVT/px4+mavlink/Firmware/Build/px4io-v2_default.build//media/data/coding/GSoC/AVT/px4+mavlink/Firmware/src/modules/px4iofirmware/module.pre.o
 .text.sbus_init
                0x080041f8       0x80 /media/data/coding/GSoC/AVT/px4+mavlink/Firmware/Build/px4io-v2_default.build//media/data/coding/GSoC/AVT/px4+mavlink/Firmware/src/modules/px4iofirmware/module.pre.o
 .text.sbus_input
                0x08004278      0x21c /media/data/coding/GSoC/AVT/px4+mavlink/Firmware/Build/px4io-v2_default.build//media/data/coding/GSoC/AVT/px4+mavlink/Firmware/src/modules/px4iofirmware/module.pre.o
 .text.up_cxxinitialize
                0x08004494       0x94 /media/data/coding/GSoC/AVT/px4+mavlink/Firmware/Build/px4io-v2_default.build//media/data/coding/GSoC/AVT/px4+mavlink/Firmware/src/modules/px4iofirmware/module.pre.o
                0x08004494                up_cxxinitialize
 .text.perf_alloc
                0x08004528       0x50 /media/data/coding/GSoC/AVT/px4+mavlink/Firmware/Build/px4io-v2_default.build//media/data/coding/GSoC/AVT/px4+mavlink/Firmware/src/modules/px4iofirmware/module.pre.o
                0x08004528                perf_alloc
 .text.perf_count
                0x08004578       0xa8 /media/data/coding/GSoC/AVT/px4+mavlink/Firmware/Build/px4io-v2_default.build//media/data/coding/GSoC/AVT/px4+mavlink/Firmware/src/modules/px4iofirmware/module.pre.o
                0x08004578                perf_count
 .text.perf_begin
                0x08004620       0x1c /media/data/coding/GSoC/AVT/px4+mavlink/Firmware/Build/px4io-v2_default.build//media/data/coding/GSoC/AVT/px4+mavlink/Firmware/src/modules/px4iofirmware/module.pre.o
                0x08004620                perf_begin
 .text.perf_end
                0x0800463c       0x84 /media/data/coding/GSoC/AVT/px4+mavlink/Firmware/Build/px4io-v2_default.build//media/data/coding/GSoC/AVT/px4+mavlink/Firmware/src/modules/px4iofirmware/module.pre.o
                0x0800463c                perf_end
 .text._ZL14mixer_callbackjhhRf
                0x080046c0       0x74 /media/data/coding/GSoC/AVT/px4+mavlink/Firmware/Build/px4io-v2_default.build//media/data/coding/GSoC/AVT/px4+mavlink/Firmware/src/modules/px4iofirmware/module.pre.o
 *fill*         0x08004734        0x4 00
 .text.mixer_tick
                0x08004738      0x6a8 /media/data/coding/GSoC/AVT/px4+mavlink/Firmware/Build/px4io-v2_default.build//media/data/coding/GSoC/AVT/px4+mavlink/Firmware/src/modules/px4iofirmware/module.pre.o
 .text.mixer_handle_text
                0x08004de0      0x2b0 /media/data/coding/GSoC/AVT/px4+mavlink/Firmware/Build/px4io-v2_default.build//media/data/coding/GSoC/AVT/px4+mavlink/Firmware/src/modules/px4iofirmware/module.pre.o
 .text.startup._GLOBAL__sub_I_mixer_tick
                0x08005090       0x34 /media/data/coding/GSoC/AVT/px4+mavlink/Firmware/Build/px4io-v2_default.build//media/data/coding/GSoC/AVT/px4+mavlink/Firmware/src/modules/px4iofirmware/module.pre.o
 .text._ZN5MixerD2Ev
                0x080050c4        0xc /media/data/coding/GSoC/AVT/px4+mavlink/Firmware/Build/px4io-v2_default.build//media/data/coding/GSoC/AVT/px4+mavlink/Firmware/src/modules/px4iofirmware/module.pre.o
                0x080050c4                Mixer::~Mixer()
                0x080050c4                Mixer::~Mixer()
 .text._ZN9NullMixerD2Ev
                0x080050d0        0xc /media/data/coding/GSoC/AVT/px4+mavlink/Firmware/Build/px4io-v2_default.build//media/data/coding/GSoC/AVT/px4+mavlink/Firmware/src/modules/px4iofirmware/module.pre.o
                0x080050d0                NullMixer::~NullMixer()
                0x080050d0                NullMixer::~NullMixer()
 .text._ZN9NullMixer3mixEPfj
                0x080050dc       0x10 /media/data/coding/GSoC/AVT/px4+mavlink/Firmware/Build/px4io-v2_default.build//media/data/coding/GSoC/AVT/px4+mavlink/Firmware/src/modules/px4iofirmware/module.pre.o
                0x080050dc                NullMixer::mix(float*, unsigned int)
 .text._ZN9NullMixer15groups_requiredERj
                0x080050ec        0x4 /media/data/coding/GSoC/AVT/px4+mavlink/Firmware/Build/px4io-v2_default.build//media/data/coding/GSoC/AVT/px4+mavlink/Firmware/src/modules/px4iofirmware/module.pre.o
                0x080050ec                NullMixer::groups_required(unsigned int&)
 .text._ZN9NullMixerD0Ev
                0x080050f0       0x14 /media/data/coding/GSoC/AVT/px4+mavlink/Firmware/Build/px4io-v2_default.build//media/data/coding/GSoC/AVT/px4+mavlink/Firmware/src/modules/px4iofirmware/module.pre.o
                0x080050f0                NullMixer::~NullMixer()
 .text._ZN5MixerD0Ev
                0x08005104       0x14 /media/data/coding/GSoC/AVT/px4+mavlink/Firmware/Build/px4io-v2_default.build//media/data/coding/GSoC/AVT/px4+mavlink/Firmware/src/modules/px4iofirmware/module.pre.o
                0x08005104                Mixer::~Mixer()
 .text._ZN5MixerC2EPFijhhRfEj
                0x08005118       0x14 /media/data/coding/GSoC/AVT/px4+mavlink/Firmware/Build/px4io-v2_default.build//media/data/coding/GSoC/AVT/px4+mavlink/Firmware/src/modules/px4iofirmware/module.pre.o
                0x08005118                Mixer::Mixer(int (*)(unsigned int, unsigned char, unsigned char, float&), unsigned int)
                0x08005118                Mixer::Mixer(int (*)(unsigned int, unsigned char, unsigned char, float&), unsigned int)
 .text._ZN5Mixer11get_controlEhh
                0x0800512c       0x14 /media/data/coding/GSoC/AVT/px4+mavlink/Firmware/Build/px4io-v2_default.build//media/data/coding/GSoC/AVT/px4+mavlink/Firmware/src/modules/px4iofirmware/module.pre.o
                0x0800512c                Mixer::get_control(unsigned char, unsigned char)
 .text._ZN5Mixer5scaleERK14mixer_scaler_sf
                0x08005140       0x44 /media/data/coding/GSoC/AVT/px4+mavlink/Firmware/Build/px4io-v2_default.build//media/data/coding/GSoC/AVT/px4+mavlink/Firmware/src/modules/px4iofirmware/module.pre.o
                0x08005140                Mixer::scale(mixer_scaler_s const&, float)
 .text._ZN9NullMixer9from_textEPKcRj
                0x08005184       0x3c /media/data/coding/GSoC/AVT/px4+mavlink/Firmware/Build/px4io-v2_default.build//media/data/coding/GSoC/AVT/px4+mavlink/Firmware/src/modules/px4iofirmware/module.pre.o
                0x08005184                NullMixer::from_text(char const*, unsigned int&)
 .text._ZN10MixerGroupD2Ev
                0x080051c0       0x30 /media/data/coding/GSoC/AVT/px4+mavlink/Firmware/Build/px4io-v2_default.build//media/data/coding/GSoC/AVT/px4+mavlink/Firmware/src/modules/px4iofirmware/module.pre.o
                0x080051c0                MixerGroup::~MixerGroup()
                0x080051c0                MixerGroup::~MixerGroup()
 .text._ZN10MixerGroup3mixEPfj
                0x080051f0       0x34 /media/data/coding/GSoC/AVT/px4+mavlink/Firmware/Build/px4io-v2_default.build//media/data/coding/GSoC/AVT/px4+mavlink/Firmware/src/modules/px4iofirmware/module.pre.o
                0x080051f0                MixerGroup::mix(float*, unsigned int)
 .text._ZN10MixerGroup15groups_requiredERj
                0x08005224       0x1c /media/data/coding/GSoC/AVT/px4+mavlink/Firmware/Build/px4io-v2_default.build//media/data/coding/GSoC/AVT/px4+mavlink/Firmware/src/modules/px4iofirmware/module.pre.o
                0x08005224                MixerGroup::groups_required(unsigned int&)
 .text._ZN10MixerGroupD0Ev
                0x08005240       0x34 /media/data/coding/GSoC/AVT/px4+mavlink/Firmware/Build/px4io-v2_default.build//media/data/coding/GSoC/AVT/px4+mavlink/Firmware/src/modules/px4iofirmware/module.pre.o
                0x08005240                MixerGroup::~MixerGroup()
 .text._ZN10MixerGroupC2EPFijhhRfEj
                0x08005274       0x18 /media/data/coding/GSoC/AVT/px4+mavlink/Firmware/Build/px4io-v2_default.build//media/data/coding/GSoC/AVT/px4+mavlink/Firmware/src/modules/px4iofirmware/module.pre.o
                0x08005274                MixerGroup::MixerGroup(int (*)(unsigned int, unsigned char, unsigned char, float&), unsigned int)
                0x08005274                MixerGroup::MixerGroup(int (*)(unsigned int, unsigned char, unsigned char, float&), unsigned int)
 .text._ZN10MixerGroup5resetEv
                0x0800528c       0x1c /media/data/coding/GSoC/AVT/px4+mavlink/Firmware/Build/px4io-v2_default.build//media/data/coding/GSoC/AVT/px4+mavlink/Firmware/src/modules/px4iofirmware/module.pre.o
                0x0800528c                MixerGroup::reset()
 .text._ZN10MixerGroup13load_from_bufEPKcRj
                0x080052a8       0x8c /media/data/coding/GSoC/AVT/px4+mavlink/Firmware/Build/px4io-v2_default.build//media/data/coding/GSoC/AVT/px4+mavlink/Firmware/src/modules/px4iofirmware/module.pre.o
                0x080052a8                MixerGroup::load_from_buf(char const*, unsigned int&)
 .text._ZN15MultirotorMixerD2Ev
                0x08005334        0xc /media/data/coding/GSoC/AVT/px4+mavlink/Firmware/Build/px4io-v2_default.build//media/data/coding/GSoC/AVT/px4+mavlink/Firmware/src/modules/px4iofirmware/module.pre.o
                0x08005334                MultirotorMixer::~MultirotorMixer()
                0x08005334                MultirotorMixer::~MultirotorMixer()
 .text._ZN15MultirotorMixer15groups_requiredERj
                0x08005340        0xc /media/data/coding/GSoC/AVT/px4+mavlink/Firmware/Build/px4io-v2_default.build//media/data/coding/GSoC/AVT/px4+mavlink/Firmware/src/modules/px4iofirmware/module.pre.o
                0x08005340                MultirotorMixer::groups_required(unsigned int&)
 .text._ZN15MultirotorMixer3mixEPfj
                0x0800534c      0x190 /media/data/coding/GSoC/AVT/px4+mavlink/Firmware/Build/px4io-v2_default.build//media/data/coding/GSoC/AVT/px4+mavlink/Firmware/src/modules/px4iofirmware/module.pre.o
                0x0800534c                MultirotorMixer::mix(float*, unsigned int)
 .text._ZN15MultirotorMixerD0Ev
                0x080054dc       0x14 /media/data/coding/GSoC/AVT/px4+mavlink/Firmware/Build/px4io-v2_default.build//media/data/coding/GSoC/AVT/px4+mavlink/Firmware/src/modules/px4iofirmware/module.pre.o
                0x080054dc                MultirotorMixer::~MultirotorMixer()
 .text._ZN15MultirotorMixer9from_textEPFijhhRfEjPKcRj
                0x080054f0      0x184 /media/data/coding/GSoC/AVT/px4+mavlink/Firmware/Build/px4io-v2_default.build//media/data/coding/GSoC/AVT/px4+mavlink/Firmware/src/modules/px4iofirmware/module.pre.o
                0x080054f0                MultirotorMixer::from_text(int (*)(unsigned int, unsigned char, unsigned char, float&), unsigned int, char const*, unsigned int&)
 .text._ZN11SimpleMixer15groups_requiredERj
                0x08005674       0x2c /media/data/coding/GSoC/AVT/px4+mavlink/Firmware/Build/px4io-v2_default.build//media/data/coding/GSoC/AVT/px4+mavlink/Firmware/src/modules/px4iofirmware/module.pre.o
                0x08005674                SimpleMixer::groups_required(unsigned int&)
 .text._ZN11SimpleMixerD2Ev
                0x080056a0       0x20 /media/data/coding/GSoC/AVT/px4+mavlink/Firmware/Build/px4io-v2_default.build//media/data/coding/GSoC/AVT/px4+mavlink/Firmware/src/modules/px4iofirmware/module.pre.o
                0x080056a0                SimpleMixer::~SimpleMixer()
                0x080056a0                SimpleMixer::~SimpleMixer()
 .text._ZN11SimpleMixer3mixEPfj
                0x080056c0       0x70 /media/data/coding/GSoC/AVT/px4+mavlink/Firmware/Build/px4io-v2_default.build//media/data/coding/GSoC/AVT/px4+mavlink/Firmware/src/modules/px4iofirmware/module.pre.o
                0x080056c0                SimpleMixer::mix(float*, unsigned int)
 .text._ZN11SimpleMixerD0Ev
                0x08005730       0x28 /media/data/coding/GSoC/AVT/px4+mavlink/Firmware/Build/px4io-v2_default.build//media/data/coding/GSoC/AVT/px4+mavlink/Firmware/src/modules/px4iofirmware/module.pre.o
                0x08005730                SimpleMixer::~SimpleMixer()
 .text._ZN11SimpleMixer19parse_output_scalerEPKcRjR14mixer_scaler_s
                0x08005758      0x150 /media/data/coding/GSoC/AVT/px4+mavlink/Firmware/Build/px4io-v2_default.build//media/data/coding/GSoC/AVT/px4+mavlink/Firmware/src/modules/px4iofirmware/module.pre.o
                0x08005758                SimpleMixer::parse_output_scaler(char const*, unsigned int&, mixer_scaler_s&)
 .text._ZN11SimpleMixer20parse_control_scalerEPKcRjR14mixer_scaler_sRhS5_
                0x080058a8      0x184 /media/data/coding/GSoC/AVT/px4+mavlink/Firmware/Build/px4io-v2_default.build//media/data/coding/GSoC/AVT/px4+mavlink/Firmware/src/modules/px4iofirmware/module.pre.o
                0x080058a8                SimpleMixer::parse_control_scaler(char const*, unsigned int&, mixer_scaler_s&, unsigned char&, unsigned char&)
 .text._ZN11SimpleMixer9from_textEPFijhhRfEjPKcRj
                0x08005a2c       0xb8 /media/data/coding/GSoC/AVT/px4+mavlink/Firmware/Build/px4io-v2_default.build//media/data/coding/GSoC/AVT/px4+mavlink/Firmware/src/modules/px4iofirmware/module.pre.o
                0x08005a2c                SimpleMixer::from_text(int (*)(unsigned int, unsigned char, unsigned char, float&), unsigned int, char const*, unsigned int&)
 .text.rx_dma_callback
                0x08005ae4      0x258 /media/data/coding/GSoC/AVT/px4+mavlink/Firmware/Build/px4io-v2_default.build//media/data/coding/GSoC/AVT/px4+mavlink/Firmware/src/modules/px4iofirmware/module.pre.o
 .text.serial_interrupt
                0x08005d3c      0x14c /media/data/coding/GSoC/AVT/px4+mavlink/Firmware/Build/px4io-v2_default.build//media/data/coding/GSoC/AVT/px4+mavlink/Firmware/src/modules/px4iofirmware/module.pre.o
 .text.interface_init
                0x08005e88      0x1f0 /media/data/coding/GSoC/AVT/px4+mavlink/Firmware/Build/px4io-v2_default.build//media/data/coding/GSoC/AVT/px4+mavlink/Firmware/src/modules/px4iofirmware/module.pre.o
 .text.interface_tick
                0x08006078       0x88 /media/data/coding/GSoC/AVT/px4+mavlink/Firmware/Build/px4io-v2_default.build//media/data/coding/GSoC/AVT/px4+mavlink/Firmware/src/modules/px4iofirmware/module.pre.o
 .text.irq_attach
                0x08006100       0x38 /media/data/coding/GSoC/AVT/px4+mavlink/Firmware/Build/px4io-v2_default.build/nuttx-export/libs/libnuttx.a(sched-irq_attach.o)
                0x08006100                irq_attach
 .text.irq_initialize
                0x08006138       0x20 /media/data/coding/GSoC/AVT/px4+mavlink/Firmware/Build/px4io-v2_default.build/nuttx-export/libs/libnuttx.a(sched-irq_initialize.o)
                0x08006138                irq_initialize
 .text.irq_unexpected_isr
                0x08006158       0x18 /media/data/coding/GSoC/AVT/px4+mavlink/Firmware/Build/px4io-v2_default.build/nuttx-export/libs/libnuttx.a(sched-irq_unexpectedisr.o)
                0x08006158                irq_unexpected_isr
 .text.abort    0x08006170        0x8 /media/data/coding/GSoC/AVT/px4+mavlink/Firmware/Build/px4io-v2_default.build/nuttx-export/libs/libnuttx.a(c-lib_abort.o)
                0x08006170                abort
 .text.cfsetspeed
                0x08006178        0x8 /media/data/coding/GSoC/AVT/px4+mavlink/Firmware/Build/px4io-v2_default.build/nuttx-export/libs/libnuttx.a(c-lib_cfsetspeed.o)
                0x08006178                cfsetspeed
 .text.lowsyslog
                0x08006180       0x28 /media/data/coding/GSoC/AVT/px4+mavlink/Firmware/Build/px4io-v2_default.build/nuttx-export/libs/libnuttx.a(c-lib_lowsyslog.o)
                0x08006180                lowsyslog
 .text.memchr   0x080061a8       0x4c /media/data/coding/GSoC/AVT/px4+mavlink/Firmware/Build/px4io-v2_default.build/nuttx-export/libs/libnuttx.a(c-lib_memchr.o)
                0x080061a8                memchr
 .text.memcpy   0x080061f4       0xdc /media/data/coding/GSoC/AVT/px4+mavlink/Firmware/Build/px4io-v2_default.build/nuttx-export/libs/libnuttx.a(c-lib_memcpy.o)
                0x080061f4                memcpy
 .text.memset   0x080062d0       0xec /media/data/coding/GSoC/AVT/px4+mavlink/Firmware/Build/px4io-v2_default.build/nuttx-export/libs/libnuttx.a(c-lib_memset.o)
                0x080062d0                memset
 .text.findwidth
                0x080063bc       0x40 /media/data/coding/GSoC/AVT/px4+mavlink/Firmware/Build/px4io-v2_default.build/nuttx-export/libs/libnuttx.a(c-lib_sscanf.o)
 .text.vsscanf  0x080063fc      0x314 /media/data/coding/GSoC/AVT/px4+mavlink/Firmware/Build/px4io-v2_default.build/nuttx-export/libs/libnuttx.a(c-lib_sscanf.o)
                0x080063fc                vsscanf
 .text.sscanf   0x08006710       0x20 /media/data/coding/GSoC/AVT/px4+mavlink/Firmware/Build/px4io-v2_default.build/nuttx-export/libs/libnuttx.a(c-lib_sscanf.o)
                0x08006710                sscanf
 .text.strchr   0x08006730       0x24 /media/data/coding/GSoC/AVT/px4+mavlink/Firmware/Build/px4io-v2_default.build/nuttx-export/libs/libnuttx.a(c-lib_strchr.o)
                0x08006730                strchr
 .text.strcmp   0x08006754       0x1c /media/data/coding/GSoC/AVT/px4+mavlink/Firmware/Build/px4io-v2_default.build/nuttx-export/libs/libnuttx.a(c-lib_strcmp.o)
                0x08006754                strcmp
 .text.strcspn  0x08006770       0x2c /media/data/coding/GSoC/AVT/px4+mavlink/Firmware/Build/px4io-v2_default.build/nuttx-export/libs/libnuttx.a(c-lib_strcspn.o)
                0x08006770                strcspn
 .text.strncpy  0x0800679c       0x48 /media/data/coding/GSoC/AVT/px4+mavlink/Firmware/Build/px4io-v2_default.build/nuttx-export/libs/libnuttx.a(c-lib_strncpy.o)
                0x0800679c                strncpy
 .text.strtol   0x080067e4       0x44 /media/data/coding/GSoC/AVT/px4+mavlink/Firmware/Build/px4io-v2_default.build/nuttx-export/libs/libnuttx.a(c-lib_strtol.o)
                0x080067e4                strtol
 .text.strtoul  0x08006828       0x4c /media/data/coding/GSoC/AVT/px4+mavlink/Firmware/Build/px4io-v2_default.build/nuttx-export/libs/libnuttx.a(c-lib_strtoul.o)
                0x08006828                strtoul
 .text.tcgetattr
                0x08006874        0xc /media/data/coding/GSoC/AVT/px4+mavlink/Firmware/Build/px4io-v2_default.build/nuttx-export/libs/libnuttx.a(c-lib_tcgetattr.o)
                0x08006874                tcgetattr
 .text.tcsetattr
                0x08006880       0x10 /media/data/coding/GSoC/AVT/px4+mavlink/Firmware/Build/px4io-v2_default.build/nuttx-export/libs/libnuttx.a(c-lib_tcsetattr.o)
                0x08006880                tcsetattr
 .text.vsnprintf
                0x08006890       0x24 /media/data/coding/GSoC/AVT/px4+mavlink/Firmware/Build/px4io-v2_default.build/nuttx-export/libs/libnuttx.a(c-lib_vsnprintf.o)
                0x08006890                vsnprintf
 .text.sq_addafter
                0x080068b4       0x1c /media/data/coding/GSoC/AVT/px4+mavlink/Firmware/Build/px4io-v2_default.build/nuttx-export/libs/libnuttx.a(c-sq_addafter.o)
                0x080068b4                sq_addafter
 .text.sq_addfirst
                0x080068d0       0x14 /media/data/coding/GSoC/AVT/px4+mavlink/Firmware/Build/px4io-v2_default.build/nuttx-export/libs/libnuttx.a(c-sq_addfirst.o)
                0x080068d0                sq_addfirst
 .text.sq_addlast
                0x080068e4       0x18 /media/data/coding/GSoC/AVT/px4+mavlink/Firmware/Build/px4io-v2_default.build/nuttx-export/libs/libnuttx.a(c-sq_addlast.o)
                0x080068e4                sq_addlast
 .text.sq_rem   0x080068fc       0x3c /media/data/coding/GSoC/AVT/px4+mavlink/Firmware/Build/px4io-v2_default.build/nuttx-export/libs/libnuttx.a(c-sq_rem.o)
                0x080068fc                sq_rem
 .text.calloc   0x08006938       0x10 /media/data/coding/GSoC/AVT/px4+mavlink/Firmware/Build/px4io-v2_default.build/nuttx-export/libs/libnuttx.a(mm-mm_calloc.o)
                0x08006938                calloc
 .text.free     0x08006948       0xc0 /media/data/coding/GSoC/AVT/px4+mavlink/Firmware/Build/px4io-v2_default.build/nuttx-export/libs/libnuttx.a(mm-mm_free.o)
                0x08006948                free
 .text.mallinfo
                0x08006a08       0x70 /media/data/coding/GSoC/AVT/px4+mavlink/Firmware/Build/px4io-v2_default.build/nuttx-export/libs/libnuttx.a(mm-mm_mallinfo.o)
                0x08006a08                mallinfo
 .text.malloc   0x08006a78       0xa8 /media/data/coding/GSoC/AVT/px4+mavlink/Firmware/Build/px4io-v2_default.build/nuttx-export/libs/libnuttx.a(mm-mm_malloc.o)
                0x08006a78                malloc
 .text.mm_seminitialize
                0x08006b20       0x18 /media/data/coding/GSoC/AVT/px4+mavlink/Firmware/Build/px4io-v2_default.build/nuttx-export/libs/libnuttx.a(mm-mm_sem.o)
                0x08006b20                mm_seminitialize
 .text.mm_trysemaphore
                0x08006b38       0x34 /media/data/coding/GSoC/AVT/px4+mavlink/Firmware/Build/px4io-v2_default.build/nuttx-export/libs/libnuttx.a(mm-mm_sem.o)
                0x08006b38                mm_trysemaphore
 .text.mm_takesemaphore
                0x08006b6c       0x44 /media/data/coding/GSoC/AVT/px4+mavlink/Firmware/Build/px4io-v2_default.build/nuttx-export/libs/libnuttx.a(mm-mm_sem.o)
                0x08006b6c                mm_takesemaphore
 .text.mm_givesemaphore
                0x08006bb0       0x2c /media/data/coding/GSoC/AVT/px4+mavlink/Firmware/Build/px4io-v2_default.build/nuttx-export/libs/libnuttx.a(mm-mm_sem.o)
                0x08006bb0                mm_givesemaphore
 .text.mm_size2ndx
                0x08006bdc       0x20 /media/data/coding/GSoC/AVT/px4+mavlink/Firmware/Build/px4io-v2_default.build/nuttx-export/libs/libnuttx.a(mm-mm_size2ndx.o)
                0x08006bdc                mm_size2ndx
 .text.umm_initialize
                0x08006bfc       0x14 /media/data/coding/GSoC/AVT/px4+mavlink/Firmware/Build/px4io-v2_default.build/nuttx-export/libs/libnuttx.a(mm-mm_user.o)
                0x08006bfc                umm_initialize
 .text.umm_trysemaphore
                0x08006c10        0xc /media/data/coding/GSoC/AVT/px4+mavlink/Firmware/Build/px4io-v2_default.build/nuttx-export/libs/libnuttx.a(mm-mm_user.o)
                0x08006c10                umm_trysemaphore
 .text.umm_givesemaphore
                0x08006c1c        0xc /media/data/coding/GSoC/AVT/px4+mavlink/Firmware/Build/px4io-v2_default.build/nuttx-export/libs/libnuttx.a(mm-mm_user.o)
                0x08006c1c                umm_givesemaphore
 .text.zalloc   0x08006c28       0x18 /media/data/coding/GSoC/AVT/px4+mavlink/Firmware/Build/px4io-v2_default.build/nuttx-export/libs/libnuttx.a(mm-mm_zalloc.o)
                0x08006c28                zalloc
 .text.stm32_dmainterrupt
                0x08006c40       0x54 /media/data/coding/GSoC/AVT/px4+mavlink/Firmware/Build/px4io-v2_default.build/nuttx-export/libs/libnuttx.a(arch-stm32_dma.o)
 .text.up_dmainitialize
                0x08006c94      0x20c /media/data/coding/GSoC/AVT/px4+mavlink/Firmware/Build/px4io-v2_default.build/nuttx-export/libs/libnuttx.a(arch-stm32_dma.o)
                0x08006c94                up_dmainitialize
 .text.stm32_dmachannel
                0x08006ea0       0x34 /media/data/coding/GSoC/AVT/px4+mavlink/Firmware/Build/px4io-v2_default.build/nuttx-export/libs/libnuttx.a(arch-stm32_dma.o)
                0x08006ea0                stm32_dmachannel
 .text.stm32_dmafree
                0x08006ed4        0x8 /media/data/coding/GSoC/AVT/px4+mavlink/Firmware/Build/px4io-v2_default.build/nuttx-export/libs/libnuttx.a(arch-stm32_dma.o)
                0x08006ed4                stm32_dmafree
 .text.stm32_dmasetup
                0x08006edc       0x30 /media/data/coding/GSoC/AVT/px4+mavlink/Firmware/Build/px4io-v2_default.build/nuttx-export/libs/libnuttx.a(arch-stm32_dma.o)
                0x08006edc                stm32_dmasetup
 .text.stm32_dmastart
                0x08006f0c       0x30 /media/data/coding/GSoC/AVT/px4+mavlink/Firmware/Build/px4io-v2_default.build/nuttx-export/libs/libnuttx.a(arch-stm32_dma.o)
                0x08006f0c                stm32_dmastart
 .text.stm32_dmastop
                0x08006f3c       0x24 /media/data/coding/GSoC/AVT/px4+mavlink/Firmware/Build/px4io-v2_default.build/nuttx-export/libs/libnuttx.a(arch-stm32_dma.o)
                0x08006f3c                stm32_dmastop
 .text.stm32_dmaresidual
                0x08006f60        0x8 /media/data/coding/GSoC/AVT/px4+mavlink/Firmware/Build/px4io-v2_default.build/nuttx-export/libs/libnuttx.a(arch-stm32_dma.o)
                0x08006f60                stm32_dmaresidual
 .text.stm32_gpioinit
                0x08006f68        0xc /media/data/coding/GSoC/AVT/px4+mavlink/Firmware/Build/px4io-v2_default.build/nuttx-export/libs/libnuttx.a(arch-stm32_gpio.o)
                0x08006f68                stm32_gpioinit
 .text.stm32_configgpio
                0x08006f74       0xf0 /media/data/coding/GSoC/AVT/px4+mavlink/Firmware/Build/px4io-v2_default.build/nuttx-export/libs/libnuttx.a(arch-stm32_gpio.o)
                0x08006f74                stm32_configgpio
 .text.stm32_gpiowrite
                0x08007064       0x28 /media/data/coding/GSoC/AVT/px4+mavlink/Firmware/Build/px4io-v2_default.build/nuttx-export/libs/libnuttx.a(arch-stm32_gpio.o)
                0x08007064                stm32_gpiowrite
 .text.stm32_gpioread
                0x0800708c       0x2c /media/data/coding/GSoC/AVT/px4+mavlink/Firmware/Build/px4io-v2_default.build/nuttx-export/libs/libnuttx.a(arch-stm32_gpio.o)
                0x0800708c                stm32_gpioread
 .text.up_irqinitialize
                0x080070b8       0xb8 /media/data/coding/GSoC/AVT/px4+mavlink/Firmware/Build/px4io-v2_default.build/nuttx-export/libs/libnuttx.a(arch-stm32_irq.o)
                0x080070b8                up_irqinitialize
 .text.up_disable_irq
                0x08007170       0x84 /media/data/coding/GSoC/AVT/px4+mavlink/Firmware/Build/px4io-v2_default.build/nuttx-export/libs/libnuttx.a(arch-stm32_irq.o)
                0x08007170                up_disable_irq
 .text.up_enable_irq
                0x080071f4       0x80 /media/data/coding/GSoC/AVT/px4+mavlink/Firmware/Build/px4io-v2_default.build/nuttx-export/libs/libnuttx.a(arch-stm32_irq.o)
                0x080071f4                up_enable_irq
 .text.up_maskack_irq
                0x08007274        0x4 /media/data/coding/GSoC/AVT/px4+mavlink/Firmware/Build/px4io-v2_default.build/nuttx-export/libs/libnuttx.a(arch-stm32_irq.o)
                0x08007274                up_maskack_irq
 .text.up_prioritize_irq
                0x08007278       0x44 /media/data/coding/GSoC/AVT/px4+mavlink/Firmware/Build/px4io-v2_default.build/nuttx-export/libs/libnuttx.a(arch-stm32_irq.o)
                0x08007278                up_prioritize_irq
 .text.up_set_format
                0x080072bc       0x60 /media/data/coding/GSoC/AVT/px4+mavlink/Firmware/Build/px4io-v2_default.build/nuttx-export/libs/libnuttx.a(arch-stm32_serial.o)
 .text.up_receive
                0x0800731c       0x18 /media/data/coding/GSoC/AVT/px4+mavlink/Firmware/Build/px4io-v2_default.build/nuttx-export/libs/libnuttx.a(arch-stm32_serial.o)
 .text.up_rxavailable
                0x08007334        0xc /media/data/coding/GSoC/AVT/px4+mavlink/Firmware/Build/px4io-v2_default.build/nuttx-export/libs/libnuttx.a(arch-stm32_serial.o)
 .text.up_dma_rxint
                0x08007340        0x8 /media/data/coding/GSoC/AVT/px4+mavlink/Firmware/Build/px4io-v2_default.build/nuttx-export/libs/libnuttx.a(arch-stm32_serial.o)
 .text.up_send  0x08007348        0x8 /media/data/coding/GSoC/AVT/px4+mavlink/Firmware/Build/px4io-v2_default.build/nuttx-export/libs/libnuttx.a(arch-stm32_serial.o)
 .text.up_txready
                0x08007350        0xc /media/data/coding/GSoC/AVT/px4+mavlink/Firmware/Build/px4io-v2_default.build/nuttx-export/libs/libnuttx.a(arch-stm32_serial.o)
 .text.up_setup
                0x0800735c       0x6c /media/data/coding/GSoC/AVT/px4+mavlink/Firmware/Build/px4io-v2_default.build/nuttx-export/libs/libnuttx.a(arch-stm32_serial.o)
 .text.up_dma_rxavailable
                0x080073c8       0x18 /media/data/coding/GSoC/AVT/px4+mavlink/Firmware/Build/px4io-v2_default.build/nuttx-export/libs/libnuttx.a(arch-stm32_serial.o)
 .text.up_dma_receive
                0x080073e0       0x2c /media/data/coding/GSoC/AVT/px4+mavlink/Firmware/Build/px4io-v2_default.build/nuttx-export/libs/libnuttx.a(arch-stm32_serial.o)
 .text.up_ioctl
                0x0800740c       0xa8 /media/data/coding/GSoC/AVT/px4+mavlink/Firmware/Build/px4io-v2_default.build/nuttx-export/libs/libnuttx.a(arch-stm32_serial.o)
 .text.up_detach
                0x080074b4       0x1c /media/data/coding/GSoC/AVT/px4+mavlink/Firmware/Build/px4io-v2_default.build/nuttx-export/libs/libnuttx.a(arch-stm32_serial.o)
 .text.up_attach
                0x080074d0       0x20 /media/data/coding/GSoC/AVT/px4+mavlink/Firmware/Build/px4io-v2_default.build/nuttx-export/libs/libnuttx.a(arch-stm32_serial.o)
 .text.up_dma_setup
                0x080074f0       0x50 /media/data/coding/GSoC/AVT/px4+mavlink/Firmware/Build/px4io-v2_default.build/nuttx-export/libs/libnuttx.a(arch-stm32_serial.o)
 .text.up_interrupt_common
                0x08007540       0xe4 /media/data/coding/GSoC/AVT/px4+mavlink/Firmware/Build/px4io-v2_default.build/nuttx-export/libs/libnuttx.a(arch-stm32_serial.o)
 .text.up_interrupt_usart3
                0x08007624        0xc /media/data/coding/GSoC/AVT/px4+mavlink/Firmware/Build/px4io-v2_default.build/nuttx-export/libs/libnuttx.a(arch-stm32_serial.o)
 .text.up_interrupt_usart2
                0x08007630        0xc /media/data/coding/GSoC/AVT/px4+mavlink/Firmware/Build/px4io-v2_default.build/nuttx-export/libs/libnuttx.a(arch-stm32_serial.o)
 .text.up_interrupt_usart1
                0x0800763c        0xc /media/data/coding/GSoC/AVT/px4+mavlink/Firmware/Build/px4io-v2_default.build/nuttx-export/libs/libnuttx.a(arch-stm32_serial.o)
 .text.up_dma_rxcallback
                0x08007648       0x28 /media/data/coding/GSoC/AVT/px4+mavlink/Firmware/Build/px4io-v2_default.build/nuttx-export/libs/libnuttx.a(arch-stm32_serial.o)
 .text.up_dma_shutdown
                0x08007670       0x3c /media/data/coding/GSoC/AVT/px4+mavlink/Firmware/Build/px4io-v2_default.build/nuttx-export/libs/libnuttx.a(arch-stm32_serial.o)
 .text.up_rxint
                0x080076ac       0x4c /media/data/coding/GSoC/AVT/px4+mavlink/Firmware/Build/px4io-v2_default.build/nuttx-export/libs/libnuttx.a(arch-stm32_serial.o)
 .text.up_shutdown
                0x080076f8       0x2c /media/data/coding/GSoC/AVT/px4+mavlink/Firmware/Build/px4io-v2_default.build/nuttx-export/libs/libnuttx.a(arch-stm32_serial.o)
 .text.up_txint
                0x08007724       0x84 /media/data/coding/GSoC/AVT/px4+mavlink/Firmware/Build/px4io-v2_default.build/nuttx-export/libs/libnuttx.a(arch-stm32_serial.o)
 .text.up_earlyserialinit
                0x080077a8       0x6c /media/data/coding/GSoC/AVT/px4+mavlink/Firmware/Build/px4io-v2_default.build/nuttx-export/libs/libnuttx.a(arch-stm32_serial.o)
                0x080077a8                up_earlyserialinit
 .text.up_serialinit
                0x08007814       0x94 /media/data/coding/GSoC/AVT/px4+mavlink/Firmware/Build/px4io-v2_default.build/nuttx-export/libs/libnuttx.a(arch-stm32_serial.o)
                0x08007814                up_serialinit
 .text.stm32_serial_dma_poll
                0x080078a8       0x70 /media/data/coding/GSoC/AVT/px4+mavlink/Firmware/Build/px4io-v2_default.build/nuttx-export/libs/libnuttx.a(arch-stm32_serial.o)
                0x080078a8                stm32_serial_dma_poll
 .text.up_putc  0x08007918       0x70 /media/data/coding/GSoC/AVT/px4+mavlink/Firmware/Build/px4io-v2_default.build/nuttx-export/libs/libnuttx.a(arch-stm32_serial.o)
                0x08007918                up_putc
 .text.__start  0x08007988       0xb4 /media/data/coding/GSoC/AVT/px4+mavlink/Firmware/Build/px4io-v2_default.build/nuttx-export/libs/libnuttx.a(arch-stm32_start.o)
                0x08007988                __start
 .text.up_assert
                0x08007a3c      0x208 /media/data/coding/GSoC/AVT/px4+mavlink/Firmware/Build/px4io-v2_default.build/nuttx-export/libs/libnuttx.a(arch-up_assert.o)
                0x08007a3c                up_assert
 .text.up_hardfault
                0x08007c44       0x40 /media/data/coding/GSoC/AVT/px4+mavlink/Firmware/Build/px4io-v2_default.build/nuttx-export/libs/libnuttx.a(arch-up_hardfault.o)
                0x08007c44                up_hardfault
 .text.modifyreg32
                0x08007c84       0x20 /media/data/coding/GSoC/AVT/px4+mavlink/Firmware/Build/px4io-v2_default.build/nuttx-export/libs/libnuttx.a(arch-up_modifyreg32.o)
                0x08007c84                modifyreg32
 .text.up_svcall
                0x08007ca4       0x3c /media/data/coding/GSoC/AVT/px4+mavlink/Firmware/Build/px4io-v2_default.build/nuttx-export/libs/libnuttx.a(arch-up_svcall.o)
                0x08007ca4                up_svcall
 .text.__cxa_atexit
                0x08007ce0        0x4 /media/data/coding/GSoC/AVT/px4+mavlink/Firmware/Build/px4io-v2_default.build/nuttx-export/libs/libnuttx.a(cxx-libxx_cxa_atexit.o)
                0x08007ce0                __cxa_atexit
 .text.__cxa_pure_virtual
                0x08007ce4       0x10 /media/data/coding/GSoC/AVT/px4+mavlink/Firmware/Build/px4io-v2_default.build/nuttx-export/libs/libnuttx.a(cxx-libxx_cxapurevirtual.o)
                0x08007ce4                __cxa_pure_virtual
 .text._ZdlPv   0x08007cf4        0x4 /media/data/coding/GSoC/AVT/px4+mavlink/Firmware/Build/px4io-v2_default.build/nuttx-export/libs/libnuttx.a(cxx-libxx_delete.o)
                0x08007cf4                operator delete(void*)
 .text.__aeabi_atexit
                0x08007cf8        0xc /media/data/coding/GSoC/AVT/px4+mavlink/Firmware/Build/px4io-v2_default.build/nuttx-export/libs/libnuttx.a(cxx-libxx_eabi_atexit.o)
                0x08007cf8                __aeabi_atexit
 .text._Znwj    0x08007d04        0xc /media/data/coding/GSoC/AVT/px4+mavlink/Firmware/Build/px4io-v2_default.build/nuttx-export/libs/libnuttx.a(cxx-libxx_new.o)
                0x08007d04                operator new(unsigned int)
 .text.ioctl    0x08007d10       0x50 /media/data/coding/GSoC/AVT/px4+mavlink/Firmware/Build/px4io-v2_default.build/nuttx-export/libs/libnuttx.a(fs-fs_ioctl.o)
                0x08007d10                ioctl
 .text.open     0x08007d60       0xa4 /media/data/coding/GSoC/AVT/px4+mavlink/Firmware/Build/px4io-v2_default.build/nuttx-export/libs/libnuttx.a(fs-fs_open.o)
                0x08007d60                open
 .text.read     0x08007e04       0x5c /media/data/coding/GSoC/AVT/px4+mavlink/Firmware/Build/px4io-v2_default.build/nuttx-export/libs/libnuttx.a(fs-fs_read.o)
                0x08007e04                read
 .text.uart_xmitchars
                0x08007e60       0x7c /media/data/coding/GSoC/AVT/px4+mavlink/Firmware/Build/px4io-v2_default.build/nuttx-export/libs/libnuttx.a(drivers-serialirq.o)
                0x08007e60                uart_xmitchars
 .text.uart_recvchars
                0x08007edc       0x78 /media/data/coding/GSoC/AVT/px4+mavlink/Firmware/Build/px4io-v2_default.build/nuttx-export/libs/libnuttx.a(drivers-serialirq.o)
                0x08007edc                uart_recvchars
 .text.uart_ioctl
                0x08007f54      0x100 /media/data/coding/GSoC/AVT/px4+mavlink/Firmware/Build/px4io-v2_default.build/nuttx-export/libs/libnuttx.a(drivers-serial.o)
 .text.uart_putxmitchar
                0x08008054       0xac /media/data/coding/GSoC/AVT/px4+mavlink/Firmware/Build/px4io-v2_default.build/nuttx-export/libs/libnuttx.a(drivers-serial.o)
 .text.uart_write
                0x08008100      0x1f0 /media/data/coding/GSoC/AVT/px4+mavlink/Firmware/Build/px4io-v2_default.build/nuttx-export/libs/libnuttx.a(drivers-serial.o)
 .text.uart_close
                0x080082f0       0xb0 /media/data/coding/GSoC/AVT/px4+mavlink/Firmware/Build/px4io-v2_default.build/nuttx-export/libs/libnuttx.a(drivers-serial.o)
 .text.uart_read
                0x080083a0      0x11c /media/data/coding/GSoC/AVT/px4+mavlink/Firmware/Build/px4io-v2_default.build/nuttx-export/libs/libnuttx.a(drivers-serial.o)
 .text.uart_open
                0x080084bc       0xc4 /media/data/coding/GSoC/AVT/px4+mavlink/Firmware/Build/px4io-v2_default.build/nuttx-export/libs/libnuttx.a(drivers-serial.o)
 .text.uart_register
                0x08008580       0x58 /media/data/coding/GSoC/AVT/px4+mavlink/Firmware/Build/px4io-v2_default.build/nuttx-export/libs/libnuttx.a(drivers-serial.o)
                0x08008580                uart_register
 .text.uart_datareceived
                0x080085d8       0x14 /media/data/coding/GSoC/AVT/px4+mavlink/Firmware/Build/px4io-v2_default.build/nuttx-export/libs/libnuttx.a(drivers-serial.o)
                0x080085d8                uart_datareceived
 .text.uart_datasent
                0x080085ec       0x14 /media/data/coding/GSoC/AVT/px4+mavlink/Firmware/Build/px4io-v2_default.build/nuttx-export/libs/libnuttx.a(drivers-serial.o)
                0x080085ec                uart_datasent
 .text.get_errno_ptr
                0x08008600       0x28 /media/data/coding/GSoC/AVT/px4+mavlink/Firmware/Build/px4io-v2_default.build/nuttx-export/libs/libnuttx.a(sched-errno_getptr.o)
                0x08008600                get_errno_ptr
 .text.exit     0x08008628       0x20 /media/data/coding/GSoC/AVT/px4+mavlink/Firmware/Build/px4io-v2_default.build/nuttx-export/libs/libnuttx.a(sched-exit.o)
                0x08008628                exit
 .text.getpid   0x08008648       0x10 /media/data/coding/GSoC/AVT/px4+mavlink/Firmware/Build/px4io-v2_default.build/nuttx-export/libs/libnuttx.a(sched-getpid.o)
                0x08008648                getpid
 .text.os_start
                0x08008658      0x154 /media/data/coding/GSoC/AVT/px4+mavlink/Firmware/Build/px4io-v2_default.build/nuttx-export/libs/libnuttx.a(sched-os_start.o)
                0x08008658                os_start
 .text.sched_garbagecollection
                0x080087ac       0x30 /media/data/coding/GSoC/AVT/px4+mavlink/Firmware/Build/px4io-v2_default.build/nuttx-export/libs/libnuttx.a(sched-sched_garbage.o)
                0x080087ac                sched_garbagecollection
 .text.sched_getfiles
                0x080087dc       0x10 /media/data/coding/GSoC/AVT/px4+mavlink/Firmware/Build/px4io-v2_default.build/nuttx-export/libs/libnuttx.a(sched-sched_getfiles.o)
                0x080087dc                sched_getfiles
 .text.sem_post
                0x080087ec       0x60 /media/data/coding/GSoC/AVT/px4+mavlink/Firmware/Build/px4io-v2_default.build/nuttx-export/libs/libnuttx.a(sched-sem_post.o)
                0x080087ec                sem_post
 .text.sem_trywait
                0x0800884c       0x54 /media/data/coding/GSoC/AVT/px4+mavlink/Firmware/Build/px4io-v2_default.build/nuttx-export/libs/libnuttx.a(sched-sem_trywait.o)
                0x0800884c                sem_trywait
 .text.sem_wait
                0x080088a0       0x9c /media/data/coding/GSoC/AVT/px4+mavlink/Firmware/Build/px4io-v2_default.build/nuttx-export/libs/libnuttx.a(sched-sem_wait.o)
                0x080088a0                sem_wait
 .text.task_exithook
                0x0800893c       0x20 /media/data/coding/GSoC/AVT/px4+mavlink/Firmware/Build/px4io-v2_default.build/nuttx-export/libs/libnuttx.a(sched-task_exithook.o)
                0x0800893c                task_exithook
 .text.task_recover
                0x0800895c       0x28 /media/data/coding/GSoC/AVT/px4+mavlink/Firmware/Build/px4io-v2_default.build/nuttx-export/libs/libnuttx.a(sched-task_recover.o)
                0x0800895c                task_recover
 .text.wd_cancel
                0x08008984       0x74 /media/data/coding/GSoC/AVT/px4+mavlink/Firmware/Build/px4io-v2_default.build/nuttx-export/libs/libnuttx.a(sched-wd_cancel.o)
                0x08008984                wd_cancel
 .text.wd_delete
                0x080089f8       0x40 /media/data/coding/GSoC/AVT/px4+mavlink/Firmware/Build/px4io-v2_default.build/nuttx-export/libs/libnuttx.a(sched-wd_delete.o)
                0x080089f8                wd_delete
 .text.wd_initialize
                0x08008a38       0x54 /media/data/coding/GSoC/AVT/px4+mavlink/Firmware/Build/px4io-v2_default.build/nuttx-export/libs/libnuttx.a(sched-wd_initialize.o)
                0x08008a38                wd_initialize
 .text.dq_addfirst
                0x08008a8c       0x18 /media/data/coding/GSoC/AVT/px4+mavlink/Firmware/Build/px4io-v2_default.build/nuttx-export/libs/libnuttx.a(c-dq_addfirst.o)
                0x08008a8c                dq_addfirst
 .text.cfgetspeed
                0x08008aa4        0x4 /media/data/coding/GSoC/AVT/px4+mavlink/Firmware/Build/px4io-v2_default.build/nuttx-export/libs/libnuttx.a(c-lib_cfgetspeed.o)
                0x08008aa4                cfgetspeed
 .text.lib_checkbase
                0x08008aa8       0x54 /media/data/coding/GSoC/AVT/px4+mavlink/Firmware/Build/px4io-v2_default.build/nuttx-export/libs/libnuttx.a(c-lib_checkbase.o)
                0x08008aa8                lib_checkbase
 .text.lib_isbasedigit
                0x08008afc       0x50 /media/data/coding/GSoC/AVT/px4+mavlink/Firmware/Build/px4io-v2_default.build/nuttx-export/libs/libnuttx.a(c-lib_isbasedigit.o)
                0x08008afc                lib_isbasedigit
 .text.prejustify
                0x08008b4c       0xc4 /media/data/coding/GSoC/AVT/px4+mavlink/Firmware/Build/px4io-v2_default.build/nuttx-export/libs/libnuttx.a(c-lib_libvsprintf.o)
 .text.llutobin
                0x08008c10      0x130 /media/data/coding/GSoC/AVT/px4+mavlink/Firmware/Build/px4io-v2_default.build/nuttx-export/libs/libnuttx.a(c-lib_libvsprintf.o)
 .text.llutooct
                0x08008d40      0x148 /media/data/coding/GSoC/AVT/px4+mavlink/Firmware/Build/px4io-v2_default.build/nuttx-export/libs/libnuttx.a(c-lib_libvsprintf.o)
 .text.utooct   0x08008e88       0xd4 /media/data/coding/GSoC/AVT/px4+mavlink/Firmware/Build/px4io-v2_default.build/nuttx-export/libs/libnuttx.a(c-lib_libvsprintf.o)
 .text.utobin   0x08008f5c       0xd4 /media/data/coding/GSoC/AVT/px4+mavlink/Firmware/Build/px4io-v2_default.build/nuttx-export/libs/libnuttx.a(c-lib_libvsprintf.o)
 .text.llutodec
                0x08009030      0x1c0 /media/data/coding/GSoC/AVT/px4+mavlink/Firmware/Build/px4io-v2_default.build/nuttx-export/libs/libnuttx.a(c-lib_libvsprintf.o)
 .text.utodec   0x080091f0      0x124 /media/data/coding/GSoC/AVT/px4+mavlink/Firmware/Build/px4io-v2_default.build/nuttx-export/libs/libnuttx.a(c-lib_libvsprintf.o)
 .text.utoascii
                0x08009314      0x2d8 /media/data/coding/GSoC/AVT/px4+mavlink/Firmware/Build/px4io-v2_default.build/nuttx-export/libs/libnuttx.a(c-lib_libvsprintf.o)
 .text.llutoascii
                0x080095ec      0x5e8 /media/data/coding/GSoC/AVT/px4+mavlink/Firmware/Build/px4io-v2_default.build/nuttx-export/libs/libnuttx.a(c-lib_libvsprintf.o)
 .text.lib_vsprintf
                0x08009bd4      0x43c /media/data/coding/GSoC/AVT/px4+mavlink/Firmware/Build/px4io-v2_default.build/nuttx-export/libs/libnuttx.a(c-lib_libvsprintf.o)
                0x08009bd4                lib_vsprintf
 .text.lowoutstream_putc
                0x0800a010       0x18 /media/data/coding/GSoC/AVT/px4+mavlink/Firmware/Build/px4io-v2_default.build/nuttx-export/libs/libnuttx.a(c-lib_lowoutstream.o)
 .text.lib_lowoutstream
                0x0800a028       0x10 /media/data/coding/GSoC/AVT/px4+mavlink/Firmware/Build/px4io-v2_default.build/nuttx-export/libs/libnuttx.a(c-lib_lowoutstream.o)
                0x0800a028                lib_lowoutstream
 .text.memoutstream_putc
                0x0800a038       0x1c /media/data/coding/GSoC/AVT/px4+mavlink/Firmware/Build/px4io-v2_default.build/nuttx-export/libs/libnuttx.a(c-lib_memoutstream.o)
 .text.lib_memoutstream
                0x0800a054       0x1c /media/data/coding/GSoC/AVT/px4+mavlink/Firmware/Build/px4io-v2_default.build/nuttx-export/libs/libnuttx.a(c-lib_memoutstream.o)
                0x0800a054                lib_memoutstream
 .text.nulloutstream_putc
                0x0800a070        0x8 /media/data/coding/GSoC/AVT/px4+mavlink/Firmware/Build/px4io-v2_default.build/nuttx-export/libs/libnuttx.a(c-lib_nulloutstream.o)
 .text.lib_nulloutstream
                0x0800a078       0x10 /media/data/coding/GSoC/AVT/px4+mavlink/Firmware/Build/px4io-v2_default.build/nuttx-export/libs/libnuttx.a(c-lib_nulloutstream.o)
                0x0800a078                lib_nulloutstream
 .text.lib_skipspace
                0x0800a088       0x24 /media/data/coding/GSoC/AVT/px4+mavlink/Firmware/Build/px4io-v2_default.build/nuttx-export/libs/libnuttx.a(c-lib_skipspace.o)
                0x0800a088                lib_skipspace
 .text.strlen   0x0800a0ac       0x1c /media/data/coding/GSoC/AVT/px4+mavlink/Firmware/Build/px4io-v2_default.build/nuttx-export/libs/libnuttx.a(c-lib_strlen.o)
                0x0800a0ac                strlen
 .text.sem_init
                0x0800a0c8       0x20 /media/data/coding/GSoC/AVT/px4+mavlink/Firmware/Build/px4io-v2_default.build/nuttx-export/libs/libnuttx.a(c-sem_init.o)
                0x0800a0c8                sem_init
 .text.sq_remafter
                0x0800a0e8       0x24 /media/data/coding/GSoC/AVT/px4+mavlink/Firmware/Build/px4io-v2_default.build/nuttx-export/libs/libnuttx.a(c-sq_remafter.o)
                0x0800a0e8                sq_remafter
 .text.sq_remfirst
                0x0800a10c       0x18 /media/data/coding/GSoC/AVT/px4+mavlink/Firmware/Build/px4io-v2_default.build/nuttx-export/libs/libnuttx.a(c-sq_remfirst.o)
                0x0800a10c                sq_remfirst
 .text.mm_addfreechunk
                0x0800a124       0x58 /media/data/coding/GSoC/AVT/px4+mavlink/Firmware/Build/px4io-v2_default.build/nuttx-export/libs/libnuttx.a(mm-mm_addfreechunk.o)
                0x0800a124                mm_addfreechunk
 .text.mm_initialize
                0x0800a17c       0xf0 /media/data/coding/GSoC/AVT/px4+mavlink/Firmware/Build/px4io-v2_default.build/nuttx-export/libs/libnuttx.a(mm-mm_initialize.o)
                0x0800a17c                mm_initialize
 .text.up_allocate_heap
                0x0800a26c       0x18 /media/data/coding/GSoC/AVT/px4+mavlink/Firmware/Build/px4io-v2_default.build/nuttx-export/libs/libnuttx.a(arch-stm32_allocateheap.o)
                0x0800a26c                up_allocate_heap
 .text.up_idle  0x0800a284        0x4 /media/data/coding/GSoC/AVT/px4+mavlink/Firmware/Build/px4io-v2_default.build/nuttx-export/libs/libnuttx.a(arch-stm32_idle.o)
                0x0800a284                up_idle
 .text.up_lowputc
                0x0800a288       0x1c /media/data/coding/GSoC/AVT/px4+mavlink/Firmware/Build/px4io-v2_default.build/nuttx-export/libs/libnuttx.a(arch-stm32_lowputc.o)
                0x0800a288                up_lowputc
 .text.stm32_lowsetup
                0x0800a2a4       0x78 /media/data/coding/GSoC/AVT/px4+mavlink/Firmware/Build/px4io-v2_default.build/nuttx-export/libs/libnuttx.a(arch-stm32_lowputc.o)
                0x0800a2a4                stm32_lowsetup
 .text.stm32_clockconfig
                0x0800a31c      0x148 /media/data/coding/GSoC/AVT/px4+mavlink/Firmware/Build/px4io-v2_default.build/nuttx-export/libs/libnuttx.a(arch-stm32_rcc.o)
                0x0800a31c                stm32_clockconfig
 .text.up_block_task
                0x0800a464       0x7c /media/data/coding/GSoC/AVT/px4+mavlink/Firmware/Build/px4io-v2_default.build/nuttx-export/libs/libnuttx.a(arch-up_blocktask.o)
                0x0800a464                up_block_task
 .text.up_copystate
                0x0800a4e0       0x30 /media/data/coding/GSoC/AVT/px4+mavlink/Firmware/Build/px4io-v2_default.build/nuttx-export/libs/libnuttx.a(arch-up_copystate.o)
                0x0800a4e0                up_copystate
 .text          0x0800a510       0x5e /media/data/coding/GSoC/AVT/px4+mavlink/Firmware/Build/px4io-v2_default.build/nuttx-export/libs/libnuttx.a(arch-up_exception.o)
                0x0800a510                exception_common
 *fill*         0x0800a56e        0x2 00
 .text._exit    0x0800a570       0x1c /media/data/coding/GSoC/AVT/px4+mavlink/Firmware/Build/px4io-v2_default.build/nuttx-export/libs/libnuttx.a(arch-up_exit.o)
                0x0800a570                _exit
 .text          0x0800a58c        0xa /media/data/coding/GSoC/AVT/px4+mavlink/Firmware/Build/px4io-v2_default.build/nuttx-export/libs/libnuttx.a(arch-up_fullcontextrestore.o)
                0x0800a58c                up_fullcontextrestore
 *fill*         0x0800a596        0x2 00
 .text.up_initialize
                0x0800a598       0x28 /media/data/coding/GSoC/AVT/px4+mavlink/Firmware/Build/px4io-v2_default.build/nuttx-export/libs/libnuttx.a(arch-up_initialize.o)
                0x0800a598                up_initialize
 .text.up_initial_state
                0x0800a5c0       0x2c /media/data/coding/GSoC/AVT/px4+mavlink/Firmware/Build/px4io-v2_default.build/nuttx-export/libs/libnuttx.a(arch-up_initialstate.o)
                0x0800a5c0                up_initial_state
 .text.up_interrupt_context
                0x0800a5ec       0x14 /media/data/coding/GSoC/AVT/px4+mavlink/Firmware/Build/px4io-v2_default.build/nuttx-export/libs/libnuttx.a(arch-up_interruptcontext.o)
                0x0800a5ec                up_interrupt_context
 .text.up_mdelay
                0x0800a600       0x34 /media/data/coding/GSoC/AVT/px4+mavlink/Firmware/Build/px4io-v2_default.build/nuttx-export/libs/libnuttx.a(arch-up_mdelay.o)
                0x0800a600                up_mdelay
 .text          0x0800a634        0xc /media/data/coding/GSoC/AVT/px4+mavlink/Firmware/Build/px4io-v2_default.build/nuttx-export/libs/libnuttx.a(arch-up_switchcontext.o)
                0x0800a634                up_switchcontext
 .text.up_unblock_task
                0x0800a640       0x5c /media/data/coding/GSoC/AVT/px4+mavlink/Firmware/Build/px4io-v2_default.build/nuttx-export/libs/libnuttx.a(arch-up_unblocktask.o)
                0x0800a640                up_unblock_task
 .text.files_initialize
                0x0800a69c        0x4 /media/data/coding/GSoC/AVT/px4+mavlink/Firmware/Build/px4io-v2_default.build/nuttx-export/libs/libnuttx.a(fs-fs_files.o)
                0x0800a69c                files_initialize
 .text.files_initlist
                0x0800a6a0        0x8 /media/data/coding/GSoC/AVT/px4+mavlink/Firmware/Build/px4io-v2_default.build/nuttx-export/libs/libnuttx.a(fs-fs_files.o)
                0x0800a6a0                files_initlist
 .text.files_releaselist
                0x0800a6a8      0x10c /media/data/coding/GSoC/AVT/px4+mavlink/Firmware/Build/px4io-v2_default.build/nuttx-export/libs/libnuttx.a(fs-fs_files.o)
                0x0800a6a8                files_releaselist
 .text.files_dup
                0x0800a7b4       0xe0 /media/data/coding/GSoC/AVT/px4+mavlink/Firmware/Build/px4io-v2_default.build/nuttx-export/libs/libnuttx.a(fs-fs_files.o)
                0x0800a7b4                files_dup
 .text.files_allocate
                0x0800a894       0x9c /media/data/coding/GSoC/AVT/px4+mavlink/Firmware/Build/px4io-v2_default.build/nuttx-export/libs/libnuttx.a(fs-fs_files.o)
                0x0800a894                files_allocate
 .text.files_close
                0x0800a930       0x84 /media/data/coding/GSoC/AVT/px4+mavlink/Firmware/Build/px4io-v2_default.build/nuttx-export/libs/libnuttx.a(fs-fs_files.o)
                0x0800a930                files_close
 .text.files_release
                0x0800a9b4       0x48 /media/data/coding/GSoC/AVT/px4+mavlink/Firmware/Build/px4io-v2_default.build/nuttx-export/libs/libnuttx.a(fs-fs_files.o)
                0x0800a9b4                files_release
 .text.inode_addref
                0x0800a9fc       0x1c /media/data/coding/GSoC/AVT/px4+mavlink/Firmware/Build/px4io-v2_default.build/nuttx-export/libs/libnuttx.a(fs-fs_inodeaddref.o)
                0x0800a9fc                inode_addref
 .text.inode_find
                0x0800aa18       0x38 /media/data/coding/GSoC/AVT/px4+mavlink/Firmware/Build/px4io-v2_default.build/nuttx-export/libs/libnuttx.a(fs-fs_inodefind.o)
                0x0800aa18                inode_find
 .text.fs_initialize
                0x0800aa50       0x20 /media/data/coding/GSoC/AVT/px4+mavlink/Firmware/Build/px4io-v2_default.build/nuttx-export/libs/libnuttx.a(fs-fs_inode.o)
                0x0800aa50                fs_initialize
 .text.inode_semtake
                0x0800aa70       0x2c /media/data/coding/GSoC/AVT/px4+mavlink/Firmware/Build/px4io-v2_default.build/nuttx-export/libs/libnuttx.a(fs-fs_inode.o)
                0x0800aa70                inode_semtake
 .text.inode_semgive
                0x0800aa9c        0xc /media/data/coding/GSoC/AVT/px4+mavlink/Firmware/Build/px4io-v2_default.build/nuttx-export/libs/libnuttx.a(fs-fs_inode.o)
                0x0800aa9c                inode_semgive
 .text.inode_search
                0x0800aaa8       0xf4 /media/data/coding/GSoC/AVT/px4+mavlink/Firmware/Build/px4io-v2_default.build/nuttx-export/libs/libnuttx.a(fs-fs_inode.o)
                0x0800aaa8                inode_search
 .text.inode_free
                0x0800ab9c      0x5d0 /media/data/coding/GSoC/AVT/px4+mavlink/Firmware/Build/px4io-v2_default.build/nuttx-export/libs/libnuttx.a(fs-fs_inode.o)
                0x0800ab9c                inode_free
 .text.inode_nextname
                0x0800b16c       0x20 /media/data/coding/GSoC/AVT/px4+mavlink/Firmware/Build/px4io-v2_default.build/nuttx-export/libs/libnuttx.a(fs-fs_inode.o)
                0x0800b16c                inode_nextname
 .text.inode_release
                0x0800b18c       0x40 /media/data/coding/GSoC/AVT/px4+mavlink/Firmware/Build/px4io-v2_default.build/nuttx-export/libs/libnuttx.a(fs-fs_inoderelease.o)
                0x0800b18c                inode_release
 .text.register_driver
                0x0800b1cc       0x38 /media/data/coding/GSoC/AVT/px4+mavlink/Firmware/Build/px4io-v2_default.build/nuttx-export/libs/libnuttx.a(fs-fs_registerdriver.o)
                0x0800b1cc                register_driver
 .text.group_allocate
                0x0800b204       0x18 /media/data/coding/GSoC/AVT/px4+mavlink/Firmware/Build/px4io-v2_default.build/nuttx-export/libs/libnuttx.a(sched-group_create.o)
                0x0800b204                group_allocate
 .text.group_initialize
                0x0800b21c        0xc /media/data/coding/GSoC/AVT/px4+mavlink/Firmware/Build/px4io-v2_default.build/nuttx-export/libs/libnuttx.a(sched-group_create.o)
                0x0800b21c                group_initialize
 .text.group_leave
                0x0800b228       0x28 /media/data/coding/GSoC/AVT/px4+mavlink/Firmware/Build/px4io-v2_default.build/nuttx-export/libs/libnuttx.a(sched-group_leave.o)
                0x0800b228                group_leave
 .text.group_setupidlefiles
                0x0800b250       0x40 /media/data/coding/GSoC/AVT/px4+mavlink/Firmware/Build/px4io-v2_default.build/nuttx-export/libs/libnuttx.a(sched-group_setupidlefiles.o)
                0x0800b250                group_setupidlefiles
 .text.os_bringup
                0x0800b290       0x34 /media/data/coding/GSoC/AVT/px4+mavlink/Firmware/Build/px4io-v2_default.build/nuttx-export/libs/libnuttx.a(sched-os_bringup.o)
                0x0800b290                os_bringup
 .text.sched_addblocked
                0x0800b2c4       0x40 /media/data/coding/GSoC/AVT/px4+mavlink/Firmware/Build/px4io-v2_default.build/nuttx-export/libs/libnuttx.a(sched-sched_addblocked.o)
                0x0800b2c4                sched_addblocked
 .text.sched_addprioritized
                0x0800b304       0x60 /media/data/coding/GSoC/AVT/px4+mavlink/Firmware/Build/px4io-v2_default.build/nuttx-export/libs/libnuttx.a(sched-sched_addprioritized.o)
                0x0800b304                sched_addprioritized
 .text.sched_addreadytorun
                0x0800b364       0x60 /media/data/coding/GSoC/AVT/px4+mavlink/Firmware/Build/px4io-v2_default.build/nuttx-export/libs/libnuttx.a(sched-sched_addreadytorun.o)
                0x0800b364                sched_addreadytorun
 .text.sched_ufree
                0x0800b3c4       0x3c /media/data/coding/GSoC/AVT/px4+mavlink/Firmware/Build/px4io-v2_default.build/nuttx-export/libs/libnuttx.a(sched-sched_free.o)
                0x0800b3c4                sched_ufree
 .text.sched_mergepending
                0x0800b400       0x84 /media/data/coding/GSoC/AVT/px4+mavlink/Firmware/Build/px4io-v2_default.build/nuttx-export/libs/libnuttx.a(sched-sched_mergepending.o)
                0x0800b400                sched_mergepending
 .text.sched_removeblocked
                0x0800b484       0x30 /media/data/coding/GSoC/AVT/px4+mavlink/Firmware/Build/px4io-v2_default.build/nuttx-export/libs/libnuttx.a(sched-sched_removeblocked.o)
                0x0800b484                sched_removeblocked
 .text.sched_removereadytorun
                0x0800b4b4       0x44 /media/data/coding/GSoC/AVT/px4+mavlink/Firmware/Build/px4io-v2_default.build/nuttx-export/libs/libnuttx.a(sched-sched_removereadytorun.o)
                0x0800b4b4                sched_removereadytorun
 .text.sem_destroy
                0x0800b4f8       0x28 /media/data/coding/GSoC/AVT/px4+mavlink/Firmware/Build/px4io-v2_default.build/nuttx-export/libs/libnuttx.a(sched-sem_destroy.o)
                0x0800b4f8                sem_destroy
 .text.thread_create
                0x0800b520       0xa8 /media/data/coding/GSoC/AVT/px4+mavlink/Firmware/Build/px4io-v2_default.build/nuttx-export/libs/libnuttx.a(sched-task_create.o)
 .text.task_create
                0x0800b5c8       0x20 /media/data/coding/GSoC/AVT/px4+mavlink/Firmware/Build/px4io-v2_default.build/nuttx-export/libs/libnuttx.a(sched-task_create.o)
                0x0800b5c8                task_create
 .text.task_exit
                0x0800b5e8       0x4c /media/data/coding/GSoC/AVT/px4+mavlink/Firmware/Build/px4io-v2_default.build/nuttx-export/libs/libnuttx.a(sched-task_exit.o)
                0x0800b5e8                task_exit
 .text.task_schedsetup
                0x0800b634      0x11c /media/data/coding/GSoC/AVT/px4+mavlink/Firmware/Build/px4io-v2_default.build/nuttx-export/libs/libnuttx.a(sched-task_setup.o)
                0x0800b634                task_schedsetup
 .text.task_argsetup
                0x0800b750       0x9c /media/data/coding/GSoC/AVT/px4+mavlink/Firmware/Build/px4io-v2_default.build/nuttx-export/libs/libnuttx.a(sched-task_setup.o)
                0x0800b750                task_argsetup
 .text.task_start
                0x0800b7ec       0x40 /media/data/coding/GSoC/AVT/px4+mavlink/Firmware/Build/px4io-v2_default.build/nuttx-export/libs/libnuttx.a(sched-task_start.o)
                0x0800b7ec                task_start
 .text.task_terminate
                0x0800b82c       0x78 /media/data/coding/GSoC/AVT/px4+mavlink/Firmware/Build/px4io-v2_default.build/nuttx-export/libs/libnuttx.a(sched-task_terminate.o)
                0x0800b82c                task_terminate
 .text.dq_addlast
                0x0800b8a4       0x1c /media/data/coding/GSoC/AVT/px4+mavlink/Firmware/Build/px4io-v2_default.build/nuttx-export/libs/libnuttx.a(c-dq_addlast.o)
                0x0800b8a4                dq_addlast
 .text.dq_rem   0x0800b8c0       0x24 /media/data/coding/GSoC/AVT/px4+mavlink/Firmware/Build/px4io-v2_default.build/nuttx-export/libs/libnuttx.a(c-dq_rem.o)
                0x0800b8c0                dq_rem
 .text.strdup   0x0800b8e4       0x1c /media/data/coding/GSoC/AVT/px4+mavlink/Firmware/Build/px4io-v2_default.build/nuttx-export/libs/libnuttx.a(c-lib_strdup.o)
                0x0800b8e4                strdup
 .text.up_timerisr
                0x0800b900        0xc /media/data/coding/GSoC/AVT/px4+mavlink/Firmware/Build/px4io-v2_default.build/nuttx-export/libs/libnuttx.a(arch-stm32_timerisr.o)
                0x0800b900                up_timerisr
 .text.up_timerinit
                0x0800b90c       0x50 /media/data/coding/GSoC/AVT/px4+mavlink/Firmware/Build/px4io-v2_default.build/nuttx-export/libs/libnuttx.a(arch-stm32_timerisr.o)
                0x0800b90c                up_timerinit
 .text.up_create_stack
                0x0800b95c       0x44 /media/data/coding/GSoC/AVT/px4+mavlink/Firmware/Build/px4io-v2_default.build/nuttx-export/libs/libnuttx.a(arch-up_createstack.o)
                0x0800b95c                up_create_stack
 .text.up_doirq
                0x0800b9a0       0x2c /media/data/coding/GSoC/AVT/px4+mavlink/Firmware/Build/px4io-v2_default.build/nuttx-export/libs/libnuttx.a(arch-up_doirq.o)
                0x0800b9a0                up_doirq
 .text.up_release_stack
                0x0800b9cc       0x18 /media/data/coding/GSoC/AVT/px4+mavlink/Firmware/Build/px4io-v2_default.build/nuttx-export/libs/libnuttx.a(arch-up_releasestack.o)
                0x0800b9cc                up_release_stack
 .text.close    0x0800b9e4       0x24 /media/data/coding/GSoC/AVT/px4+mavlink/Firmware/Build/px4io-v2_default.build/nuttx-export/libs/libnuttx.a(fs-fs_close.o)
                0x0800b9e4                close
 .text.dup2     0x0800ba08       0x50 /media/data/coding/GSoC/AVT/px4+mavlink/Firmware/Build/px4io-v2_default.build/nuttx-export/libs/libnuttx.a(fs-fs_filedup2.o)
                0x0800ba08                dup2
 .text.inode_reserve
                0x0800ba58      0x15c /media/data/coding/GSoC/AVT/px4+mavlink/Firmware/Build/px4io-v2_default.build/nuttx-export/libs/libnuttx.a(fs-fs_inodereserve.o)
                0x0800ba58                inode_reserve
 .text.group_setuptaskfiles
                0x0800bbb4       0x10 /media/data/coding/GSoC/AVT/px4+mavlink/Firmware/Build/px4io-v2_default.build/nuttx-export/libs/libnuttx.a(sched-group_setuptaskfiles.o)
                0x0800bbb4                group_setuptaskfiles
 .text.irq_dispatch
                0x0800bbc4       0x28 /media/data/coding/GSoC/AVT/px4+mavlink/Firmware/Build/px4io-v2_default.build/nuttx-export/libs/libnuttx.a(sched-irq_dispatch.o)
                0x0800bbc4                irq_dispatch
 .text.sched_gettcb
                0x0800bbec       0x28 /media/data/coding/GSoC/AVT/px4+mavlink/Firmware/Build/px4io-v2_default.build/nuttx-export/libs/libnuttx.a(sched-sched_gettcb.o)
                0x0800bbec                sched_gettcb
 .text.sched_lock
                0x0800bc14       0x30 /media/data/coding/GSoC/AVT/px4+mavlink/Firmware/Build/px4io-v2_default.build/nuttx-export/libs/libnuttx.a(sched-sched_lock.o)
                0x0800bc14                sched_lock
 .text.sched_process_timer
                0x0800bc44       0x1c /media/data/coding/GSoC/AVT/px4+mavlink/Firmware/Build/px4io-v2_default.build/nuttx-export/libs/libnuttx.a(sched-sched_processtimer.o)
                0x0800bc44                sched_process_timer
 .text.sched_releasetcb
                0x0800bc60       0x68 /media/data/coding/GSoC/AVT/px4+mavlink/Firmware/Build/px4io-v2_default.build/nuttx-export/libs/libnuttx.a(sched-sched_releasetcb.o)
                0x0800bc60                sched_releasetcb
 .text.sched_unlock
                0x0800bcc8       0x50 /media/data/coding/GSoC/AVT/px4+mavlink/Firmware/Build/px4io-v2_default.build/nuttx-export/libs/libnuttx.a(sched-sched_unlock.o)
                0x0800bcc8                sched_unlock
 .text.task_activate
                0x0800bd18       0x18 /media/data/coding/GSoC/AVT/px4+mavlink/Firmware/Build/px4io-v2_default.build/nuttx-export/libs/libnuttx.a(sched-task_activate.o)
                0x0800bd18                task_activate
 .text.strcpy   0x0800bd30       0x10 /media/data/coding/GSoC/AVT/px4+mavlink/Firmware/Build/px4io-v2_default.build/nuttx-export/libs/libnuttx.a(c-lib_strcpy.o)
                0x0800bd30                strcpy
 .text.up_release_pending
                0x0800bd40       0x3c /media/data/coding/GSoC/AVT/px4+mavlink/Firmware/Build/px4io-v2_default.build/nuttx-export/libs/libnuttx.a(arch-up_releasepending.o)
                0x0800bd40                up_release_pending
 .text          0x0800bd7c      0x21c /home/avnishks/gcc-arm-none-eabi-4_6-2012q2/bin/../lib/gcc/arm-none-eabi/4.6.2/armv7-m/libgcc.a(_arm_addsubsf3.o)
                0x0800bd7c                __aeabi_frsub
                0x0800bd84                __subsf3
                0x0800bd84                __aeabi_fsub
                0x0800bd88                __aeabi_fadd
                0x0800bd88                __addsf3
                0x0800bee8                __aeabi_ui2f
                0x0800bee8                __floatunsisf
                0x0800bef0                __aeabi_i2f
                0x0800bef0                __floatsisf
                0x0800bf0c                __floatundisf
                0x0800bf0c                __aeabi_ul2f
                0x0800bf1c                __floatdisf
                0x0800bf1c                __aeabi_l2f
 .text          0x0800bf98      0x2a0 /home/avnishks/gcc-arm-none-eabi-4_6-2012q2/bin/../lib/gcc/arm-none-eabi/4.6.2/armv7-m/libgcc.a(_arm_muldivsf3.o)
                0x0800bf98                __mulsf3
                0x0800bf98                __aeabi_fmul
                0x0800c100                __divsf3
                0x0800c100                __aeabi_fdiv
 .text          0x0800c238       0xec /home/avnishks/gcc-arm-none-eabi-4_6-2012q2/bin/../lib/gcc/arm-none-eabi/4.6.2/armv7-m/libgcc.a(_arm_cmpsf2.o)
                0x0800c238                __gtsf2
                0x0800c238                __gesf2
                0x0800c240                __lesf2
                0x0800c240                __ltsf2
                0x0800c248                __nesf2
                0x0800c248                __eqsf2
                0x0800c248                __cmpsf2
                0x0800c2a8                __aeabi_cfrcmple
                0x0800c2b0                __aeabi_cfcmple
                0x0800c2b0                __aeabi_cfcmpeq
                0x0800c2c0                __aeabi_fcmpeq
                0x0800c2d4                __aeabi_fcmplt
                0x0800c2e8                __aeabi_fcmple
                0x0800c2fc                __aeabi_fcmpge
                0x0800c310                __aeabi_fcmpgt
 .text          0x0800c324       0x4c /home/avnishks/gcc-arm-none-eabi-4_6-2012q2/bin/../lib/gcc/arm-none-eabi/4.6.2/armv7-m/libgcc.a(_arm_fixsfsi.o)
                0x0800c324                __fixsfsi
                0x0800c324                __aeabi_f2iz
 .text          0x0800c370       0x40 /home/avnishks/gcc-arm-none-eabi-4_6-2012q2/bin/../lib/gcc/arm-none-eabi/4.6.2/armv7-m/libgcc.a(_arm_fixunssfsi.o)
                0x0800c370                __aeabi_f2uiz
                0x0800c370                __fixunssfsi
 .text          0x0800c3b0       0x2c /home/avnishks/gcc-arm-none-eabi-4_6-2012q2/bin/../lib/gcc/arm-none-eabi/4.6.2/armv7-m/libgcc.a(_aeabi_uldivmod.o)
                0x0800c3b0                __aeabi_uldivmod
 .text          0x0800c3dc       0x5c /home/avnishks/gcc-arm-none-eabi-4_6-2012q2/bin/../lib/gcc/arm-none-eabi/4.6.2/armv7-m/libgcc.a(bpabi.o)
                0x0800c3dc                __gnu_ldivmod_helper
                0x0800c40c                __gnu_uldivmod_helper
 .text          0x0800c438      0xb4c /home/avnishks/gcc-arm-none-eabi-4_6-2012q2/bin/../lib/gcc/arm-none-eabi/4.6.2/armv7-m/libgcc.a(unwind-arm.o)
                0x0800c6e0                _Unwind_VRS_Get
                0x0800c720                _Unwind_VRS_Set
                0x0800ca78                __aeabi_unwind_cpp_pr2
                0x0800ca7c                __aeabi_unwind_cpp_pr1
                0x0800ca80                __aeabi_unwind_cpp_pr0
                0x0800ca84                _Unwind_VRS_Pop
                0x0800ce38                _Unwind_GetCFA
                0x0800ce3c                __gnu_Unwind_RaiseException
                0x0800ce9c                __gnu_Unwind_ForcedUnwind
                0x0800ceb0                __gnu_Unwind_Resume
                0x0800ceec                __gnu_Unwind_Resume_or_Rethrow
                0x0800cefc                _Unwind_Complete
                0x0800cf00                _Unwind_DeleteException
                0x0800cf10                __gnu_Unwind_Backtrace
 .text          0x0800cf84      0x1ac /home/avnishks/gcc-arm-none-eabi-4_6-2012q2/bin/../lib/gcc/arm-none-eabi/4.6.2/armv7-m/libgcc.a(libunwind.o)
                0x0800cf84                __restore_core_regs
                0x0800cf84                restore_core_regs
                0x0800cf9c                __gnu_Unwind_Restore_VFP
                0x0800cfa4                __gnu_Unwind_Save_VFP
                0x0800cfac                __gnu_Unwind_Restore_VFP_D
                0x0800cfb4                __gnu_Unwind_Save_VFP_D
                0x0800cfbc                __gnu_Unwind_Restore_VFP_D_16_to_31
                0x0800cfc4                __gnu_Unwind_Save_VFP_D_16_to_31
                0x0800cfcc                __gnu_Unwind_Restore_WMMXD
                0x0800d010                __gnu_Unwind_Save_WMMXD
                0x0800d054                __gnu_Unwind_Restore_WMMXC
                0x0800d068                __gnu_Unwind_Save_WMMXC
                0x0800d07c                ___Unwind_RaiseException
                0x0800d07c                _Unwind_RaiseException
                0x0800d0a0                ___Unwind_Resume
                0x0800d0a0                _Unwind_Resume
                0x0800d0c4                _Unwind_Resume_or_Rethrow
                0x0800d0c4                ___Unwind_Resume_or_Rethrow
                0x0800d0e8                ___Unwind_ForcedUnwind
                0x0800d0e8                _Unwind_ForcedUnwind
                0x0800d10c                _Unwind_Backtrace
                0x0800d10c                ___Unwind_Backtrace
 .text          0x0800d130      0x378 /home/avnishks/gcc-arm-none-eabi-4_6-2012q2/bin/../lib/gcc/arm-none-eabi/4.6.2/armv7-m/libgcc.a(pr-support.o)
                0x0800d184                __gnu_unwind_execute
                0x0800d450                __gnu_unwind_frame
                0x0800d478                _Unwind_GetRegionStart
                0x0800d484                _Unwind_GetLanguageSpecificData
                0x0800d498                _Unwind_GetDataRelBase
                0x0800d4a0                _Unwind_GetTextRelBase
 .text          0x0800d4a8        0x4 /home/avnishks/gcc-arm-none-eabi-4_6-2012q2/bin/../lib/gcc/arm-none-eabi/4.6.2/armv7-m/libgcc.a(_dvmd_tls.o)
                0x0800d4a8                __aeabi_ldiv0
                0x0800d4a8                __aeabi_idiv0
 .text          0x0800d4ac      0x2c8 /home/avnishks/gcc-arm-none-eabi-4_6-2012q2/bin/../lib/gcc/arm-none-eabi/4.6.2/armv7-m/libgcc.a(_divdi3.o)
                0x0800d4ac                __divdi3
 .text          0x0800d774      0x298 /home/avnishks/gcc-arm-none-eabi-4_6-2012q2/bin/../lib/gcc/arm-none-eabi/4.6.2/armv7-m/libgcc.a(_udivdi3.o)
                0x0800d774                __udivdi3
 *(.fixup)
 *(.gnu.warning)
 *(.rodata .rodata.*)
 .rodata.pwm_channels
                0x0800da0c       0x40 /media/data/coding/GSoC/AVT/px4+mavlink/Firmware/Build/px4io-v2_default.build//media/data/coding/GSoC/AVT/px4+mavlink/Firmware/src/drivers/boards/px4io-v2/module.pre.o
                0x0800da0c                pwm_channels
 .rodata.pwm_timers
                0x0800da4c       0x40 /media/data/coding/GSoC/AVT/px4+mavlink/Firmware/Build/px4io-v2_default.build//media/data/coding/GSoC/AVT/px4+mavlink/Firmware/src/drivers/boards/px4io-v2/module.pre.o
                0x0800da4c                pwm_timers
 .rodata.str1.4
                0x0800da8c      0x31b /media/data/coding/GSoC/AVT/px4+mavlink/Firmware/Build/px4io-v2_default.build//media/data/coding/GSoC/AVT/px4+mavlink/Firmware/src/modules/px4iofirmware/module.pre.o
                                0x31c (size before relaxing)
 *fill*         0x0800dda7        0x1 00
 .rodata.r_page_config
                0x0800dda8       0x14 /media/data/coding/GSoC/AVT/px4+mavlink/Firmware/Build/px4io-v2_default.build//media/data/coding/GSoC/AVT/px4+mavlink/Firmware/src/modules/px4iofirmware/module.pre.o
 *fill*         0x0800ddbc        0x4 00
 .rodata._ZTV5Mixer
                0x0800ddc0       0x18 /media/data/coding/GSoC/AVT/px4+mavlink/Firmware/Build/px4io-v2_default.build//media/data/coding/GSoC/AVT/px4+mavlink/Firmware/src/modules/px4iofirmware/module.pre.o
                0x0800ddc0                vtable for Mixer
 .rodata._ZTV9NullMixer
                0x0800ddd8       0x18 /media/data/coding/GSoC/AVT/px4+mavlink/Firmware/Build/px4io-v2_default.build//media/data/coding/GSoC/AVT/px4+mavlink/Firmware/src/modules/px4iofirmware/module.pre.o
                0x0800ddd8                vtable for NullMixer
 .rodata._ZTV10MixerGroup
                0x0800ddf0       0x18 /media/data/coding/GSoC/AVT/px4+mavlink/Firmware/Build/px4io-v2_default.build//media/data/coding/GSoC/AVT/px4+mavlink/Firmware/src/modules/px4iofirmware/module.pre.o
                0x0800ddf0                vtable for MixerGroup
 .rodata._ZN12_GLOBAL__N_1L13_config_hex_xE
                0x0800de08       0x48 /media/data/coding/GSoC/AVT/px4+mavlink/Firmware/Build/px4io-v2_default.build//media/data/coding/GSoC/AVT/px4+mavlink/Firmware/src/modules/px4iofirmware/module.pre.o
 .rodata._ZN12_GLOBAL__N_1L14_config_octa_xE
                0x0800de50       0x60 /media/data/coding/GSoC/AVT/px4+mavlink/Firmware/Build/px4io-v2_default.build//media/data/coding/GSoC/AVT/px4+mavlink/Firmware/src/modules/px4iofirmware/module.pre.o
 .rodata._ZN12_GLOBAL__N_1L19_config_rotor_countE
                0x0800deb0       0x20 /media/data/coding/GSoC/AVT/px4+mavlink/Firmware/Build/px4io-v2_default.build//media/data/coding/GSoC/AVT/px4+mavlink/Firmware/src/modules/px4iofirmware/module.pre.o
 .rodata._ZN12_GLOBAL__N_1L16_config_hex_plusE
                0x0800ded0       0x48 /media/data/coding/GSoC/AVT/px4+mavlink/Firmware/Build/px4io-v2_default.build//media/data/coding/GSoC/AVT/px4+mavlink/Firmware/src/modules/px4iofirmware/module.pre.o
 .rodata._ZN12_GLOBAL__N_1L17_config_octa_plusE
                0x0800df18       0x60 /media/data/coding/GSoC/AVT/px4+mavlink/Firmware/Build/px4io-v2_default.build//media/data/coding/GSoC/AVT/px4+mavlink/Firmware/src/modules/px4iofirmware/module.pre.o
 .rodata._ZN12_GLOBAL__N_1L17_config_quad_plusE
                0x0800df78       0x30 /media/data/coding/GSoC/AVT/px4+mavlink/Firmware/Build/px4io-v2_default.build//media/data/coding/GSoC/AVT/px4+mavlink/Firmware/src/modules/px4iofirmware/module.pre.o
 .rodata._ZN12_GLOBAL__N_113_config_indexE
                0x0800dfa8       0x20 /media/data/coding/GSoC/AVT/px4+mavlink/Firmware/Build/px4io-v2_default.build//media/data/coding/GSoC/AVT/px4+mavlink/Firmware/src/modules/px4iofirmware/module.pre.o
 .rodata._ZN12_GLOBAL__N_1L17_config_quad_wideE
                0x0800dfc8       0x30 /media/data/coding/GSoC/AVT/px4+mavlink/Firmware/Build/px4io-v2_default.build//media/data/coding/GSoC/AVT/px4+mavlink/Firmware/src/modules/px4iofirmware/module.pre.o
 .rodata._ZN12_GLOBAL__N_1L14_config_quad_vE
                0x0800dff8       0x30 /media/data/coding/GSoC/AVT/px4+mavlink/Firmware/Build/px4io-v2_default.build//media/data/coding/GSoC/AVT/px4+mavlink/Firmware/src/modules/px4iofirmware/module.pre.o
 .rodata._ZN12_GLOBAL__N_1L14_config_quad_xE
                0x0800e028       0x30 /media/data/coding/GSoC/AVT/px4+mavlink/Firmware/Build/px4io-v2_default.build//media/data/coding/GSoC/AVT/px4+mavlink/Firmware/src/modules/px4iofirmware/module.pre.o
 .rodata._ZTV15MultirotorMixer
                0x0800e058       0x18 /media/data/coding/GSoC/AVT/px4+mavlink/Firmware/Build/px4io-v2_default.build//media/data/coding/GSoC/AVT/px4+mavlink/Firmware/src/modules/px4iofirmware/module.pre.o
                0x0800e058                vtable for MultirotorMixer
 .rodata._ZTV11SimpleMixer
                0x0800e070       0x18 /media/data/coding/GSoC/AVT/px4+mavlink/Firmware/Build/px4io-v2_default.build//media/data/coding/GSoC/AVT/px4+mavlink/Firmware/src/modules/px4iofirmware/module.pre.o
                0x0800e070                vtable for SimpleMixer
 .rodata.crc8_tab
                0x0800e088      0x100 /media/data/coding/GSoC/AVT/px4+mavlink/Firmware/Build/px4io-v2_default.build//media/data/coding/GSoC/AVT/px4+mavlink/Firmware/src/modules/px4iofirmware/module.pre.o
 .rodata.str1.4
                0x0800e188       0x14 /media/data/coding/GSoC/AVT/px4+mavlink/Firmware/Build/px4io-v2_default.build/nuttx-export/libs/libnuttx.a(sched-irq_unexpectedisr.o)
 .rodata.str1.4
                0x0800e19c       0x16 /media/data/coding/GSoC/AVT/px4+mavlink/Firmware/Build/px4io-v2_default.build/nuttx-export/libs/libnuttx.a(c-lib_sscanf.o)
                                 0x18 (size before relaxing)
 *fill*         0x0800e1b2        0x2 00
 .rodata.spaces
                0x0800e1b4        0x8 /media/data/coding/GSoC/AVT/px4+mavlink/Firmware/Build/px4io-v2_default.build/nuttx-export/libs/libnuttx.a(c-lib_sscanf.o)
 .rodata.str1.4
                0x0800e1bc        0x9 /media/data/coding/GSoC/AVT/px4+mavlink/Firmware/Build/px4io-v2_default.build/nuttx-export/libs/libnuttx.a(mm-mm_sem.o)
                                  0xc (size before relaxing)
 *fill*         0x0800e1c5        0x3 00
 .rodata.str1.4
                0x0800e1c8       0x17 /media/data/coding/GSoC/AVT/px4+mavlink/Firmware/Build/px4io-v2_default.build/nuttx-export/libs/libnuttx.a(arch-stm32_dma.o)
                                 0x18 (size before relaxing)
 *fill*         0x0800e1df        0x1 00
 .rodata.g_gpiobase
                0x0800e1e0       0x10 /media/data/coding/GSoC/AVT/px4+mavlink/Firmware/Build/px4io-v2_default.build/nuttx-export/libs/libnuttx.a(arch-stm32_gpio.o)
                0x0800e1e0                g_gpiobase
 .rodata.str1.4
                0x0800e1f0       0x1b /media/data/coding/GSoC/AVT/px4+mavlink/Firmware/Build/px4io-v2_default.build/nuttx-export/libs/libnuttx.a(arch-stm32_serial.o)
                                 0x28 (size before relaxing)
 *fill*         0x0800e20b        0x1 00
 .rodata.g_uart_dma_ops
                0x0800e20c       0x30 /media/data/coding/GSoC/AVT/px4+mavlink/Firmware/Build/px4io-v2_default.build/nuttx-export/libs/libnuttx.a(arch-stm32_serial.o)
 .rodata.g_uart_ops
                0x0800e23c       0x30 /media/data/coding/GSoC/AVT/px4+mavlink/Firmware/Build/px4io-v2_default.build/nuttx-export/libs/libnuttx.a(arch-stm32_serial.o)
 .rodata.str1.4
                0x0800e26c      0x16e /media/data/coding/GSoC/AVT/px4+mavlink/Firmware/Build/px4io-v2_default.build/nuttx-export/libs/libnuttx.a(arch-up_assert.o)
                                0x170 (size before relaxing)
 *fill*         0x0800e3da        0x2 00
 .rodata.str1.4
                0x0800e3dc       0x17 /media/data/coding/GSoC/AVT/px4+mavlink/Firmware/Build/px4io-v2_default.build/nuttx-export/libs/libnuttx.a(arch-up_hardfault.o)
                                 0x18 (size before relaxing)
 *fill*         0x0800e3f3        0x1 00
 .rodata.str1.4
                0x0800e3f4       0x19 /media/data/coding/GSoC/AVT/px4+mavlink/Firmware/Build/px4io-v2_default.build/nuttx-export/libs/libnuttx.a(cxx-libxx_cxapurevirtual.o)
                                 0x1c (size before relaxing)
 *fill*         0x0800e40d        0x3 00
 .rodata.str1.4
                0x0800e410       0x10 /media/data/coding/GSoC/AVT/px4+mavlink/Firmware/Build/px4io-v2_default.build/nuttx-export/libs/libnuttx.a(drivers-serial.o)
 .rodata.g_serialops
                0x0800e420       0x18 /media/data/coding/GSoC/AVT/px4+mavlink/Firmware/Build/px4io-v2_default.build/nuttx-export/libs/libnuttx.a(drivers-serial.o)
 .rodata.g_idlename
                0x0800e438        0xc /media/data/coding/GSoC/AVT/px4+mavlink/Firmware/Build/px4io-v2_default.build/nuttx-export/libs/libnuttx.a(sched-os_start.o)
 .rodata.g_tasklisttable
                0x0800e444       0x30 /media/data/coding/GSoC/AVT/px4+mavlink/Firmware/Build/px4io-v2_default.build/nuttx-export/libs/libnuttx.a(sched-os_start.o)
                0x0800e444                g_tasklisttable
 .rodata.str1.4
                0x0800e474        0xb /media/data/coding/GSoC/AVT/px4+mavlink/Firmware/Build/px4io-v2_default.build/nuttx-export/libs/libnuttx.a(sched-sem_post.o)
                                  0xc (size before relaxing)
 *fill*         0x0800e47f        0x1 00
 .rodata.str1.4
                0x0800e480        0xb /media/data/coding/GSoC/AVT/px4+mavlink/Firmware/Build/px4io-v2_default.build/nuttx-export/libs/libnuttx.a(sched-sem_wait.o)
                                  0xc (size before relaxing)
 *fill*         0x0800e48b        0x1 00
 .rodata.str1.4
                0x0800e48c        0xc /media/data/coding/GSoC/AVT/px4+mavlink/Firmware/Build/px4io-v2_default.build/nuttx-export/libs/libnuttx.a(sched-wd_cancel.o)
 .rodata.g_nullstring
                0x0800e498        0x8 /media/data/coding/GSoC/AVT/px4+mavlink/Firmware/Build/px4io-v2_default.build/nuttx-export/libs/libnuttx.a(c-lib_libvsprintf.o)
 .rodata.str1.4
                0x0800e4a0       0x1d /media/data/coding/GSoC/AVT/px4+mavlink/Firmware/Build/px4io-v2_default.build/nuttx-export/libs/libnuttx.a(c-lib_libvsprintf.o)
                                 0x20 (size before relaxing)
 .rodata        0x0800e4bd        0x4 /media/data/coding/GSoC/AVT/px4+mavlink/Firmware/Build/px4io-v2_default.build/nuttx-export/libs/libnuttx.a(arch-stm32_vectors.o)
                0x0800e4bd                g_idle_topstack
 *fill*         0x0800e4c1        0x3 00
 .rodata.str1.4
                0x0800e4c4       0x17 /media/data/coding/GSoC/AVT/px4+mavlink/Firmware/Build/px4io-v2_default.build/nuttx-export/libs/libnuttx.a(arch-up_blocktask.o)
                                 0x18 (size before relaxing)
 *fill*         0x0800e4db        0x1 00
 .rodata.str1.4
                0x0800e4dc       0x19 /media/data/coding/GSoC/AVT/px4+mavlink/Firmware/Build/px4io-v2_default.build/nuttx-export/libs/libnuttx.a(arch-up_unblocktask.o)
                                 0x1c (size before relaxing)
 *fill*         0x0800e4f5        0x3 00
 .rodata.str1.4
                0x0800e4f8        0xb /media/data/coding/GSoC/AVT/px4+mavlink/Firmware/Build/px4io-v2_default.build/nuttx-export/libs/libnuttx.a(fs-fs_files.o)
                                  0xc (size before relaxing)
 *fill*         0x0800e503        0x1 00
 .rodata.str1.4
                0x0800e504        0xb /media/data/coding/GSoC/AVT/px4+mavlink/Firmware/Build/px4io-v2_default.build/nuttx-export/libs/libnuttx.a(fs-fs_inode.o)
                                  0xc (size before relaxing)
 .rodata.str1.4
                0x00000000       0x10 /media/data/coding/GSoC/AVT/px4+mavlink/Firmware/Build/px4io-v2_default.build/nuttx-export/libs/libnuttx.a(sched-group_setupidlefiles.o)
 *fill*         0x0800e50f        0x1 00
 .rodata.str1.4
                0x0800e510       0x15 /media/data/coding/GSoC/AVT/px4+mavlink/Firmware/Build/px4io-v2_default.build/nuttx-export/libs/libnuttx.a(sched-os_bringup.o)
                                 0x18 (size before relaxing)
 *fill*         0x0800e525        0x3 00
 .rodata.str1.4
                0x0800e528       0x13 /media/data/coding/GSoC/AVT/px4+mavlink/Firmware/Build/px4io-v2_default.build/nuttx-export/libs/libnuttx.a(sched-sched_addblocked.o)
                                 0x14 (size before relaxing)
 *fill*         0x0800e53b        0x1 00
 .rodata.str1.4
                0x0800e53c       0x17 /media/data/coding/GSoC/AVT/px4+mavlink/Firmware/Build/px4io-v2_default.build/nuttx-export/libs/libnuttx.a(sched-sched_addprioritized.o)
                                 0x18 (size before relaxing)
 *fill*         0x0800e553        0x1 00
 .rodata.str1.4
                0x0800e554       0x16 /media/data/coding/GSoC/AVT/px4+mavlink/Firmware/Build/px4io-v2_default.build/nuttx-export/libs/libnuttx.a(sched-sched_addreadytorun.o)
                                 0x18 (size before relaxing)
 *fill*         0x0800e56a        0x2 00
 .rodata.str1.4
                0x0800e56c       0x15 /media/data/coding/GSoC/AVT/px4+mavlink/Firmware/Build/px4io-v2_default.build/nuttx-export/libs/libnuttx.a(sched-sched_mergepending.o)
                                 0x18 (size before relaxing)
 *fill*         0x0800e581        0x3 00
 .rodata.str1.4
                0x0800e584       0x16 /media/data/coding/GSoC/AVT/px4+mavlink/Firmware/Build/px4io-v2_default.build/nuttx-export/libs/libnuttx.a(sched-sched_removeblocked.o)
                                 0x18 (size before relaxing)
 *fill*         0x0800e59a        0x2 00
 .rodata.str1.4
                0x0800e59c       0x19 /media/data/coding/GSoC/AVT/px4+mavlink/Firmware/Build/px4io-v2_default.build/nuttx-export/libs/libnuttx.a(sched-sched_removereadytorun.o)
                                 0x1c (size before relaxing)
 *fill*         0x0800e5b5        0x3 00
 .rodata.g_noname
                0x0800e5b8        0xc /media/data/coding/GSoC/AVT/px4+mavlink/Firmware/Build/px4io-v2_default.build/nuttx-export/libs/libnuttx.a(sched-task_setup.o)
 .rodata.str1.4
                0x0800e5c4       0x11 /media/data/coding/GSoC/AVT/px4+mavlink/Firmware/Build/px4io-v2_default.build/nuttx-export/libs/libnuttx.a(sched-task_terminate.o)
                                 0x14 (size before relaxing)
 *fill*         0x0800e5d5        0x3 00
 .rodata.str1.4
                0x0800e5d8       0x10 /media/data/coding/GSoC/AVT/px4+mavlink/Firmware/Build/px4io-v2_default.build/nuttx-export/libs/libnuttx.a(sched-sched_lock.o)
 *(.gnu.linkonce.t.*)
 *(.glue_7)
 .glue_7        0x00000000        0x0 linker stubs
 *(.glue_7t)
 .glue_7t       0x00000000        0x0 linker stubs
 *(.got)
 *(.gcc_except_table)
 *(.gnu.linkonce.r.*)
                0x0800e5e8                _etext = ABSOLUTE (.)

.vfp11_veneer   0x0800e5e8        0x0
 .vfp11_veneer  0x00000000        0x0 linker stubs

.v4_bx          0x0800e5e8        0x0
 .v4_bx         0x00000000        0x0 linker stubs

.init_section   0x0800e5e8        0x4
                0x0800e5e8                _sinit = ABSOLUTE (.)
 *(.init_array .init_array.*)
 .init_array    0x0800e5e8        0x4 /media/data/coding/GSoC/AVT/px4+mavlink/Firmware/Build/px4io-v2_default.build//media/data/coding/GSoC/AVT/px4+mavlink/Firmware/src/modules/px4iofirmware/module.pre.o
                0x0800e5ec                _einit = ABSOLUTE (.)

.ARM.extab      0x0800e5ec       0x30
 *(.ARM.extab*)
 .ARM.extab     0x0800e5ec       0x18 /home/avnishks/gcc-arm-none-eabi-4_6-2012q2/bin/../lib/gcc/arm-none-eabi/4.6.2/armv7-m/libgcc.a(unwind-arm.o)
 .ARM.extab     0x0800e604       0x18 /home/avnishks/gcc-arm-none-eabi-4_6-2012q2/bin/../lib/gcc/arm-none-eabi/4.6.2/armv7-m/libgcc.a(pr-support.o)
                0x0800e61c                __exidx_start = ABSOLUTE (.)

.ARM.exidx      0x0800e61c       0xe8
 *(.ARM.exidx*)
 .ARM.exidx     0x0800e61c       0x10 /home/avnishks/gcc-arm-none-eabi-4_6-2012q2/bin/../lib/gcc/arm-none-eabi/4.6.2/armv7-m/libgcc.a(bpabi.o)
 .ARM.exidx     0x0800e62c       0x88 /home/avnishks/gcc-arm-none-eabi-4_6-2012q2/bin/../lib/gcc/arm-none-eabi/4.6.2/armv7-m/libgcc.a(unwind-arm.o)
                                 0xc0 (size before relaxing)
 .ARM.exidx     0x0800e6b4       0x38 /home/avnishks/gcc-arm-none-eabi-4_6-2012q2/bin/../lib/gcc/arm-none-eabi/4.6.2/armv7-m/libgcc.a(pr-support.o)
                                 0x48 (size before relaxing)
 .ARM.exidx     0x0800e6ec        0x8 /home/avnishks/gcc-arm-none-eabi-4_6-2012q2/bin/../lib/gcc/arm-none-eabi/4.6.2/armv7-m/libgcc.a(_divdi3.o)
 .ARM.exidx     0x0800e6f4       0x10 /home/avnishks/gcc-arm-none-eabi-4_6-2012q2/bin/../lib/gcc/arm-none-eabi/4.6.2/armv7-m/libgcc.a(_udivdi3.o)
                                  0x8 (size before relaxing)
                0x0800e704                __exidx_end = ABSOLUTE (.)
                0x0800e704                _eronly = ABSOLUTE (.)

.data           0x20000000      0x200 load address 0x0800e704
                0x20000000                _sdata = ABSOLUTE (.)
 *(.data .data.*)
 .data.dsm_fd   0x20000000        0x4 /media/data/coding/GSoC/AVT/px4+mavlink/Firmware/Build/px4io-v2_default.build//media/data/coding/GSoC/AVT/px4+mavlink/Firmware/src/modules/px4iofirmware/module.pre.o
 .data.r_page_servo_control_min
                0x20000004       0x10 /media/data/coding/GSoC/AVT/px4+mavlink/Firmware/Build/px4io-v2_default.build//media/data/coding/GSoC/AVT/px4+mavlink/Firmware/src/modules/px4iofirmware/module.pre.o
 .data.r_page_servo_control_max
                0x20000014       0x10 /media/data/coding/GSoC/AVT/px4+mavlink/Firmware/Build/px4io-v2_default.build//media/data/coding/GSoC/AVT/px4+mavlink/Firmware/src/modules/px4iofirmware/module.pre.o
 .data.r_page_setup
                0x20000024       0x14 /media/data/coding/GSoC/AVT/px4+mavlink/Firmware/Build/px4io-v2_default.build//media/data/coding/GSoC/AVT/px4+mavlink/Firmware/src/modules/px4iofirmware/module.pre.o
 .data.r_page_servo_idle
                0x20000038       0x10 /media/data/coding/GSoC/AVT/px4+mavlink/Firmware/Build/px4io-v2_default.build//media/data/coding/GSoC/AVT/px4+mavlink/Firmware/src/modules/px4iofirmware/module.pre.o
 .data.sbus_fd  0x20000048        0x4 /media/data/coding/GSoC/AVT/px4+mavlink/Firmware/Build/px4io-v2_default.build//media/data/coding/GSoC/AVT/px4+mavlink/Firmware/src/modules/px4iofirmware/module.pre.o
 .data.g_dma    0x2000004c       0x70 /media/data/coding/GSoC/AVT/px4+mavlink/Firmware/Build/px4io-v2_default.build/nuttx-export/libs/libnuttx.a(arch-stm32_dma.o)
 .data.g_usart1priv
                0x200000bc       0x6c /media/data/coding/GSoC/AVT/px4+mavlink/Firmware/Build/px4io-v2_default.build/nuttx-export/libs/libnuttx.a(arch-stm32_serial.o)
 .data.g_usart2priv
                0x20000128       0x6c /media/data/coding/GSoC/AVT/px4+mavlink/Firmware/Build/px4io-v2_default.build/nuttx-export/libs/libnuttx.a(arch-stm32_serial.o)
 .data.g_usart3priv
                0x20000194       0x6c /media/data/coding/GSoC/AVT/px4+mavlink/Firmware/Build/px4io-v2_default.build/nuttx-export/libs/libnuttx.a(arch-stm32_serial.o)
 *(.gnu.linkonce.d.*)
                0x20000200                _edata = ABSOLUTE (.)

.bss            0x20000200      0xa24 load address 0x0800e908
                0x20000200                _sbss = ABSOLUTE (.)
 *(.bss .bss.*)
 .bss.callout_queue
                0x20000200        0x8 /media/data/coding/GSoC/AVT/px4+mavlink/Firmware/Build/px4io-v2_default.build//media/data/coding/GSoC/AVT/px4+mavlink/Firmware/src/drivers/stm32/module.pre.o
 .bss.ppm_edge_history
                0x20000208       0x40 /media/data/coding/GSoC/AVT/px4+mavlink/Firmware/Build/px4io-v2_default.build//media/data/coding/GSoC/AVT/px4+mavlink/Firmware/src/drivers/stm32/module.pre.o
                0x20000208                ppm_edge_history
 .bss.ppm_pulse_history
                0x20000248       0x40 /media/data/coding/GSoC/AVT/px4+mavlink/Firmware/Build/px4io-v2_default.build//media/data/coding/GSoC/AVT/px4+mavlink/Firmware/src/drivers/stm32/module.pre.o
                0x20000248                ppm_pulse_history
 .bss.ppm_decoded_channels
                0x20000288        0x4 /media/data/coding/GSoC/AVT/px4+mavlink/Firmware/Build/px4io-v2_default.build//media/data/coding/GSoC/AVT/px4+mavlink/Firmware/src/drivers/stm32/module.pre.o
                0x20000288                ppm_decoded_channels
 .bss.last_count.5837
                0x2000028c        0x4 /media/data/coding/GSoC/AVT/px4+mavlink/Firmware/Build/px4io-v2_default.build//media/data/coding/GSoC/AVT/px4+mavlink/Firmware/src/drivers/stm32/module.pre.o
 .bss.ppm_edge_next
                0x20000290        0x4 /media/data/coding/GSoC/AVT/px4+mavlink/Firmware/Build/px4io-v2_default.build//media/data/coding/GSoC/AVT/px4+mavlink/Firmware/src/drivers/stm32/module.pre.o
 .bss.latency_counters
                0x20000294       0x24 /media/data/coding/GSoC/AVT/px4+mavlink/Firmware/Build/px4io-v2_default.build//media/data/coding/GSoC/AVT/px4+mavlink/Firmware/src/drivers/stm32/module.pre.o
 .bss.base_time.5836
                0x200002b8        0x8 /media/data/coding/GSoC/AVT/px4+mavlink/Firmware/Build/px4io-v2_default.build//media/data/coding/GSoC/AVT/px4+mavlink/Firmware/src/drivers/stm32/module.pre.o
 .bss.latency_baseline
                0x200002c0        0x2 /media/data/coding/GSoC/AVT/px4+mavlink/Firmware/Build/px4io-v2_default.build//media/data/coding/GSoC/AVT/px4+mavlink/Firmware/src/drivers/stm32/module.pre.o
 *fill*         0x200002c2        0x2 00
 .bss.ppm       0x200002c4        0xc /media/data/coding/GSoC/AVT/px4+mavlink/Firmware/Build/px4io-v2_default.build//media/data/coding/GSoC/AVT/px4+mavlink/Firmware/src/drivers/stm32/module.pre.o
 .bss.ppm_temp_buffer
                0x200002d0       0x18 /media/data/coding/GSoC/AVT/px4+mavlink/Firmware/Build/px4io-v2_default.build//media/data/coding/GSoC/AVT/px4+mavlink/Firmware/src/drivers/stm32/module.pre.o
 .bss.ppm_last_valid_decode
                0x200002e8        0x8 /media/data/coding/GSoC/AVT/px4+mavlink/Firmware/Build/px4io-v2_default.build//media/data/coding/GSoC/AVT/px4+mavlink/Firmware/src/drivers/stm32/module.pre.o
                0x200002e8                ppm_last_valid_decode
 .bss.latency_actual
                0x200002f0        0x2 /media/data/coding/GSoC/AVT/px4+mavlink/Firmware/Build/px4io-v2_default.build//media/data/coding/GSoC/AVT/px4+mavlink/Firmware/src/drivers/stm32/module.pre.o
 *fill*         0x200002f2        0x2 00
 .bss.ppm_buffer
                0x200002f4       0x18 /media/data/coding/GSoC/AVT/px4+mavlink/Firmware/Build/px4io-v2_default.build//media/data/coding/GSoC/AVT/px4+mavlink/Firmware/src/drivers/stm32/module.pre.o
                0x200002f4                ppm_buffer
 .bss.ppm_pulse_next
                0x2000030c        0x4 /media/data/coding/GSoC/AVT/px4+mavlink/Firmware/Build/px4io-v2_default.build//media/data/coding/GSoC/AVT/px4+mavlink/Firmware/src/drivers/stm32/module.pre.o
 .bss.adc_perf  0x20000310        0x4 /media/data/coding/GSoC/AVT/px4+mavlink/Firmware/Build/px4io-v2_default.build//media/data/coding/GSoC/AVT/px4+mavlink/Firmware/src/modules/px4iofirmware/module.pre.o
 .bss.c_gather_dsm
                0x20000314        0x4 /media/data/coding/GSoC/AVT/px4+mavlink/Firmware/Build/px4io-v2_default.build//media/data/coding/GSoC/AVT/px4+mavlink/Firmware/src/modules/px4iofirmware/module.pre.o
 .bss.c_gather_ppm
                0x20000318        0x4 /media/data/coding/GSoC/AVT/px4+mavlink/Firmware/Build/px4io-v2_default.build//media/data/coding/GSoC/AVT/px4+mavlink/Firmware/src/modules/px4iofirmware/module.pre.o
 .bss.c_gather_sbus
                0x2000031c        0x4 /media/data/coding/GSoC/AVT/px4+mavlink/Firmware/Build/px4io-v2_default.build//media/data/coding/GSoC/AVT/px4+mavlink/Firmware/src/modules/px4iofirmware/module.pre.o
 .bss.dsm_last_frame_time
                0x20000320        0x8 /media/data/coding/GSoC/AVT/px4+mavlink/Firmware/Build/px4io-v2_default.build//media/data/coding/GSoC/AVT/px4+mavlink/Firmware/src/modules/px4iofirmware/module.pre.o
 .bss.dsm_partial_frame_count
                0x20000328        0x4 /media/data/coding/GSoC/AVT/px4+mavlink/Firmware/Build/px4io-v2_default.build//media/data/coding/GSoC/AVT/px4+mavlink/Firmware/src/modules/px4iofirmware/module.pre.o
 *fill*         0x2000032c        0x4 00
 .bss.dsm_last_rx_time
                0x20000330        0x8 /media/data/coding/GSoC/AVT/px4+mavlink/Firmware/Build/px4io-v2_default.build//media/data/coding/GSoC/AVT/px4+mavlink/Firmware/src/modules/px4iofirmware/module.pre.o
 .bss.cs11.5810
                0x20000338        0x4 /media/data/coding/GSoC/AVT/px4+mavlink/Firmware/Build/px4io-v2_default.build//media/data/coding/GSoC/AVT/px4+mavlink/Firmware/src/modules/px4iofirmware/module.pre.o
 .bss.dsm_frame
                0x2000033c       0x10 /media/data/coding/GSoC/AVT/px4+mavlink/Firmware/Build/px4io-v2_default.build//media/data/coding/GSoC/AVT/px4+mavlink/Firmware/src/modules/px4iofirmware/module.pre.o
 .bss.dsm_frame_drops
                0x2000034c        0x4 /media/data/coding/GSoC/AVT/px4+mavlink/Firmware/Build/px4io-v2_default.build//media/data/coding/GSoC/AVT/px4+mavlink/Firmware/src/modules/px4iofirmware/module.pre.o
 .bss.samples.5811
                0x20000350        0x4 /media/data/coding/GSoC/AVT/px4+mavlink/Firmware/Build/px4io-v2_default.build//media/data/coding/GSoC/AVT/px4+mavlink/Firmware/src/modules/px4iofirmware/module.pre.o
 .bss.dsm_channel_shift
                0x20000354        0x4 /media/data/coding/GSoC/AVT/px4+mavlink/Firmware/Build/px4io-v2_default.build//media/data/coding/GSoC/AVT/px4+mavlink/Firmware/src/modules/px4iofirmware/module.pre.o
 .bss.cs10.5809
                0x20000358        0x4 /media/data/coding/GSoC/AVT/px4+mavlink/Firmware/Build/px4io-v2_default.build//media/data/coding/GSoC/AVT/px4+mavlink/Firmware/src/modules/px4iofirmware/module.pre.o
 .bss.last_msg_counter
                0x2000035c        0x4 /media/data/coding/GSoC/AVT/px4+mavlink/Firmware/Build/px4io-v2_default.build//media/data/coding/GSoC/AVT/px4+mavlink/Firmware/src/modules/px4iofirmware/module.pre.o
 .bss.system_state
                0x20000360       0x10 /media/data/coding/GSoC/AVT/px4+mavlink/Firmware/Build/px4io-v2_default.build//media/data/coding/GSoC/AVT/px4+mavlink/Firmware/src/modules/px4iofirmware/module.pre.o
 .bss.msg_next_out
                0x20000370        0x1 /media/data/coding/GSoC/AVT/px4+mavlink/Firmware/Build/px4io-v2_default.build//media/data/coding/GSoC/AVT/px4+mavlink/Firmware/src/modules/px4iofirmware/module.pre.o
 *fill*         0x20000371        0x7 00
 .bss.serial_dma_call
                0x20000378       0x20 /media/data/coding/GSoC/AVT/px4+mavlink/Firmware/Build/px4io-v2_default.build//media/data/coding/GSoC/AVT/px4+mavlink/Firmware/src/modules/px4iofirmware/module.pre.o
 .bss.msg_counter
                0x20000398        0x4 /media/data/coding/GSoC/AVT/px4+mavlink/Firmware/Build/px4io-v2_default.build//media/data/coding/GSoC/AVT/px4+mavlink/Firmware/src/modules/px4iofirmware/module.pre.o
 .bss.msg       0x2000039c       0x50 /media/data/coding/GSoC/AVT/px4+mavlink/Firmware/Build/px4io-v2_default.build//media/data/coding/GSoC/AVT/px4+mavlink/Firmware/src/modules/px4iofirmware/module.pre.o
 .bss.msg_next_in
                0x200003ec        0x1 /media/data/coding/GSoC/AVT/px4+mavlink/Firmware/Build/px4io-v2_default.build//media/data/coding/GSoC/AVT/px4+mavlink/Firmware/src/modules/px4iofirmware/module.pre.o
 *fill*         0x200003ed        0x3 00
 .bss.r_page_rc_input
                0x200003f0       0x14 /media/data/coding/GSoC/AVT/px4+mavlink/Firmware/Build/px4io-v2_default.build//media/data/coding/GSoC/AVT/px4+mavlink/Firmware/src/modules/px4iofirmware/module.pre.o
 .bss.r_page_scratch
                0x20000404       0x40 /media/data/coding/GSoC/AVT/px4+mavlink/Firmware/Build/px4io-v2_default.build//media/data/coding/GSoC/AVT/px4+mavlink/Firmware/src/modules/px4iofirmware/module.pre.o
 .bss.r_page_servos
                0x20000444       0x10 /media/data/coding/GSoC/AVT/px4+mavlink/Firmware/Build/px4io-v2_default.build//media/data/coding/GSoC/AVT/px4+mavlink/Firmware/src/modules/px4iofirmware/module.pre.o
 .bss.last_offset
                0x20000454        0x1 /media/data/coding/GSoC/AVT/px4+mavlink/Firmware/Build/px4io-v2_default.build//media/data/coding/GSoC/AVT/px4+mavlink/Firmware/src/modules/px4iofirmware/module.pre.o
 *fill*         0x20000455        0x3 00
 .bss.r_page_status
                0x20000458       0x14 /media/data/coding/GSoC/AVT/px4+mavlink/Firmware/Build/px4io-v2_default.build//media/data/coding/GSoC/AVT/px4+mavlink/Firmware/src/modules/px4iofirmware/module.pre.o
 .bss.r_page_rc_input_config
                0x2000046c       0x60 /media/data/coding/GSoC/AVT/px4+mavlink/Firmware/Build/px4io-v2_default.build//media/data/coding/GSoC/AVT/px4+mavlink/Firmware/src/modules/px4iofirmware/module.pre.o
 .bss.r_page_controls
                0x200004cc       0x10 /media/data/coding/GSoC/AVT/px4+mavlink/Firmware/Build/px4io-v2_default.build//media/data/coding/GSoC/AVT/px4+mavlink/Firmware/src/modules/px4iofirmware/module.pre.o
 .bss.r_page_servo_failsafe
                0x200004dc       0x10 /media/data/coding/GSoC/AVT/px4+mavlink/Firmware/Build/px4io-v2_default.build//media/data/coding/GSoC/AVT/px4+mavlink/Firmware/src/modules/px4iofirmware/module.pre.o
 .bss.r_page_raw_rc_input
                0x200004ec       0x14 /media/data/coding/GSoC/AVT/px4+mavlink/Firmware/Build/px4io-v2_default.build//media/data/coding/GSoC/AVT/px4+mavlink/Firmware/src/modules/px4iofirmware/module.pre.o
 .bss.last_page
                0x20000500        0x1 /media/data/coding/GSoC/AVT/px4+mavlink/Firmware/Build/px4io-v2_default.build//media/data/coding/GSoC/AVT/px4+mavlink/Firmware/src/modules/px4iofirmware/module.pre.o
 *fill*         0x20000501        0x3 00
 .bss.r_page_actuators
                0x20000504       0x10 /media/data/coding/GSoC/AVT/px4+mavlink/Firmware/Build/px4io-v2_default.build//media/data/coding/GSoC/AVT/px4+mavlink/Firmware/src/modules/px4iofirmware/module.pre.o
 .bss.failsafe.5261
                0x20000514        0x1 /media/data/coding/GSoC/AVT/px4+mavlink/Firmware/Build/px4io-v2_default.build//media/data/coding/GSoC/AVT/px4+mavlink/Firmware/src/modules/px4iofirmware/module.pre.o
 *fill*         0x20000515        0x3 00
 .bss.heartbeat_call
                0x20000518       0x20 /media/data/coding/GSoC/AVT/px4+mavlink/Firmware/Build/px4io-v2_default.build//media/data/coding/GSoC/AVT/px4+mavlink/Firmware/src/modules/px4iofirmware/module.pre.o
 .bss.safety_button_pressed
                0x20000538        0x1 /media/data/coding/GSoC/AVT/px4+mavlink/Firmware/Build/px4io-v2_default.build//media/data/coding/GSoC/AVT/px4+mavlink/Firmware/src/modules/px4iofirmware/module.pre.o
 *fill*         0x20000539        0x7 00
 .bss.arming_call
                0x20000540       0x20 /media/data/coding/GSoC/AVT/px4+mavlink/Firmware/Build/px4io-v2_default.build//media/data/coding/GSoC/AVT/px4+mavlink/Firmware/src/modules/px4iofirmware/module.pre.o
 .bss.blink_counter
                0x20000560        0x4 /media/data/coding/GSoC/AVT/px4+mavlink/Firmware/Build/px4io-v2_default.build//media/data/coding/GSoC/AVT/px4+mavlink/Firmware/src/modules/px4iofirmware/module.pre.o
 .bss.heartbeat.5257
                0x20000564        0x1 /media/data/coding/GSoC/AVT/px4+mavlink/Firmware/Build/px4io-v2_default.build//media/data/coding/GSoC/AVT/px4+mavlink/Firmware/src/modules/px4iofirmware/module.pre.o
 *fill*         0x20000565        0x3 00
 .bss.failsafe_call
                0x20000568       0x20 /media/data/coding/GSoC/AVT/px4+mavlink/Firmware/Build/px4io-v2_default.build//media/data/coding/GSoC/AVT/px4+mavlink/Firmware/src/modules/px4iofirmware/module.pre.o
 .bss.counter   0x20000588        0x4 /media/data/coding/GSoC/AVT/px4+mavlink/Firmware/Build/px4io-v2_default.build//media/data/coding/GSoC/AVT/px4+mavlink/Firmware/src/modules/px4iofirmware/module.pre.o
 .bss.frame     0x2000058c       0x1c /media/data/coding/GSoC/AVT/px4+mavlink/Firmware/Build/px4io-v2_default.build//media/data/coding/GSoC/AVT/px4+mavlink/Firmware/src/modules/px4iofirmware/module.pre.o
 .bss.last_frame_time
                0x200005a8        0x8 /media/data/coding/GSoC/AVT/px4+mavlink/Firmware/Build/px4io-v2_default.build//media/data/coding/GSoC/AVT/px4+mavlink/Firmware/src/modules/px4iofirmware/module.pre.o
 .bss.partial_frame_count
                0x200005b0        0x4 /media/data/coding/GSoC/AVT/px4+mavlink/Firmware/Build/px4io-v2_default.build//media/data/coding/GSoC/AVT/px4+mavlink/Firmware/src/modules/px4iofirmware/module.pre.o
 *fill*         0x200005b4        0x4 00
 .bss.last_rx_time
                0x200005b8        0x8 /media/data/coding/GSoC/AVT/px4+mavlink/Firmware/Build/px4io-v2_default.build//media/data/coding/GSoC/AVT/px4+mavlink/Firmware/src/modules/px4iofirmware/module.pre.o
 .bss.sbus_frame_drops
                0x200005c0        0x4 /media/data/coding/GSoC/AVT/px4+mavlink/Firmware/Build/px4io-v2_default.build//media/data/coding/GSoC/AVT/px4+mavlink/Firmware/src/modules/px4iofirmware/module.pre.o
 .bss.perf_counters
                0x200005c4        0x8 /media/data/coding/GSoC/AVT/px4+mavlink/Firmware/Build/px4io-v2_default.build//media/data/coding/GSoC/AVT/px4+mavlink/Firmware/src/modules/px4iofirmware/module.pre.o
 .bss._ZL11mixer_group
                0x200005cc       0x14 /media/data/coding/GSoC/AVT/px4+mavlink/Firmware/Build/px4io-v2_default.build//media/data/coding/GSoC/AVT/px4+mavlink/Firmware/src/modules/px4iofirmware/module.pre.o
 .bss._ZL17mixer_text_length
                0x200005e0        0x4 /media/data/coding/GSoC/AVT/px4+mavlink/Firmware/Build/px4io-v2_default.build//media/data/coding/GSoC/AVT/px4+mavlink/Firmware/src/modules/px4iofirmware/module.pre.o
 .bss._ZL10should_arm
                0x200005e4        0x1 /media/data/coding/GSoC/AVT/px4+mavlink/Firmware/Build/px4io-v2_default.build//media/data/coding/GSoC/AVT/px4+mavlink/Firmware/src/modules/px4iofirmware/module.pre.o
 .bss._ZL18mixer_servos_armed
                0x200005e5        0x1 /media/data/coding/GSoC/AVT/px4+mavlink/Firmware/Build/px4io-v2_default.build//media/data/coding/GSoC/AVT/px4+mavlink/Firmware/src/modules/px4iofirmware/module.pre.o
 .bss._ZL24should_always_enable_pwm
                0x200005e6        0x1 /media/data/coding/GSoC/AVT/px4+mavlink/Firmware/Build/px4io-v2_default.build//media/data/coding/GSoC/AVT/px4+mavlink/Firmware/src/modules/px4iofirmware/module.pre.o
 *fill*         0x200005e7        0x1 00
 .bss._ZL13esc_init_time
                0x200005e8        0x8 /media/data/coding/GSoC/AVT/px4+mavlink/Firmware/Build/px4io-v2_default.build//media/data/coding/GSoC/AVT/px4+mavlink/Firmware/src/modules/px4iofirmware/module.pre.o
 .bss._ZL9esc_state
                0x200005f0        0x1 /media/data/coding/GSoC/AVT/px4+mavlink/Firmware/Build/px4io-v2_default.build//media/data/coding/GSoC/AVT/px4+mavlink/Firmware/src/modules/px4iofirmware/module.pre.o
 *fill*         0x200005f1        0x3 00
 .bss._ZL10mixer_text
                0x200005f4      0x100 /media/data/coding/GSoC/AVT/px4+mavlink/Firmware/Build/px4io-v2_default.build//media/data/coding/GSoC/AVT/px4+mavlink/Firmware/src/modules/px4iofirmware/module.pre.o
 .bss._ZL6source
                0x200006f4        0x1 /media/data/coding/GSoC/AVT/px4+mavlink/Firmware/Build/px4io-v2_default.build//media/data/coding/GSoC/AVT/px4+mavlink/Firmware/src/modules/px4iofirmware/module.pre.o
 *fill*         0x200006f5        0x3 00
 .bss.pc_badidle
                0x200006f8        0x4 /media/data/coding/GSoC/AVT/px4+mavlink/Firmware/Build/px4io-v2_default.build//media/data/coding/GSoC/AVT/px4+mavlink/Firmware/src/modules/px4iofirmware/module.pre.o
 .bss.rx_dma    0x200006fc        0x4 /media/data/coding/GSoC/AVT/px4+mavlink/Firmware/Build/px4io-v2_default.build//media/data/coding/GSoC/AVT/px4+mavlink/Firmware/src/modules/px4iofirmware/module.pre.o
 .bss.pc_txns   0x20000700        0x4 /media/data/coding/GSoC/AVT/px4+mavlink/Firmware/Build/px4io-v2_default.build//media/data/coding/GSoC/AVT/px4+mavlink/Firmware/src/modules/px4iofirmware/module.pre.o
 .bss.idle_ticks
                0x20000704        0x4 /media/data/coding/GSoC/AVT/px4+mavlink/Firmware/Build/px4io-v2_default.build//media/data/coding/GSoC/AVT/px4+mavlink/Firmware/src/modules/px4iofirmware/module.pre.o
 .bss.abort_on_idle.5916
                0x20000708        0x1 /media/data/coding/GSoC/AVT/px4+mavlink/Firmware/Build/px4io-v2_default.build//media/data/coding/GSoC/AVT/px4+mavlink/Firmware/src/modules/px4iofirmware/module.pre.o
 *fill*         0x20000709        0x3 00
 .bss.pc_errors
                0x2000070c        0x4 /media/data/coding/GSoC/AVT/px4+mavlink/Firmware/Build/px4io-v2_default.build//media/data/coding/GSoC/AVT/px4+mavlink/Firmware/src/modules/px4iofirmware/module.pre.o
 .bss.pc_fe     0x20000710        0x4 /media/data/coding/GSoC/AVT/px4+mavlink/Firmware/Build/px4io-v2_default.build//media/data/coding/GSoC/AVT/px4+mavlink/Firmware/src/modules/px4iofirmware/module.pre.o
 .bss.dma_packet
                0x20000714       0x44 /media/data/coding/GSoC/AVT/px4+mavlink/Firmware/Build/px4io-v2_default.build//media/data/coding/GSoC/AVT/px4+mavlink/Firmware/src/modules/px4iofirmware/module.pre.o
 .bss.tx_dma    0x20000758        0x4 /media/data/coding/GSoC/AVT/px4+mavlink/Firmware/Build/px4io-v2_default.build//media/data/coding/GSoC/AVT/px4+mavlink/Firmware/src/modules/px4iofirmware/module.pre.o
 .bss.pc_ne     0x2000075c        0x4 /media/data/coding/GSoC/AVT/px4+mavlink/Firmware/Build/px4io-v2_default.build//media/data/coding/GSoC/AVT/px4+mavlink/Firmware/src/modules/px4iofirmware/module.pre.o
 .bss.pc_crcerr
                0x20000760        0x4 /media/data/coding/GSoC/AVT/px4+mavlink/Firmware/Build/px4io-v2_default.build//media/data/coding/GSoC/AVT/px4+mavlink/Firmware/src/modules/px4iofirmware/module.pre.o
 .bss.pc_regerr
                0x20000764        0x4 /media/data/coding/GSoC/AVT/px4+mavlink/Firmware/Build/px4io-v2_default.build//media/data/coding/GSoC/AVT/px4+mavlink/Firmware/src/modules/px4iofirmware/module.pre.o
 .bss.pc_ore    0x20000768        0x4 /media/data/coding/GSoC/AVT/px4+mavlink/Firmware/Build/px4io-v2_default.build//media/data/coding/GSoC/AVT/px4+mavlink/Firmware/src/modules/px4iofirmware/module.pre.o
 .bss.pc_idle   0x2000076c        0x4 /media/data/coding/GSoC/AVT/px4+mavlink/Firmware/Build/px4io-v2_default.build//media/data/coding/GSoC/AVT/px4+mavlink/Firmware/src/modules/px4iofirmware/module.pre.o
 .bss.g_irqvector
                0x20000770      0x138 /media/data/coding/GSoC/AVT/px4+mavlink/Firmware/Build/px4io-v2_default.build/nuttx-export/libs/libnuttx.a(sched-irq_initialize.o)
                0x20000770                g_irqvector
 .bss.g_mmheap  0x200008a8       0xa4 /media/data/coding/GSoC/AVT/px4+mavlink/Firmware/Build/px4io-v2_default.build/nuttx-export/libs/libnuttx.a(mm-mm_user.o)
                0x200008a8                g_mmheap
 .bss.current_regs
                0x2000094c        0x4 /media/data/coding/GSoC/AVT/px4+mavlink/Firmware/Build/px4io-v2_default.build/nuttx-export/libs/libnuttx.a(arch-stm32_irq.o)
                0x2000094c                current_regs
 .bss.g_usart1txbuffer
                0x20000950       0x40 /media/data/coding/GSoC/AVT/px4+mavlink/Firmware/Build/px4io-v2_default.build/nuttx-export/libs/libnuttx.a(arch-stm32_serial.o)
 .bss.g_usart1rxfifo
                0x20000990       0x20 /media/data/coding/GSoC/AVT/px4+mavlink/Firmware/Build/px4io-v2_default.build/nuttx-export/libs/libnuttx.a(arch-stm32_serial.o)
 .bss.g_usart2rxbuffer
                0x200009b0       0x40 /media/data/coding/GSoC/AVT/px4+mavlink/Firmware/Build/px4io-v2_default.build/nuttx-export/libs/libnuttx.a(arch-stm32_serial.o)
 .bss.g_usart2txbuffer
                0x200009f0       0x40 /media/data/coding/GSoC/AVT/px4+mavlink/Firmware/Build/px4io-v2_default.build/nuttx-export/libs/libnuttx.a(arch-stm32_serial.o)
 .bss.g_usart3rxbuffer
                0x20000a30       0x40 /media/data/coding/GSoC/AVT/px4+mavlink/Firmware/Build/px4io-v2_default.build/nuttx-export/libs/libnuttx.a(arch-stm32_serial.o)
 .bss.g_usart3txbuffer
                0x20000a70       0x40 /media/data/coding/GSoC/AVT/px4+mavlink/Firmware/Build/px4io-v2_default.build/nuttx-export/libs/libnuttx.a(arch-stm32_serial.o)
 .bss.g_usart1rxbuffer
                0x20000ab0       0x40 /media/data/coding/GSoC/AVT/px4+mavlink/Firmware/Build/px4io-v2_default.build/nuttx-export/libs/libnuttx.a(arch-stm32_serial.o)
 .bss.g_usart3rxfifo
                0x20000af0       0x20 /media/data/coding/GSoC/AVT/px4+mavlink/Firmware/Build/px4io-v2_default.build/nuttx-export/libs/libnuttx.a(arch-stm32_serial.o)
 .bss.__dso_handle
                0x20000b10        0x4 /media/data/coding/GSoC/AVT/px4+mavlink/Firmware/Build/px4io-v2_default.build/nuttx-export/libs/libnuttx.a(cxx-libxx_cxa_atexit.o)
                0x20000b10                __dso_handle
 .bss.g_irqerrno
                0x20000b14        0x4 /media/data/coding/GSoC/AVT/px4+mavlink/Firmware/Build/px4io-v2_default.build/nuttx-export/libs/libnuttx.a(sched-errno_getptr.o)
 .bss.g_pendingtasks
                0x20000b18        0x8 /media/data/coding/GSoC/AVT/px4+mavlink/Firmware/Build/px4io-v2_default.build/nuttx-export/libs/libnuttx.a(sched-os_start.o)
                0x20000b18                g_pendingtasks
 .bss.g_delayed_kufree
                0x20000b20        0x8 /media/data/coding/GSoC/AVT/px4+mavlink/Firmware/Build/px4io-v2_default.build/nuttx-export/libs/libnuttx.a(sched-os_start.o)
                0x20000b20                g_delayed_kufree
 .bss.g_waitingforsemaphore
                0x20000b28        0x8 /media/data/coding/GSoC/AVT/px4+mavlink/Firmware/Build/px4io-v2_default.build/nuttx-export/libs/libnuttx.a(sched-os_start.o)
                0x20000b28                g_waitingforsemaphore
 .bss.g_pidhash
                0x20000b30       0x20 /media/data/coding/GSoC/AVT/px4+mavlink/Firmware/Build/px4io-v2_default.build/nuttx-export/libs/libnuttx.a(sched-os_start.o)
                0x20000b30                g_pidhash
 .bss.g_lastpid
                0x20000b50        0x2 /media/data/coding/GSoC/AVT/px4+mavlink/Firmware/Build/px4io-v2_default.build/nuttx-export/libs/libnuttx.a(sched-os_start.o)
                0x20000b50                g_lastpid
 *fill*         0x20000b52        0x2 00
 .bss.g_readytorun
                0x20000b54        0x8 /media/data/coding/GSoC/AVT/px4+mavlink/Firmware/Build/px4io-v2_default.build/nuttx-export/libs/libnuttx.a(sched-os_start.o)
                0x20000b54                g_readytorun
 .bss.g_inactivetasks
                0x20000b5c        0x8 /media/data/coding/GSoC/AVT/px4+mavlink/Firmware/Build/px4io-v2_default.build/nuttx-export/libs/libnuttx.a(sched-os_start.o)
                0x20000b5c                g_inactivetasks
 .bss.g_idletcb
                0x20000b64       0xa4 /media/data/coding/GSoC/AVT/px4+mavlink/Firmware/Build/px4io-v2_default.build/nuttx-export/libs/libnuttx.a(sched-os_start.o)
 .bss.g_wdfreelist
                0x20000c08        0x8 /media/data/coding/GSoC/AVT/px4+mavlink/Firmware/Build/px4io-v2_default.build/nuttx-export/libs/libnuttx.a(sched-wd_initialize.o)
                0x20000c08                g_wdfreelist
 .bss.g_wdpool  0x20000c10        0x4 /media/data/coding/GSoC/AVT/px4+mavlink/Firmware/Build/px4io-v2_default.build/nuttx-export/libs/libnuttx.a(sched-wd_initialize.o)
                0x20000c10                g_wdpool
 .bss.g_wdactivelist
                0x20000c14        0x8 /media/data/coding/GSoC/AVT/px4+mavlink/Firmware/Build/px4io-v2_default.build/nuttx-export/libs/libnuttx.a(sched-wd_initialize.o)
                0x20000c14                g_wdactivelist
 .bss.root_inode
                0x20000c1c        0x4 /media/data/coding/GSoC/AVT/px4+mavlink/Firmware/Build/px4io-v2_default.build/nuttx-export/libs/libnuttx.a(fs-fs_inode.o)
                0x20000c1c                root_inode
 .bss.tree_sem  0x20000c20        0x4 /media/data/coding/GSoC/AVT/px4+mavlink/Firmware/Build/px4io-v2_default.build/nuttx-export/libs/libnuttx.a(fs-fs_inode.o)
 *(.gnu.linkonce.b.*)
 *(COMMON)
                0x20000c24                _ebss = ABSOLUTE (.)

.stab
 *(.stab)

.stabstr
 *(.stabstr)

.stab.excl
 *(.stab.excl)

.stab.exclstr
 *(.stab.exclstr)

.stab.index
 *(.stab.index)

.stab.indexstr
 *(.stab.indexstr)

.comment        0x00000000       0x70
 *(.comment)
 .comment       0x00000000       0x70 /media/data/coding/GSoC/AVT/px4+mavlink/Firmware/Build/px4io-v2_default.build//media/data/coding/GSoC/AVT/px4+mavlink/Firmware/Build/px4io-v2_default.build/empty.c.o
                                 0x71 (size before relaxing)
 .comment       0x00000000       0xe2 /media/data/coding/GSoC/AVT/px4+mavlink/Firmware/Build/px4io-v2_default.build//media/data/coding/GSoC/AVT/px4+mavlink/Firmware/src/drivers/boards/px4io-v2/module.pre.o
 .comment       0x00000000       0xe2 /media/data/coding/GSoC/AVT/px4+mavlink/Firmware/Build/px4io-v2_default.build//media/data/coding/GSoC/AVT/px4+mavlink/Firmware/src/drivers/stm32/module.pre.o
 .comment       0x00000000      0x710 /media/data/coding/GSoC/AVT/px4+mavlink/Firmware/Build/px4io-v2_default.build//media/data/coding/GSoC/AVT/px4+mavlink/Firmware/src/modules/px4iofirmware/module.pre.o
 .comment       0x00000000       0x71 /media/data/coding/GSoC/AVT/px4+mavlink/Firmware/Build/px4io-v2_default.build/nuttx-export/libs/libnuttx.a(sched-irq_attach.o)
 .comment       0x00000000       0x71 /media/data/coding/GSoC/AVT/px4+mavlink/Firmware/Build/px4io-v2_default.build/nuttx-export/libs/libnuttx.a(sched-irq_initialize.o)
 .comment       0x00000000       0x71 /media/data/coding/GSoC/AVT/px4+mavlink/Firmware/Build/px4io-v2_default.build/nuttx-export/libs/libnuttx.a(sched-irq_unexpectedisr.o)
 .comment       0x00000000       0x71 /media/data/coding/GSoC/AVT/px4+mavlink/Firmware/Build/px4io-v2_default.build/nuttx-export/libs/libnuttx.a(c-lib_abort.o)
 .comment       0x00000000       0x71 /media/data/coding/GSoC/AVT/px4+mavlink/Firmware/Build/px4io-v2_default.build/nuttx-export/libs/libnuttx.a(c-lib_cfsetspeed.o)
 .comment       0x00000000       0x71 /media/data/coding/GSoC/AVT/px4+mavlink/Firmware/Build/px4io-v2_default.build/nuttx-export/libs/libnuttx.a(c-lib_crc32.o)
 .comment       0x00000000       0x71 /media/data/coding/GSoC/AVT/px4+mavlink/Firmware/Build/px4io-v2_default.build/nuttx-export/libs/libnuttx.a(c-lib_lowsyslog.o)
 .comment       0x00000000       0x71 /media/data/coding/GSoC/AVT/px4+mavlink/Firmware/Build/px4io-v2_default.build/nuttx-export/libs/libnuttx.a(c-lib_memchr.o)
 .comment       0x00000000       0x71 /media/data/coding/GSoC/AVT/px4+mavlink/Firmware/Build/px4io-v2_default.build/nuttx-export/libs/libnuttx.a(c-lib_memcpy.o)
 .comment       0x00000000       0x71 /media/data/coding/GSoC/AVT/px4+mavlink/Firmware/Build/px4io-v2_default.build/nuttx-export/libs/libnuttx.a(c-lib_memset.o)
 .comment       0x00000000       0x71 /media/data/coding/GSoC/AVT/px4+mavlink/Firmware/Build/px4io-v2_default.build/nuttx-export/libs/libnuttx.a(c-lib_printf.o)
 .comment       0x00000000       0x71 /media/data/coding/GSoC/AVT/px4+mavlink/Firmware/Build/px4io-v2_default.build/nuttx-export/libs/libnuttx.a(c-lib_sscanf.o)
 .comment       0x00000000       0x71 /media/data/coding/GSoC/AVT/px4+mavlink/Firmware/Build/px4io-v2_default.build/nuttx-export/libs/libnuttx.a(c-lib_strchr.o)
 .comment       0x00000000       0x71 /media/data/coding/GSoC/AVT/px4+mavlink/Firmware/Build/px4io-v2_default.build/nuttx-export/libs/libnuttx.a(c-lib_strcmp.o)
 .comment       0x00000000       0x71 /media/data/coding/GSoC/AVT/px4+mavlink/Firmware/Build/px4io-v2_default.build/nuttx-export/libs/libnuttx.a(c-lib_strcspn.o)
 .comment       0x00000000       0x71 /media/data/coding/GSoC/AVT/px4+mavlink/Firmware/Build/px4io-v2_default.build/nuttx-export/libs/libnuttx.a(c-lib_strncpy.o)
 .comment       0x00000000       0x71 /media/data/coding/GSoC/AVT/px4+mavlink/Firmware/Build/px4io-v2_default.build/nuttx-export/libs/libnuttx.a(c-lib_strtol.o)
 .comment       0x00000000       0x71 /media/data/coding/GSoC/AVT/px4+mavlink/Firmware/Build/px4io-v2_default.build/nuttx-export/libs/libnuttx.a(c-lib_strtoul.o)
 .comment       0x00000000       0x71 /media/data/coding/GSoC/AVT/px4+mavlink/Firmware/Build/px4io-v2_default.build/nuttx-export/libs/libnuttx.a(c-lib_syslog.o)
 .comment       0x00000000       0x71 /media/data/coding/GSoC/AVT/px4+mavlink/Firmware/Build/px4io-v2_default.build/nuttx-export/libs/libnuttx.a(c-lib_tcgetattr.o)
 .comment       0x00000000       0x71 /media/data/coding/GSoC/AVT/px4+mavlink/Firmware/Build/px4io-v2_default.build/nuttx-export/libs/libnuttx.a(c-lib_tcsetattr.o)
 .comment       0x00000000       0x71 /media/data/coding/GSoC/AVT/px4+mavlink/Firmware/Build/px4io-v2_default.build/nuttx-export/libs/libnuttx.a(c-lib_vsnprintf.o)
 .comment       0x00000000       0x71 /media/data/coding/GSoC/AVT/px4+mavlink/Firmware/Build/px4io-v2_default.build/nuttx-export/libs/libnuttx.a(c-sq_addafter.o)
 .comment       0x00000000       0x71 /media/data/coding/GSoC/AVT/px4+mavlink/Firmware/Build/px4io-v2_default.build/nuttx-export/libs/libnuttx.a(c-sq_addfirst.o)
 .comment       0x00000000       0x71 /media/data/coding/GSoC/AVT/px4+mavlink/Firmware/Build/px4io-v2_default.build/nuttx-export/libs/libnuttx.a(c-sq_addlast.o)
 .comment       0x00000000       0x71 /media/data/coding/GSoC/AVT/px4+mavlink/Firmware/Build/px4io-v2_default.build/nuttx-export/libs/libnuttx.a(c-sq_rem.o)
 .comment       0x00000000       0x71 /media/data/coding/GSoC/AVT/px4+mavlink/Firmware/Build/px4io-v2_default.build/nuttx-export/libs/libnuttx.a(mm-mm_calloc.o)
 .comment       0x00000000       0x71 /media/data/coding/GSoC/AVT/px4+mavlink/Firmware/Build/px4io-v2_default.build/nuttx-export/libs/libnuttx.a(mm-mm_free.o)
 .comment       0x00000000       0x71 /media/data/coding/GSoC/AVT/px4+mavlink/Firmware/Build/px4io-v2_default.build/nuttx-export/libs/libnuttx.a(mm-mm_mallinfo.o)
 .comment       0x00000000       0x71 /media/data/coding/GSoC/AVT/px4+mavlink/Firmware/Build/px4io-v2_default.build/nuttx-export/libs/libnuttx.a(mm-mm_malloc.o)
 .comment       0x00000000       0x71 /media/data/coding/GSoC/AVT/px4+mavlink/Firmware/Build/px4io-v2_default.build/nuttx-export/libs/libnuttx.a(mm-mm_sem.o)
 .comment       0x00000000       0x71 /media/data/coding/GSoC/AVT/px4+mavlink/Firmware/Build/px4io-v2_default.build/nuttx-export/libs/libnuttx.a(mm-mm_size2ndx.o)
 .comment       0x00000000       0x71 /media/data/coding/GSoC/AVT/px4+mavlink/Firmware/Build/px4io-v2_default.build/nuttx-export/libs/libnuttx.a(mm-mm_user.o)
 .comment       0x00000000       0x71 /media/data/coding/GSoC/AVT/px4+mavlink/Firmware/Build/px4io-v2_default.build/nuttx-export/libs/libnuttx.a(mm-mm_zalloc.o)
 .comment       0x00000000       0x71 /media/data/coding/GSoC/AVT/px4+mavlink/Firmware/Build/px4io-v2_default.build/nuttx-export/libs/libnuttx.a(arch-stm32_dma.o)
 .comment       0x00000000       0x71 /media/data/coding/GSoC/AVT/px4+mavlink/Firmware/Build/px4io-v2_default.build/nuttx-export/libs/libnuttx.a(arch-stm32_gpio.o)
 .comment       0x00000000       0x71 /media/data/coding/GSoC/AVT/px4+mavlink/Firmware/Build/px4io-v2_default.build/nuttx-export/libs/libnuttx.a(arch-stm32_irq.o)
 .comment       0x00000000       0x71 /media/data/coding/GSoC/AVT/px4+mavlink/Firmware/Build/px4io-v2_default.build/nuttx-export/libs/libnuttx.a(arch-stm32_serial.o)
 .comment       0x00000000       0x71 /media/data/coding/GSoC/AVT/px4+mavlink/Firmware/Build/px4io-v2_default.build/nuttx-export/libs/libnuttx.a(arch-stm32_start.o)
 .comment       0x00000000       0x71 /media/data/coding/GSoC/AVT/px4+mavlink/Firmware/Build/px4io-v2_default.build/nuttx-export/libs/libnuttx.a(arch-up_assert.o)
 .comment       0x00000000       0x71 /media/data/coding/GSoC/AVT/px4+mavlink/Firmware/Build/px4io-v2_default.build/nuttx-export/libs/libnuttx.a(arch-up_hardfault.o)
 .comment       0x00000000       0x71 /media/data/coding/GSoC/AVT/px4+mavlink/Firmware/Build/px4io-v2_default.build/nuttx-export/libs/libnuttx.a(arch-up_modifyreg32.o)
 .comment       0x00000000       0x71 /media/data/coding/GSoC/AVT/px4+mavlink/Firmware/Build/px4io-v2_default.build/nuttx-export/libs/libnuttx.a(arch-up_svcall.o)
 .comment       0x00000000       0x71 /media/data/coding/GSoC/AVT/px4+mavlink/Firmware/Build/px4io-v2_default.build/nuttx-export/libs/libnuttx.a(arch-up_udelay.o)
 .comment       0x00000000       0x71 /media/data/coding/GSoC/AVT/px4+mavlink/Firmware/Build/px4io-v2_default.build/nuttx-export/libs/libnuttx.a(arch-up_vectors.o)
 .comment       0x00000000       0x71 /media/data/coding/GSoC/AVT/px4+mavlink/Firmware/Build/px4io-v2_default.build/nuttx-export/libs/libnuttx.a(cxx-libxx_cxa_atexit.o)
 .comment       0x00000000       0x71 /media/data/coding/GSoC/AVT/px4+mavlink/Firmware/Build/px4io-v2_default.build/nuttx-export/libs/libnuttx.a(cxx-libxx_cxapurevirtual.o)
 .comment       0x00000000       0x71 /media/data/coding/GSoC/AVT/px4+mavlink/Firmware/Build/px4io-v2_default.build/nuttx-export/libs/libnuttx.a(cxx-libxx_delete.o)
 .comment       0x00000000       0x71 /media/data/coding/GSoC/AVT/px4+mavlink/Firmware/Build/px4io-v2_default.build/nuttx-export/libs/libnuttx.a(cxx-libxx_eabi_atexit.o)
 .comment       0x00000000       0x71 /media/data/coding/GSoC/AVT/px4+mavlink/Firmware/Build/px4io-v2_default.build/nuttx-export/libs/libnuttx.a(cxx-libxx_new.o)
 .comment       0x00000000       0x71 /media/data/coding/GSoC/AVT/px4+mavlink/Firmware/Build/px4io-v2_default.build/nuttx-export/libs/libnuttx.a(fs-fs_ioctl.o)
 .comment       0x00000000       0x71 /media/data/coding/GSoC/AVT/px4+mavlink/Firmware/Build/px4io-v2_default.build/nuttx-export/libs/libnuttx.a(fs-fs_open.o)
 .comment       0x00000000       0x71 /media/data/coding/GSoC/AVT/px4+mavlink/Firmware/Build/px4io-v2_default.build/nuttx-export/libs/libnuttx.a(fs-fs_read.o)
 .comment       0x00000000       0x71 /media/data/coding/GSoC/AVT/px4+mavlink/Firmware/Build/px4io-v2_default.build/nuttx-export/libs/libnuttx.a(fs-fs_write.o)
 .comment       0x00000000       0x71 /media/data/coding/GSoC/AVT/px4+mavlink/Firmware/Build/px4io-v2_default.build/nuttx-export/libs/libnuttx.a(drivers-serialirq.o)
 .comment       0x00000000       0x71 /media/data/coding/GSoC/AVT/px4+mavlink/Firmware/Build/px4io-v2_default.build/nuttx-export/libs/libnuttx.a(drivers-serial.o)
 .comment       0x00000000       0x71 /media/data/coding/GSoC/AVT/px4+mavlink/Firmware/Build/px4io-v2_default.build/nuttx-export/libs/libnuttx.a(sched-errno_getptr.o)
 .comment       0x00000000       0x71 /media/data/coding/GSoC/AVT/px4+mavlink/Firmware/Build/px4io-v2_default.build/nuttx-export/libs/libnuttx.a(sched-exit.o)
 .comment       0x00000000       0x71 /media/data/coding/GSoC/AVT/px4+mavlink/Firmware/Build/px4io-v2_default.build/nuttx-export/libs/libnuttx.a(sched-getpid.o)
 .comment       0x00000000       0x71 /media/data/coding/GSoC/AVT/px4+mavlink/Firmware/Build/px4io-v2_default.build/nuttx-export/libs/libnuttx.a(sched-os_start.o)
 .comment       0x00000000       0x71 /media/data/coding/GSoC/AVT/px4+mavlink/Firmware/Build/px4io-v2_default.build/nuttx-export/libs/libnuttx.a(sched-sched_garbage.o)
 .comment       0x00000000       0x71 /media/data/coding/GSoC/AVT/px4+mavlink/Firmware/Build/px4io-v2_default.build/nuttx-export/libs/libnuttx.a(sched-sched_getfiles.o)
 .comment       0x00000000       0x71 /media/data/coding/GSoC/AVT/px4+mavlink/Firmware/Build/px4io-v2_default.build/nuttx-export/libs/libnuttx.a(sched-sem_post.o)
 .comment       0x00000000       0x71 /media/data/coding/GSoC/AVT/px4+mavlink/Firmware/Build/px4io-v2_default.build/nuttx-export/libs/libnuttx.a(sched-sem_trywait.o)
 .comment       0x00000000       0x71 /media/data/coding/GSoC/AVT/px4+mavlink/Firmware/Build/px4io-v2_default.build/nuttx-export/libs/libnuttx.a(sched-sem_wait.o)
 .comment       0x00000000       0x71 /media/data/coding/GSoC/AVT/px4+mavlink/Firmware/Build/px4io-v2_default.build/nuttx-export/libs/libnuttx.a(sched-task_exithook.o)
 .comment       0x00000000       0x71 /media/data/coding/GSoC/AVT/px4+mavlink/Firmware/Build/px4io-v2_default.build/nuttx-export/libs/libnuttx.a(sched-task_recover.o)
 .comment       0x00000000       0x71 /media/data/coding/GSoC/AVT/px4+mavlink/Firmware/Build/px4io-v2_default.build/nuttx-export/libs/libnuttx.a(sched-wd_cancel.o)
 .comment       0x00000000       0x71 /media/data/coding/GSoC/AVT/px4+mavlink/Firmware/Build/px4io-v2_default.build/nuttx-export/libs/libnuttx.a(sched-wd_delete.o)
 .comment       0x00000000       0x71 /media/data/coding/GSoC/AVT/px4+mavlink/Firmware/Build/px4io-v2_default.build/nuttx-export/libs/libnuttx.a(sched-wd_initialize.o)
 .comment       0x00000000       0x71 /media/data/coding/GSoC/AVT/px4+mavlink/Firmware/Build/px4io-v2_default.build/nuttx-export/libs/libnuttx.a(c-dq_addfirst.o)
 .comment       0x00000000       0x71 /media/data/coding/GSoC/AVT/px4+mavlink/Firmware/Build/px4io-v2_default.build/nuttx-export/libs/libnuttx.a(c-lib_cfgetspeed.o)
 .comment       0x00000000       0x71 /media/data/coding/GSoC/AVT/px4+mavlink/Firmware/Build/px4io-v2_default.build/nuttx-export/libs/libnuttx.a(c-lib_checkbase.o)
 .comment       0x00000000       0x71 /media/data/coding/GSoC/AVT/px4+mavlink/Firmware/Build/px4io-v2_default.build/nuttx-export/libs/libnuttx.a(c-lib_isbasedigit.o)
 .comment       0x00000000       0x71 /media/data/coding/GSoC/AVT/px4+mavlink/Firmware/Build/px4io-v2_default.build/nuttx-export/libs/libnuttx.a(c-lib_libvsprintf.o)
 .comment       0x00000000       0x71 /media/data/coding/GSoC/AVT/px4+mavlink/Firmware/Build/px4io-v2_default.build/nuttx-export/libs/libnuttx.a(c-lib_lowoutstream.o)
 .comment       0x00000000       0x71 /media/data/coding/GSoC/AVT/px4+mavlink/Firmware/Build/px4io-v2_default.build/nuttx-export/libs/libnuttx.a(c-lib_memoutstream.o)
 .comment       0x00000000       0x71 /media/data/coding/GSoC/AVT/px4+mavlink/Firmware/Build/px4io-v2_default.build/nuttx-export/libs/libnuttx.a(c-lib_nulloutstream.o)
 .comment       0x00000000       0x71 /media/data/coding/GSoC/AVT/px4+mavlink/Firmware/Build/px4io-v2_default.build/nuttx-export/libs/libnuttx.a(c-lib_rawoutstream.o)
 .comment       0x00000000       0x71 /media/data/coding/GSoC/AVT/px4+mavlink/Firmware/Build/px4io-v2_default.build/nuttx-export/libs/libnuttx.a(c-lib_skipspace.o)
 .comment       0x00000000       0x71 /media/data/coding/GSoC/AVT/px4+mavlink/Firmware/Build/px4io-v2_default.build/nuttx-export/libs/libnuttx.a(c-lib_strlen.o)
 .comment       0x00000000       0x71 /media/data/coding/GSoC/AVT/px4+mavlink/Firmware/Build/px4io-v2_default.build/nuttx-export/libs/libnuttx.a(c-sem_init.o)
 .comment       0x00000000       0x71 /media/data/coding/GSoC/AVT/px4+mavlink/Firmware/Build/px4io-v2_default.build/nuttx-export/libs/libnuttx.a(c-sq_remafter.o)
 .comment       0x00000000       0x71 /media/data/coding/GSoC/AVT/px4+mavlink/Firmware/Build/px4io-v2_default.build/nuttx-export/libs/libnuttx.a(c-sq_remfirst.o)
 .comment       0x00000000       0x71 /media/data/coding/GSoC/AVT/px4+mavlink/Firmware/Build/px4io-v2_default.build/nuttx-export/libs/libnuttx.a(mm-mm_addfreechunk.o)
 .comment       0x00000000       0x71 /media/data/coding/GSoC/AVT/px4+mavlink/Firmware/Build/px4io-v2_default.build/nuttx-export/libs/libnuttx.a(mm-mm_initialize.o)
 .comment       0x00000000       0x71 /media/data/coding/GSoC/AVT/px4+mavlink/Firmware/Build/px4io-v2_default.build/nuttx-export/libs/libnuttx.a(arch-stm32_allocateheap.o)
 .comment       0x00000000       0x71 /media/data/coding/GSoC/AVT/px4+mavlink/Firmware/Build/px4io-v2_default.build/nuttx-export/libs/libnuttx.a(arch-stm32_idle.o)
 .comment       0x00000000       0x71 /media/data/coding/GSoC/AVT/px4+mavlink/Firmware/Build/px4io-v2_default.build/nuttx-export/libs/libnuttx.a(arch-stm32_lowputc.o)
 .comment       0x00000000       0x71 /media/data/coding/GSoC/AVT/px4+mavlink/Firmware/Build/px4io-v2_default.build/nuttx-export/libs/libnuttx.a(arch-stm32_rcc.o)
 .comment       0x00000000       0x71 /media/data/coding/GSoC/AVT/px4+mavlink/Firmware/Build/px4io-v2_default.build/nuttx-export/libs/libnuttx.a(arch-up_blocktask.o)
 .comment       0x00000000       0x71 /media/data/coding/GSoC/AVT/px4+mavlink/Firmware/Build/px4io-v2_default.build/nuttx-export/libs/libnuttx.a(arch-up_copystate.o)
 .comment       0x00000000       0x71 /media/data/coding/GSoC/AVT/px4+mavlink/Firmware/Build/px4io-v2_default.build/nuttx-export/libs/libnuttx.a(arch-up_exit.o)
 .comment       0x00000000       0x71 /media/data/coding/GSoC/AVT/px4+mavlink/Firmware/Build/px4io-v2_default.build/nuttx-export/libs/libnuttx.a(arch-up_initialize.o)
 .comment       0x00000000       0x71 /media/data/coding/GSoC/AVT/px4+mavlink/Firmware/Build/px4io-v2_default.build/nuttx-export/libs/libnuttx.a(arch-up_initialstate.o)
 .comment       0x00000000       0x71 /media/data/coding/GSoC/AVT/px4+mavlink/Firmware/Build/px4io-v2_default.build/nuttx-export/libs/libnuttx.a(arch-up_interruptcontext.o)
 .comment       0x00000000       0x71 /media/data/coding/GSoC/AVT/px4+mavlink/Firmware/Build/px4io-v2_default.build/nuttx-export/libs/libnuttx.a(arch-up_mdelay.o)
 .comment       0x00000000       0x71 /media/data/coding/GSoC/AVT/px4+mavlink/Firmware/Build/px4io-v2_default.build/nuttx-export/libs/libnuttx.a(arch-up_unblocktask.o)
 .comment       0x00000000       0x71 /media/data/coding/GSoC/AVT/px4+mavlink/Firmware/Build/px4io-v2_default.build/nuttx-export/libs/libnuttx.a(fs-fs_files.o)
 .comment       0x00000000       0x71 /media/data/coding/GSoC/AVT/px4+mavlink/Firmware/Build/px4io-v2_default.build/nuttx-export/libs/libnuttx.a(fs-fs_inodeaddref.o)
 .comment       0x00000000       0x71 /media/data/coding/GSoC/AVT/px4+mavlink/Firmware/Build/px4io-v2_default.build/nuttx-export/libs/libnuttx.a(fs-fs_inodefind.o)
 .comment       0x00000000       0x71 /media/data/coding/GSoC/AVT/px4+mavlink/Firmware/Build/px4io-v2_default.build/nuttx-export/libs/libnuttx.a(fs-fs_inode.o)
 .comment       0x00000000       0x71 /media/data/coding/GSoC/AVT/px4+mavlink/Firmware/Build/px4io-v2_default.build/nuttx-export/libs/libnuttx.a(fs-fs_inoderelease.o)
 .comment       0x00000000       0x71 /media/data/coding/GSoC/AVT/px4+mavlink/Firmware/Build/px4io-v2_default.build/nuttx-export/libs/libnuttx.a(fs-fs_registerdriver.o)
 .comment       0x00000000       0x71 /media/data/coding/GSoC/AVT/px4+mavlink/Firmware/Build/px4io-v2_default.build/nuttx-export/libs/libnuttx.a(sched-group_create.o)
 .comment       0x00000000       0x71 /media/data/coding/GSoC/AVT/px4+mavlink/Firmware/Build/px4io-v2_default.build/nuttx-export/libs/libnuttx.a(sched-group_leave.o)
 .comment       0x00000000       0x71 /media/data/coding/GSoC/AVT/px4+mavlink/Firmware/Build/px4io-v2_default.build/nuttx-export/libs/libnuttx.a(sched-group_setupidlefiles.o)
 .comment       0x00000000       0x71 /media/data/coding/GSoC/AVT/px4+mavlink/Firmware/Build/px4io-v2_default.build/nuttx-export/libs/libnuttx.a(sched-os_bringup.o)
 .comment       0x00000000       0x71 /media/data/coding/GSoC/AVT/px4+mavlink/Firmware/Build/px4io-v2_default.build/nuttx-export/libs/libnuttx.a(sched-sched_addblocked.o)
 .comment       0x00000000       0x71 /media/data/coding/GSoC/AVT/px4+mavlink/Firmware/Build/px4io-v2_default.build/nuttx-export/libs/libnuttx.a(sched-sched_addprioritized.o)
 .comment       0x00000000       0x71 /media/data/coding/GSoC/AVT/px4+mavlink/Firmware/Build/px4io-v2_default.build/nuttx-export/libs/libnuttx.a(sched-sched_addreadytorun.o)
 .comment       0x00000000       0x71 /media/data/coding/GSoC/AVT/px4+mavlink/Firmware/Build/px4io-v2_default.build/nuttx-export/libs/libnuttx.a(sched-sched_free.o)
 .comment       0x00000000       0x71 /media/data/coding/GSoC/AVT/px4+mavlink/Firmware/Build/px4io-v2_default.build/nuttx-export/libs/libnuttx.a(sched-sched_mergepending.o)
 .comment       0x00000000       0x71 /media/data/coding/GSoC/AVT/px4+mavlink/Firmware/Build/px4io-v2_default.build/nuttx-export/libs/libnuttx.a(sched-sched_removeblocked.o)
 .comment       0x00000000       0x71 /media/data/coding/GSoC/AVT/px4+mavlink/Firmware/Build/px4io-v2_default.build/nuttx-export/libs/libnuttx.a(sched-sched_removereadytorun.o)
 .comment       0x00000000       0x71 /media/data/coding/GSoC/AVT/px4+mavlink/Firmware/Build/px4io-v2_default.build/nuttx-export/libs/libnuttx.a(sched-sem_destroy.o)
 .comment       0x00000000       0x71 /media/data/coding/GSoC/AVT/px4+mavlink/Firmware/Build/px4io-v2_default.build/nuttx-export/libs/libnuttx.a(sched-task_create.o)
 .comment       0x00000000       0x71 /media/data/coding/GSoC/AVT/px4+mavlink/Firmware/Build/px4io-v2_default.build/nuttx-export/libs/libnuttx.a(sched-task_exit.o)
 .comment       0x00000000       0x71 /media/data/coding/GSoC/AVT/px4+mavlink/Firmware/Build/px4io-v2_default.build/nuttx-export/libs/libnuttx.a(sched-task_setup.o)
 .comment       0x00000000       0x71 /media/data/coding/GSoC/AVT/px4+mavlink/Firmware/Build/px4io-v2_default.build/nuttx-export/libs/libnuttx.a(sched-task_start.o)
 .comment       0x00000000       0x71 /media/data/coding/GSoC/AVT/px4+mavlink/Firmware/Build/px4io-v2_default.build/nuttx-export/libs/libnuttx.a(sched-task_terminate.o)
 .comment       0x00000000       0x71 /media/data/coding/GSoC/AVT/px4+mavlink/Firmware/Build/px4io-v2_default.build/nuttx-export/libs/libnuttx.a(c-dq_addlast.o)
 .comment       0x00000000       0x71 /media/data/coding/GSoC/AVT/px4+mavlink/Firmware/Build/px4io-v2_default.build/nuttx-export/libs/libnuttx.a(c-dq_rem.o)
 .comment       0x00000000       0x71 /media/data/coding/GSoC/AVT/px4+mavlink/Firmware/Build/px4io-v2_default.build/nuttx-export/libs/libnuttx.a(c-lib_strdup.o)
 .comment       0x00000000       0x71 /media/data/coding/GSoC/AVT/px4+mavlink/Firmware/Build/px4io-v2_default.build/nuttx-export/libs/libnuttx.a(arch-stm32_timerisr.o)
 .comment       0x00000000       0x71 /media/data/coding/GSoC/AVT/px4+mavlink/Firmware/Build/px4io-v2_default.build/nuttx-export/libs/libnuttx.a(arch-up_createstack.o)
 .comment       0x00000000       0x71 /media/data/coding/GSoC/AVT/px4+mavlink/Firmware/Build/px4io-v2_default.build/nuttx-export/libs/libnuttx.a(arch-up_doirq.o)
 .comment       0x00000000       0x71 /media/data/coding/GSoC/AVT/px4+mavlink/Firmware/Build/px4io-v2_default.build/nuttx-export/libs/libnuttx.a(arch-up_releasestack.o)
 .comment       0x00000000       0x71 /media/data/coding/GSoC/AVT/px4+mavlink/Firmware/Build/px4io-v2_default.build/nuttx-export/libs/libnuttx.a(fs-fs_close.o)
 .comment       0x00000000       0x71 /media/data/coding/GSoC/AVT/px4+mavlink/Firmware/Build/px4io-v2_default.build/nuttx-export/libs/libnuttx.a(fs-fs_filedup2.o)
 .comment       0x00000000       0x71 /media/data/coding/GSoC/AVT/px4+mavlink/Firmware/Build/px4io-v2_default.build/nuttx-export/libs/libnuttx.a(fs-fs_inodereserve.o)
 .comment       0x00000000       0x71 /media/data/coding/GSoC/AVT/px4+mavlink/Firmware/Build/px4io-v2_default.build/nuttx-export/libs/libnuttx.a(sched-group_setuptaskfiles.o)
 .comment       0x00000000       0x71 /media/data/coding/GSoC/AVT/px4+mavlink/Firmware/Build/px4io-v2_default.build/nuttx-export/libs/libnuttx.a(sched-irq_dispatch.o)
 .comment       0x00000000       0x71 /media/data/coding/GSoC/AVT/px4+mavlink/Firmware/Build/px4io-v2_default.build/nuttx-export/libs/libnuttx.a(sched-sched_gettcb.o)
 .comment       0x00000000       0x71 /media/data/coding/GSoC/AVT/px4+mavlink/Firmware/Build/px4io-v2_default.build/nuttx-export/libs/libnuttx.a(sched-sched_lock.o)
 .comment       0x00000000       0x71 /media/data/coding/GSoC/AVT/px4+mavlink/Firmware/Build/px4io-v2_default.build/nuttx-export/libs/libnuttx.a(sched-sched_processtimer.o)
 .comment       0x00000000       0x71 /media/data/coding/GSoC/AVT/px4+mavlink/Firmware/Build/px4io-v2_default.build/nuttx-export/libs/libnuttx.a(sched-sched_releasetcb.o)
 .comment       0x00000000       0x71 /media/data/coding/GSoC/AVT/px4+mavlink/Firmware/Build/px4io-v2_default.build/nuttx-export/libs/libnuttx.a(sched-sched_unlock.o)
 .comment       0x00000000       0x71 /media/data/coding/GSoC/AVT/px4+mavlink/Firmware/Build/px4io-v2_default.build/nuttx-export/libs/libnuttx.a(sched-task_activate.o)
 .comment       0x00000000       0x71 /media/data/coding/GSoC/AVT/px4+mavlink/Firmware/Build/px4io-v2_default.build/nuttx-export/libs/libnuttx.a(c-lib_strcpy.o)
 .comment       0x00000000       0x71 /media/data/coding/GSoC/AVT/px4+mavlink/Firmware/Build/px4io-v2_default.build/nuttx-export/libs/libnuttx.a(arch-up_releasepending.o)

.ARM.attributes
                0x00000000       0x31
 .ARM.attributes
                0x00000000       0x2f /media/data/coding/GSoC/AVT/px4+mavlink/Firmware/Build/px4io-v2_default.build//media/data/coding/GSoC/AVT/px4+mavlink/Firmware/Build/px4io-v2_default.build/empty.c.o
 .ARM.attributes
                0x0000002f       0x2f /media/data/coding/GSoC/AVT/px4+mavlink/Firmware/Build/px4io-v2_default.build//media/data/coding/GSoC/AVT/px4+mavlink/Firmware/src/drivers/boards/px4io-v2/module.pre.o
 .ARM.attributes
                0x0000005e       0x2f /media/data/coding/GSoC/AVT/px4+mavlink/Firmware/Build/px4io-v2_default.build//media/data/coding/GSoC/AVT/px4+mavlink/Firmware/src/drivers/stm32/module.pre.o
 .ARM.attributes
                0x0000008d       0x2f /media/data/coding/GSoC/AVT/px4+mavlink/Firmware/Build/px4io-v2_default.build//media/data/coding/GSoC/AVT/px4+mavlink/Firmware/src/modules/px4iofirmware/module.pre.o
 .ARM.attributes
                0x000000bc       0x2f /media/data/coding/GSoC/AVT/px4+mavlink/Firmware/Build/px4io-v2_default.build/nuttx-export/libs/libnuttx.a(sched-irq_attach.o)
 .ARM.attributes
                0x000000eb       0x2f /media/data/coding/GSoC/AVT/px4+mavlink/Firmware/Build/px4io-v2_default.build/nuttx-export/libs/libnuttx.a(sched-irq_initialize.o)
 .ARM.attributes
                0x0000011a       0x2f /media/data/coding/GSoC/AVT/px4+mavlink/Firmware/Build/px4io-v2_default.build/nuttx-export/libs/libnuttx.a(sched-irq_unexpectedisr.o)
 .ARM.attributes
                0x00000149       0x2f /media/data/coding/GSoC/AVT/px4+mavlink/Firmware/Build/px4io-v2_default.build/nuttx-export/libs/libnuttx.a(c-lib_abort.o)
 .ARM.attributes
                0x00000178       0x2f /media/data/coding/GSoC/AVT/px4+mavlink/Firmware/Build/px4io-v2_default.build/nuttx-export/libs/libnuttx.a(c-lib_cfsetspeed.o)
 .ARM.attributes
                0x000001a7       0x2f /media/data/coding/GSoC/AVT/px4+mavlink/Firmware/Build/px4io-v2_default.build/nuttx-export/libs/libnuttx.a(c-lib_crc32.o)
 .ARM.attributes
                0x000001d6       0x2f /media/data/coding/GSoC/AVT/px4+mavlink/Firmware/Build/px4io-v2_default.build/nuttx-export/libs/libnuttx.a(c-lib_lowsyslog.o)
 .ARM.attributes
                0x00000205       0x2f /media/data/coding/GSoC/AVT/px4+mavlink/Firmware/Build/px4io-v2_default.build/nuttx-export/libs/libnuttx.a(c-lib_memchr.o)
 .ARM.attributes
                0x00000234       0x2f /media/data/coding/GSoC/AVT/px4+mavlink/Firmware/Build/px4io-v2_default.build/nuttx-export/libs/libnuttx.a(c-lib_memcpy.o)
 .ARM.attributes
                0x00000263       0x2f /media/data/coding/GSoC/AVT/px4+mavlink/Firmware/Build/px4io-v2_default.build/nuttx-export/libs/libnuttx.a(c-lib_memset.o)
 .ARM.attributes
                0x00000292       0x2f /media/data/coding/GSoC/AVT/px4+mavlink/Firmware/Build/px4io-v2_default.build/nuttx-export/libs/libnuttx.a(c-lib_printf.o)
 .ARM.attributes
                0x000002c1       0x2f /media/data/coding/GSoC/AVT/px4+mavlink/Firmware/Build/px4io-v2_default.build/nuttx-export/libs/libnuttx.a(c-lib_sscanf.o)
 .ARM.attributes
                0x000002f0       0x2f /media/data/coding/GSoC/AVT/px4+mavlink/Firmware/Build/px4io-v2_default.build/nuttx-export/libs/libnuttx.a(c-lib_strchr.o)
 .ARM.attributes
                0x0000031f       0x2f /media/data/coding/GSoC/AVT/px4+mavlink/Firmware/Build/px4io-v2_default.build/nuttx-export/libs/libnuttx.a(c-lib_strcmp.o)
 .ARM.attributes
                0x0000034e       0x2f /media/data/coding/GSoC/AVT/px4+mavlink/Firmware/Build/px4io-v2_default.build/nuttx-export/libs/libnuttx.a(c-lib_strcspn.o)
 .ARM.attributes
                0x0000037d       0x2f /media/data/coding/GSoC/AVT/px4+mavlink/Firmware/Build/px4io-v2_default.build/nuttx-export/libs/libnuttx.a(c-lib_strncpy.o)
 .ARM.attributes
                0x000003ac       0x2f /media/data/coding/GSoC/AVT/px4+mavlink/Firmware/Build/px4io-v2_default.build/nuttx-export/libs/libnuttx.a(c-lib_strtol.o)
 .ARM.attributes
                0x000003db       0x2f /media/data/coding/GSoC/AVT/px4+mavlink/Firmware/Build/px4io-v2_default.build/nuttx-export/libs/libnuttx.a(c-lib_strtoul.o)
 .ARM.attributes
                0x0000040a       0x2f /media/data/coding/GSoC/AVT/px4+mavlink/Firmware/Build/px4io-v2_default.build/nuttx-export/libs/libnuttx.a(c-lib_syslog.o)
 .ARM.attributes
                0x00000439       0x2f /media/data/coding/GSoC/AVT/px4+mavlink/Firmware/Build/px4io-v2_default.build/nuttx-export/libs/libnuttx.a(c-lib_tcgetattr.o)
 .ARM.attributes
                0x00000468       0x2f /media/data/coding/GSoC/AVT/px4+mavlink/Firmware/Build/px4io-v2_default.build/nuttx-export/libs/libnuttx.a(c-lib_tcsetattr.o)
 .ARM.attributes
                0x00000497       0x2f /media/data/coding/GSoC/AVT/px4+mavlink/Firmware/Build/px4io-v2_default.build/nuttx-export/libs/libnuttx.a(c-lib_vsnprintf.o)
 .ARM.attributes
                0x000004c6       0x2f /media/data/coding/GSoC/AVT/px4+mavlink/Firmware/Build/px4io-v2_default.build/nuttx-export/libs/libnuttx.a(c-sq_addafter.o)
 .ARM.attributes
                0x000004f5       0x2f /media/data/coding/GSoC/AVT/px4+mavlink/Firmware/Build/px4io-v2_default.build/nuttx-export/libs/libnuttx.a(c-sq_addfirst.o)
 .ARM.attributes
                0x00000524       0x2f /media/data/coding/GSoC/AVT/px4+mavlink/Firmware/Build/px4io-v2_default.build/nuttx-export/libs/libnuttx.a(c-sq_addlast.o)
 .ARM.attributes
                0x00000553       0x2f /media/data/coding/GSoC/AVT/px4+mavlink/Firmware/Build/px4io-v2_default.build/nuttx-export/libs/libnuttx.a(c-sq_rem.o)
 .ARM.attributes
                0x00000582       0x2f /media/data/coding/GSoC/AVT/px4+mavlink/Firmware/Build/px4io-v2_default.build/nuttx-export/libs/libnuttx.a(mm-mm_calloc.o)
 .ARM.attributes
                0x000005b1       0x2f /media/data/coding/GSoC/AVT/px4+mavlink/Firmware/Build/px4io-v2_default.build/nuttx-export/libs/libnuttx.a(mm-mm_free.o)
 .ARM.attributes
                0x000005e0       0x2f /media/data/coding/GSoC/AVT/px4+mavlink/Firmware/Build/px4io-v2_default.build/nuttx-export/libs/libnuttx.a(mm-mm_mallinfo.o)
 .ARM.attributes
                0x0000060f       0x2f /media/data/coding/GSoC/AVT/px4+mavlink/Firmware/Build/px4io-v2_default.build/nuttx-export/libs/libnuttx.a(mm-mm_malloc.o)
 .ARM.attributes
                0x0000063e       0x2f /media/data/coding/GSoC/AVT/px4+mavlink/Firmware/Build/px4io-v2_default.build/nuttx-export/libs/libnuttx.a(mm-mm_sem.o)
 .ARM.attributes
                0x0000066d       0x2f /media/data/coding/GSoC/AVT/px4+mavlink/Firmware/Build/px4io-v2_default.build/nuttx-export/libs/libnuttx.a(mm-mm_size2ndx.o)
 .ARM.attributes
                0x0000069c       0x2f /media/data/coding/GSoC/AVT/px4+mavlink/Firmware/Build/px4io-v2_default.build/nuttx-export/libs/libnuttx.a(mm-mm_user.o)
 .ARM.attributes
                0x000006cb       0x2f /media/data/coding/GSoC/AVT/px4+mavlink/Firmware/Build/px4io-v2_default.build/nuttx-export/libs/libnuttx.a(mm-mm_zalloc.o)
 .ARM.attributes
                0x000006fa       0x2f /media/data/coding/GSoC/AVT/px4+mavlink/Firmware/Build/px4io-v2_default.build/nuttx-export/libs/libnuttx.a(arch-stm32_dma.o)
 .ARM.attributes
                0x00000729       0x2f /media/data/coding/GSoC/AVT/px4+mavlink/Firmware/Build/px4io-v2_default.build/nuttx-export/libs/libnuttx.a(arch-stm32_gpio.o)
 .ARM.attributes
                0x00000758       0x2f /media/data/coding/GSoC/AVT/px4+mavlink/Firmware/Build/px4io-v2_default.build/nuttx-export/libs/libnuttx.a(arch-stm32_irq.o)
 .ARM.attributes
                0x00000787       0x2f /media/data/coding/GSoC/AVT/px4+mavlink/Firmware/Build/px4io-v2_default.build/nuttx-export/libs/libnuttx.a(arch-stm32_serial.o)
 .ARM.attributes
                0x000007b6       0x2f /media/data/coding/GSoC/AVT/px4+mavlink/Firmware/Build/px4io-v2_default.build/nuttx-export/libs/libnuttx.a(arch-stm32_start.o)
 .ARM.attributes
                0x000007e5       0x2f /media/data/coding/GSoC/AVT/px4+mavlink/Firmware/Build/px4io-v2_default.build/nuttx-export/libs/libnuttx.a(arch-up_assert.o)
 .ARM.attributes
                0x00000814       0x2f /media/data/coding/GSoC/AVT/px4+mavlink/Firmware/Build/px4io-v2_default.build/nuttx-export/libs/libnuttx.a(arch-up_hardfault.o)
 .ARM.attributes
                0x00000843       0x2f /media/data/coding/GSoC/AVT/px4+mavlink/Firmware/Build/px4io-v2_default.build/nuttx-export/libs/libnuttx.a(arch-up_modifyreg32.o)
 .ARM.attributes
                0x00000872       0x2f /media/data/coding/GSoC/AVT/px4+mavlink/Firmware/Build/px4io-v2_default.build/nuttx-export/libs/libnuttx.a(arch-up_svcall.o)
 .ARM.attributes
                0x000008a1       0x2f /media/data/coding/GSoC/AVT/px4+mavlink/Firmware/Build/px4io-v2_default.build/nuttx-export/libs/libnuttx.a(arch-up_udelay.o)
 .ARM.attributes
                0x000008d0       0x2f /media/data/coding/GSoC/AVT/px4+mavlink/Firmware/Build/px4io-v2_default.build/nuttx-export/libs/libnuttx.a(arch-up_vectors.o)
 .ARM.attributes
                0x000008ff       0x2f /media/data/coding/GSoC/AVT/px4+mavlink/Firmware/Build/px4io-v2_default.build/nuttx-export/libs/libnuttx.a(cxx-libxx_cxa_atexit.o)
 .ARM.attributes
                0x0000092e       0x2f /media/data/coding/GSoC/AVT/px4+mavlink/Firmware/Build/px4io-v2_default.build/nuttx-export/libs/libnuttx.a(cxx-libxx_cxapurevirtual.o)
 .ARM.attributes
                0x0000095d       0x2f /media/data/coding/GSoC/AVT/px4+mavlink/Firmware/Build/px4io-v2_default.build/nuttx-export/libs/libnuttx.a(cxx-libxx_delete.o)
 .ARM.attributes
                0x0000098c       0x2f /media/data/coding/GSoC/AVT/px4+mavlink/Firmware/Build/px4io-v2_default.build/nuttx-export/libs/libnuttx.a(cxx-libxx_eabi_atexit.o)
 .ARM.attributes
                0x000009bb       0x2f /media/data/coding/GSoC/AVT/px4+mavlink/Firmware/Build/px4io-v2_default.build/nuttx-export/libs/libnuttx.a(cxx-libxx_new.o)
 .ARM.attributes
                0x000009ea       0x2f /media/data/coding/GSoC/AVT/px4+mavlink/Firmware/Build/px4io-v2_default.build/nuttx-export/libs/libnuttx.a(fs-fs_ioctl.o)
 .ARM.attributes
                0x00000a19       0x2f /media/data/coding/GSoC/AVT/px4+mavlink/Firmware/Build/px4io-v2_default.build/nuttx-export/libs/libnuttx.a(fs-fs_open.o)
 .ARM.attributes
                0x00000a48       0x2f /media/data/coding/GSoC/AVT/px4+mavlink/Firmware/Build/px4io-v2_default.build/nuttx-export/libs/libnuttx.a(fs-fs_read.o)
 .ARM.attributes
                0x00000a77       0x2f /media/data/coding/GSoC/AVT/px4+mavlink/Firmware/Build/px4io-v2_default.build/nuttx-export/libs/libnuttx.a(fs-fs_write.o)
 .ARM.attributes
                0x00000aa6       0x2f /media/data/coding/GSoC/AVT/px4+mavlink/Firmware/Build/px4io-v2_default.build/nuttx-export/libs/libnuttx.a(drivers-serialirq.o)
 .ARM.attributes
                0x00000ad5       0x2f /media/data/coding/GSoC/AVT/px4+mavlink/Firmware/Build/px4io-v2_default.build/nuttx-export/libs/libnuttx.a(drivers-serial.o)
 .ARM.attributes
                0x00000b04       0x2f /media/data/coding/GSoC/AVT/px4+mavlink/Firmware/Build/px4io-v2_default.build/nuttx-export/libs/libnuttx.a(sched-errno_getptr.o)
 .ARM.attributes
                0x00000b33       0x2f /media/data/coding/GSoC/AVT/px4+mavlink/Firmware/Build/px4io-v2_default.build/nuttx-export/libs/libnuttx.a(sched-exit.o)
 .ARM.attributes
                0x00000b62       0x2f /media/data/coding/GSoC/AVT/px4+mavlink/Firmware/Build/px4io-v2_default.build/nuttx-export/libs/libnuttx.a(sched-getpid.o)
 .ARM.attributes
                0x00000b91       0x2f /media/data/coding/GSoC/AVT/px4+mavlink/Firmware/Build/px4io-v2_default.build/nuttx-export/libs/libnuttx.a(sched-os_start.o)
 .ARM.attributes
                0x00000bc0       0x2f /media/data/coding/GSoC/AVT/px4+mavlink/Firmware/Build/px4io-v2_default.build/nuttx-export/libs/libnuttx.a(sched-sched_garbage.o)
 .ARM.attributes
                0x00000bef       0x2f /media/data/coding/GSoC/AVT/px4+mavlink/Firmware/Build/px4io-v2_default.build/nuttx-export/libs/libnuttx.a(sched-sched_getfiles.o)
 .ARM.attributes
                0x00000c1e       0x2f /media/data/coding/GSoC/AVT/px4+mavlink/Firmware/Build/px4io-v2_default.build/nuttx-export/libs/libnuttx.a(sched-sem_post.o)
 .ARM.attributes
                0x00000c4d       0x2f /media/data/coding/GSoC/AVT/px4+mavlink/Firmware/Build/px4io-v2_default.build/nuttx-export/libs/libnuttx.a(sched-sem_trywait.o)
 .ARM.attributes
                0x00000c7c       0x2f /media/data/coding/GSoC/AVT/px4+mavlink/Firmware/Build/px4io-v2_default.build/nuttx-export/libs/libnuttx.a(sched-sem_wait.o)
 .ARM.attributes
                0x00000cab       0x2f /media/data/coding/GSoC/AVT/px4+mavlink/Firmware/Build/px4io-v2_default.build/nuttx-export/libs/libnuttx.a(sched-task_exithook.o)
 .ARM.attributes
                0x00000cda       0x2f /media/data/coding/GSoC/AVT/px4+mavlink/Firmware/Build/px4io-v2_default.build/nuttx-export/libs/libnuttx.a(sched-task_recover.o)
 .ARM.attributes
                0x00000d09       0x2f /media/data/coding/GSoC/AVT/px4+mavlink/Firmware/Build/px4io-v2_default.build/nuttx-export/libs/libnuttx.a(sched-wd_cancel.o)
 .ARM.attributes
                0x00000d38       0x2f /media/data/coding/GSoC/AVT/px4+mavlink/Firmware/Build/px4io-v2_default.build/nuttx-export/libs/libnuttx.a(sched-wd_delete.o)
 .ARM.attributes
                0x00000d67       0x2f /media/data/coding/GSoC/AVT/px4+mavlink/Firmware/Build/px4io-v2_default.build/nuttx-export/libs/libnuttx.a(sched-wd_initialize.o)
 .ARM.attributes
                0x00000d96       0x2f /media/data/coding/GSoC/AVT/px4+mavlink/Firmware/Build/px4io-v2_default.build/nuttx-export/libs/libnuttx.a(c-dq_addfirst.o)
 .ARM.attributes
                0x00000dc5       0x2f /media/data/coding/GSoC/AVT/px4+mavlink/Firmware/Build/px4io-v2_default.build/nuttx-export/libs/libnuttx.a(c-lib_cfgetspeed.o)
 .ARM.attributes
                0x00000df4       0x2f /media/data/coding/GSoC/AVT/px4+mavlink/Firmware/Build/px4io-v2_default.build/nuttx-export/libs/libnuttx.a(c-lib_checkbase.o)
 .ARM.attributes
                0x00000e23       0x2f /media/data/coding/GSoC/AVT/px4+mavlink/Firmware/Build/px4io-v2_default.build/nuttx-export/libs/libnuttx.a(c-lib_isbasedigit.o)
 .ARM.attributes
                0x00000e52       0x2f /media/data/coding/GSoC/AVT/px4+mavlink/Firmware/Build/px4io-v2_default.build/nuttx-export/libs/libnuttx.a(c-lib_libvsprintf.o)
 .ARM.attributes
                0x00000e81       0x2f /media/data/coding/GSoC/AVT/px4+mavlink/Firmware/Build/px4io-v2_default.build/nuttx-export/libs/libnuttx.a(c-lib_lowoutstream.o)
 .ARM.attributes
                0x00000eb0       0x2f /media/data/coding/GSoC/AVT/px4+mavlink/Firmware/Build/px4io-v2_default.build/nuttx-export/libs/libnuttx.a(c-lib_memoutstream.o)
 .ARM.attributes
                0x00000edf       0x2f /media/data/coding/GSoC/AVT/px4+mavlink/Firmware/Build/px4io-v2_default.build/nuttx-export/libs/libnuttx.a(c-lib_nulloutstream.o)
 .ARM.attributes
                0x00000f0e       0x2f /media/data/coding/GSoC/AVT/px4+mavlink/Firmware/Build/px4io-v2_default.build/nuttx-export/libs/libnuttx.a(c-lib_rawoutstream.o)
 .ARM.attributes
                0x00000f3d       0x2f /media/data/coding/GSoC/AVT/px4+mavlink/Firmware/Build/px4io-v2_default.build/nuttx-export/libs/libnuttx.a(c-lib_skipspace.o)
 .ARM.attributes
                0x00000f6c       0x2f /media/data/coding/GSoC/AVT/px4+mavlink/Firmware/Build/px4io-v2_default.build/nuttx-export/libs/libnuttx.a(c-lib_strlen.o)
 .ARM.attributes
                0x00000f9b       0x2f /media/data/coding/GSoC/AVT/px4+mavlink/Firmware/Build/px4io-v2_default.build/nuttx-export/libs/libnuttx.a(c-sem_init.o)
 .ARM.attributes
                0x00000fca       0x2f /media/data/coding/GSoC/AVT/px4+mavlink/Firmware/Build/px4io-v2_default.build/nuttx-export/libs/libnuttx.a(c-sq_remafter.o)
 .ARM.attributes
                0x00000ff9       0x2f /media/data/coding/GSoC/AVT/px4+mavlink/Firmware/Build/px4io-v2_default.build/nuttx-export/libs/libnuttx.a(c-sq_remfirst.o)
 .ARM.attributes
                0x00001028       0x2f /media/data/coding/GSoC/AVT/px4+mavlink/Firmware/Build/px4io-v2_default.build/nuttx-export/libs/libnuttx.a(mm-mm_addfreechunk.o)
 .ARM.attributes
                0x00001057       0x2f /media/data/coding/GSoC/AVT/px4+mavlink/Firmware/Build/px4io-v2_default.build/nuttx-export/libs/libnuttx.a(mm-mm_initialize.o)
 .ARM.attributes
                0x00001086       0x2f /media/data/coding/GSoC/AVT/px4+mavlink/Firmware/Build/px4io-v2_default.build/nuttx-export/libs/libnuttx.a(arch-stm32_allocateheap.o)
 .ARM.attributes
                0x000010b5       0x2f /media/data/coding/GSoC/AVT/px4+mavlink/Firmware/Build/px4io-v2_default.build/nuttx-export/libs/libnuttx.a(arch-stm32_idle.o)
 .ARM.attributes
                0x000010e4       0x2f /media/data/coding/GSoC/AVT/px4+mavlink/Firmware/Build/px4io-v2_default.build/nuttx-export/libs/libnuttx.a(arch-stm32_lowputc.o)
 .ARM.attributes
                0x00001113       0x2f /media/data/coding/GSoC/AVT/px4+mavlink/Firmware/Build/px4io-v2_default.build/nuttx-export/libs/libnuttx.a(arch-stm32_rcc.o)
 .ARM.attributes
                0x00001142       0x1b /media/data/coding/GSoC/AVT/px4+mavlink/Firmware/Build/px4io-v2_default.build/nuttx-export/libs/libnuttx.a(arch-stm32_vectors.o)
 .ARM.attributes
                0x0000115d       0x2f /media/data/coding/GSoC/AVT/px4+mavlink/Firmware/Build/px4io-v2_default.build/nuttx-export/libs/libnuttx.a(arch-up_blocktask.o)
 .ARM.attributes
                0x0000118c       0x2f /media/data/coding/GSoC/AVT/px4+mavlink/Firmware/Build/px4io-v2_default.build/nuttx-export/libs/libnuttx.a(arch-up_copystate.o)
 .ARM.attributes
                0x000011bb       0x1b /media/data/coding/GSoC/AVT/px4+mavlink/Firmware/Build/px4io-v2_default.build/nuttx-export/libs/libnuttx.a(arch-up_exception.o)
 .ARM.attributes
                0x000011d6       0x2f /media/data/coding/GSoC/AVT/px4+mavlink/Firmware/Build/px4io-v2_default.build/nuttx-export/libs/libnuttx.a(arch-up_exit.o)
 .ARM.attributes
                0x00001205       0x1b /media/data/coding/GSoC/AVT/px4+mavlink/Firmware/Build/px4io-v2_default.build/nuttx-export/libs/libnuttx.a(arch-up_fullcontextrestore.o)
 .ARM.attributes
                0x00001220       0x2f /media/data/coding/GSoC/AVT/px4+mavlink/Firmware/Build/px4io-v2_default.build/nuttx-export/libs/libnuttx.a(arch-up_initialize.o)
 .ARM.attributes
                0x0000124f       0x2f /media/data/coding/GSoC/AVT/px4+mavlink/Firmware/Build/px4io-v2_default.build/nuttx-export/libs/libnuttx.a(arch-up_initialstate.o)
 .ARM.attributes
                0x0000127e       0x2f /media/data/coding/GSoC/AVT/px4+mavlink/Firmware/Build/px4io-v2_default.build/nuttx-export/libs/libnuttx.a(arch-up_interruptcontext.o)
 .ARM.attributes
                0x000012ad       0x2f /media/data/coding/GSoC/AVT/px4+mavlink/Firmware/Build/px4io-v2_default.build/nuttx-export/libs/libnuttx.a(arch-up_mdelay.o)
 .ARM.attributes
                0x000012dc       0x1b /media/data/coding/GSoC/AVT/px4+mavlink/Firmware/Build/px4io-v2_default.build/nuttx-export/libs/libnuttx.a(arch-up_switchcontext.o)
 .ARM.attributes
                0x000012f7       0x2f /media/data/coding/GSoC/AVT/px4+mavlink/Firmware/Build/px4io-v2_default.build/nuttx-export/libs/libnuttx.a(arch-up_unblocktask.o)
 .ARM.attributes
                0x00001326       0x2f /media/data/coding/GSoC/AVT/px4+mavlink/Firmware/Build/px4io-v2_default.build/nuttx-export/libs/libnuttx.a(fs-fs_files.o)
 .ARM.attributes
                0x00001355       0x2f /media/data/coding/GSoC/AVT/px4+mavlink/Firmware/Build/px4io-v2_default.build/nuttx-export/libs/libnuttx.a(fs-fs_inodeaddref.o)
 .ARM.attributes
                0x00001384       0x2f /media/data/coding/GSoC/AVT/px4+mavlink/Firmware/Build/px4io-v2_default.build/nuttx-export/libs/libnuttx.a(fs-fs_inodefind.o)
 .ARM.attributes
                0x000013b3       0x2f /media/data/coding/GSoC/AVT/px4+mavlink/Firmware/Build/px4io-v2_default.build/nuttx-export/libs/libnuttx.a(fs-fs_inode.o)
 .ARM.attributes
                0x000013e2       0x2f /media/data/coding/GSoC/AVT/px4+mavlink/Firmware/Build/px4io-v2_default.build/nuttx-export/libs/libnuttx.a(fs-fs_inoderelease.o)
 .ARM.attributes
                0x00001411       0x2f /media/data/coding/GSoC/AVT/px4+mavlink/Firmware/Build/px4io-v2_default.build/nuttx-export/libs/libnuttx.a(fs-fs_registerdriver.o)
 .ARM.attributes
                0x00001440       0x2f /media/data/coding/GSoC/AVT/px4+mavlink/Firmware/Build/px4io-v2_default.build/nuttx-export/libs/libnuttx.a(sched-group_create.o)
 .ARM.attributes
                0x0000146f       0x2f /media/data/coding/GSoC/AVT/px4+mavlink/Firmware/Build/px4io-v2_default.build/nuttx-export/libs/libnuttx.a(sched-group_leave.o)
 .ARM.attributes
                0x0000149e       0x2f /media/data/coding/GSoC/AVT/px4+mavlink/Firmware/Build/px4io-v2_default.build/nuttx-export/libs/libnuttx.a(sched-group_setupidlefiles.o)
 .ARM.attributes
                0x000014cd       0x2f /media/data/coding/GSoC/AVT/px4+mavlink/Firmware/Build/px4io-v2_default.build/nuttx-export/libs/libnuttx.a(sched-os_bringup.o)
 .ARM.attributes
                0x000014fc       0x2f /media/data/coding/GSoC/AVT/px4+mavlink/Firmware/Build/px4io-v2_default.build/nuttx-export/libs/libnuttx.a(sched-sched_addblocked.o)
 .ARM.attributes
                0x0000152b       0x2f /media/data/coding/GSoC/AVT/px4+mavlink/Firmware/Build/px4io-v2_default.build/nuttx-export/libs/libnuttx.a(sched-sched_addprioritized.o)
 .ARM.attributes
                0x0000155a       0x2f /media/data/coding/GSoC/AVT/px4+mavlink/Firmware/Build/px4io-v2_default.build/nuttx-export/libs/libnuttx.a(sched-sched_addreadytorun.o)
 .ARM.attributes
                0x00001589       0x2f /media/data/coding/GSoC/AVT/px4+mavlink/Firmware/Build/px4io-v2_default.build/nuttx-export/libs/libnuttx.a(sched-sched_free.o)
 .ARM.attributes
                0x000015b8       0x2f /media/data/coding/GSoC/AVT/px4+mavlink/Firmware/Build/px4io-v2_default.build/nuttx-export/libs/libnuttx.a(sched-sched_mergepending.o)
 .ARM.attributes
                0x000015e7       0x2f /media/data/coding/GSoC/AVT/px4+mavlink/Firmware/Build/px4io-v2_default.build/nuttx-export/libs/libnuttx.a(sched-sched_removeblocked.o)
 .ARM.attributes
                0x00001616       0x2f /media/data/coding/GSoC/AVT/px4+mavlink/Firmware/Build/px4io-v2_default.build/nuttx-export/libs/libnuttx.a(sched-sched_removereadytorun.o)
 .ARM.attributes
                0x00001645       0x2f /media/data/coding/GSoC/AVT/px4+mavlink/Firmware/Build/px4io-v2_default.build/nuttx-export/libs/libnuttx.a(sched-sem_destroy.o)
 .ARM.attributes
                0x00001674       0x2f /media/data/coding/GSoC/AVT/px4+mavlink/Firmware/Build/px4io-v2_default.build/nuttx-export/libs/libnuttx.a(sched-task_create.o)
 .ARM.attributes
                0x000016a3       0x2f /media/data/coding/GSoC/AVT/px4+mavlink/Firmware/Build/px4io-v2_default.build/nuttx-export/libs/libnuttx.a(sched-task_exit.o)
 .ARM.attributes
                0x000016d2       0x2f /media/data/coding/GSoC/AVT/px4+mavlink/Firmware/Build/px4io-v2_default.build/nuttx-export/libs/libnuttx.a(sched-task_setup.o)
 .ARM.attributes
                0x00001701       0x2f /media/data/coding/GSoC/AVT/px4+mavlink/Firmware/Build/px4io-v2_default.build/nuttx-export/libs/libnuttx.a(sched-task_start.o)
 .ARM.attributes
                0x00001730       0x2f /media/data/coding/GSoC/AVT/px4+mavlink/Firmware/Build/px4io-v2_default.build/nuttx-export/libs/libnuttx.a(sched-task_terminate.o)
 .ARM.attributes
                0x0000175f       0x2f /media/data/coding/GSoC/AVT/px4+mavlink/Firmware/Build/px4io-v2_default.build/nuttx-export/libs/libnuttx.a(c-dq_addlast.o)
 .ARM.attributes
                0x0000178e       0x2f /media/data/coding/GSoC/AVT/px4+mavlink/Firmware/Build/px4io-v2_default.build/nuttx-export/libs/libnuttx.a(c-dq_rem.o)
 .ARM.attributes
                0x000017bd       0x2f /media/data/coding/GSoC/AVT/px4+mavlink/Firmware/Build/px4io-v2_default.build/nuttx-export/libs/libnuttx.a(c-lib_strdup.o)
 .ARM.attributes
                0x000017ec       0x2f /media/data/coding/GSoC/AVT/px4+mavlink/Firmware/Build/px4io-v2_default.build/nuttx-export/libs/libnuttx.a(arch-stm32_timerisr.o)
 .ARM.attributes
                0x0000181b       0x2f /media/data/coding/GSoC/AVT/px4+mavlink/Firmware/Build/px4io-v2_default.build/nuttx-export/libs/libnuttx.a(arch-up_createstack.o)
 .ARM.attributes
                0x0000184a       0x2f /media/data/coding/GSoC/AVT/px4+mavlink/Firmware/Build/px4io-v2_default.build/nuttx-export/libs/libnuttx.a(arch-up_doirq.o)
 .ARM.attributes
                0x00001879       0x2f /media/data/coding/GSoC/AVT/px4+mavlink/Firmware/Build/px4io-v2_default.build/nuttx-export/libs/libnuttx.a(arch-up_releasestack.o)
 .ARM.attributes
                0x000018a8       0x2f /media/data/coding/GSoC/AVT/px4+mavlink/Firmware/Build/px4io-v2_default.build/nuttx-export/libs/libnuttx.a(fs-fs_close.o)
 .ARM.attributes
                0x000018d7       0x2f /media/data/coding/GSoC/AVT/px4+mavlink/Firmware/Build/px4io-v2_default.build/nuttx-export/libs/libnuttx.a(fs-fs_filedup2.o)
 .ARM.attributes
                0x00001906       0x2f /media/data/coding/GSoC/AVT/px4+mavlink/Firmware/Build/px4io-v2_default.build/nuttx-export/libs/libnuttx.a(fs-fs_inodereserve.o)
 .ARM.attributes
                0x00001935       0x2f /media/data/coding/GSoC/AVT/px4+mavlink/Firmware/Build/px4io-v2_default.build/nuttx-export/libs/libnuttx.a(sched-group_setuptaskfiles.o)
 .ARM.attributes
                0x00001964       0x2f /media/data/coding/GSoC/AVT/px4+mavlink/Firmware/Build/px4io-v2_default.build/nuttx-export/libs/libnuttx.a(sched-irq_dispatch.o)
 .ARM.attributes
                0x00001993       0x2f /media/data/coding/GSoC/AVT/px4+mavlink/Firmware/Build/px4io-v2_default.build/nuttx-export/libs/libnuttx.a(sched-sched_gettcb.o)
 .ARM.attributes
                0x000019c2       0x2f /media/data/coding/GSoC/AVT/px4+mavlink/Firmware/Build/px4io-v2_default.build/nuttx-export/libs/libnuttx.a(sched-sched_lock.o)
 .ARM.attributes
                0x000019f1       0x2f /media/data/coding/GSoC/AVT/px4+mavlink/Firmware/Build/px4io-v2_default.build/nuttx-export/libs/libnuttx.a(sched-sched_processtimer.o)
 .ARM.attributes
                0x00001a20       0x2f /media/data/coding/GSoC/AVT/px4+mavlink/Firmware/Build/px4io-v2_default.build/nuttx-export/libs/libnuttx.a(sched-sched_releasetcb.o)
 .ARM.attributes
                0x00001a4f       0x2f /media/data/coding/GSoC/AVT/px4+mavlink/Firmware/Build/px4io-v2_default.build/nuttx-export/libs/libnuttx.a(sched-sched_unlock.o)
 .ARM.attributes
                0x00001a7e       0x2f /media/data/coding/GSoC/AVT/px4+mavlink/Firmware/Build/px4io-v2_default.build/nuttx-export/libs/libnuttx.a(sched-task_activate.o)
 .ARM.attributes
                0x00001aad       0x2f /media/data/coding/GSoC/AVT/px4+mavlink/Firmware/Build/px4io-v2_default.build/nuttx-export/libs/libnuttx.a(c-lib_strcpy.o)
 .ARM.attributes
                0x00001adc       0x2f /media/data/coding/GSoC/AVT/px4+mavlink/Firmware/Build/px4io-v2_default.build/nuttx-export/libs/libnuttx.a(arch-up_releasepending.o)
 .ARM.attributes
                0x00001b0b       0x1d /home/avnishks/gcc-arm-none-eabi-4_6-2012q2/bin/../lib/gcc/arm-none-eabi/4.6.2/armv7-m/libgcc.a(_arm_addsubsf3.o)
 .ARM.attributes
                0x00001b28       0x1d /home/avnishks/gcc-arm-none-eabi-4_6-2012q2/bin/../lib/gcc/arm-none-eabi/4.6.2/armv7-m/libgcc.a(_arm_muldivsf3.o)
 .ARM.attributes
                0x00001b45       0x1d /home/avnishks/gcc-arm-none-eabi-4_6-2012q2/bin/../lib/gcc/arm-none-eabi/4.6.2/armv7-m/libgcc.a(_arm_cmpsf2.o)
 .ARM.attributes
                0x00001b62       0x1d /home/avnishks/gcc-arm-none-eabi-4_6-2012q2/bin/../lib/gcc/arm-none-eabi/4.6.2/armv7-m/libgcc.a(_arm_fixsfsi.o)
 .ARM.attributes
                0x00001b7f       0x1d /home/avnishks/gcc-arm-none-eabi-4_6-2012q2/bin/../lib/gcc/arm-none-eabi/4.6.2/armv7-m/libgcc.a(_arm_fixunssfsi.o)
 .ARM.attributes
                0x00001b9c       0x1d /home/avnishks/gcc-arm-none-eabi-4_6-2012q2/bin/../lib/gcc/arm-none-eabi/4.6.2/armv7-m/libgcc.a(_aeabi_uldivmod.o)
 .ARM.attributes
                0x00001bb9       0x2d /home/avnishks/gcc-arm-none-eabi-4_6-2012q2/bin/../lib/gcc/arm-none-eabi/4.6.2/armv7-m/libgcc.a(bpabi.o)
 .ARM.attributes
                0x00001be6       0x2d /home/avnishks/gcc-arm-none-eabi-4_6-2012q2/bin/../lib/gcc/arm-none-eabi/4.6.2/armv7-m/libgcc.a(unwind-arm.o)
 .ARM.attributes
                0x00001c13       0x1d /home/avnishks/gcc-arm-none-eabi-4_6-2012q2/bin/../lib/gcc/arm-none-eabi/4.6.2/armv7-m/libgcc.a(libunwind.o)
 .ARM.attributes
                0x00001c30       0x2d /home/avnishks/gcc-arm-none-eabi-4_6-2012q2/bin/../lib/gcc/arm-none-eabi/4.6.2/armv7-m/libgcc.a(pr-support.o)
 .ARM.attributes
                0x00001c5d       0x1d /home/avnishks/gcc-arm-none-eabi-4_6-2012q2/bin/../lib/gcc/arm-none-eabi/4.6.2/armv7-m/libgcc.a(_dvmd_tls.o)
 .ARM.attributes
                0x00001c7a       0x2d /home/avnishks/gcc-arm-none-eabi-4_6-2012q2/bin/../lib/gcc/arm-none-eabi/4.6.2/armv7-m/libgcc.a(_divdi3.o)
 .ARM.attributes
                0x00001ca7       0x2d /home/avnishks/gcc-arm-none-eabi-4_6-2012q2/bin/../lib/gcc/arm-none-eabi/4.6.2/armv7-m/libgcc.a(_udivdi3.o)

.debug_abbrev   0x00000000     0xc414
 *(.debug_abbrev)
 .debug_abbrev  0x00000000        0x1 /media/data/coding/GSoC/AVT/px4+mavlink/Firmware/Build/px4io-v2_default.build//media/data/coding/GSoC/AVT/px4+mavlink/Firmware/Build/px4io-v2_default.build/empty.c.o
 .debug_abbrev  0x00000001       0xcb /media/data/coding/GSoC/AVT/px4+mavlink/Firmware/Build/px4io-v2_default.build//media/data/coding/GSoC/AVT/px4+mavlink/Firmware/src/drivers/boards/px4io-v2/module.pre.o
 .debug_abbrev  0x000000cc      0x53f /media/data/coding/GSoC/AVT/px4+mavlink/Firmware/Build/px4io-v2_default.build//media/data/coding/GSoC/AVT/px4+mavlink/Firmware/src/drivers/stm32/module.pre.o
 .debug_abbrev  0x0000060b     0x2697 /media/data/coding/GSoC/AVT/px4+mavlink/Firmware/Build/px4io-v2_default.build//media/data/coding/GSoC/AVT/px4+mavlink/Firmware/src/modules/px4iofirmware/module.pre.o
 .debug_abbrev  0x00002ca2      0x13b /media/data/coding/GSoC/AVT/px4+mavlink/Firmware/Build/px4io-v2_default.build/nuttx-export/libs/libnuttx.a(sched-irq_attach.o)
 .debug_abbrev  0x00002ddd       0xb5 /media/data/coding/GSoC/AVT/px4+mavlink/Firmware/Build/px4io-v2_default.build/nuttx-export/libs/libnuttx.a(sched-irq_initialize.o)
 .debug_abbrev  0x00002e92       0xb4 /media/data/coding/GSoC/AVT/px4+mavlink/Firmware/Build/px4io-v2_default.build/nuttx-export/libs/libnuttx.a(sched-irq_unexpectedisr.o)
 .debug_abbrev  0x00002f46       0x41 /media/data/coding/GSoC/AVT/px4+mavlink/Firmware/Build/px4io-v2_default.build/nuttx-export/libs/libnuttx.a(c-lib_abort.o)
 .debug_abbrev  0x00002f87       0xa9 /media/data/coding/GSoC/AVT/px4+mavlink/Firmware/Build/px4io-v2_default.build/nuttx-export/libs/libnuttx.a(c-lib_cfsetspeed.o)
 .debug_abbrev  0x00003030      0x10e /media/data/coding/GSoC/AVT/px4+mavlink/Firmware/Build/px4io-v2_default.build/nuttx-export/libs/libnuttx.a(c-lib_crc32.o)
 .debug_abbrev  0x0000313e      0x14a /media/data/coding/GSoC/AVT/px4+mavlink/Firmware/Build/px4io-v2_default.build/nuttx-export/libs/libnuttx.a(c-lib_lowsyslog.o)
 .debug_abbrev  0x00003288       0x8c /media/data/coding/GSoC/AVT/px4+mavlink/Firmware/Build/px4io-v2_default.build/nuttx-export/libs/libnuttx.a(c-lib_memchr.o)
 .debug_abbrev  0x00003314       0xa3 /media/data/coding/GSoC/AVT/px4+mavlink/Firmware/Build/px4io-v2_default.build/nuttx-export/libs/libnuttx.a(c-lib_memcpy.o)
 .debug_abbrev  0x000033b7       0x80 /media/data/coding/GSoC/AVT/px4+mavlink/Firmware/Build/px4io-v2_default.build/nuttx-export/libs/libnuttx.a(c-lib_memset.o)
 .debug_abbrev  0x00003437       0xb7 /media/data/coding/GSoC/AVT/px4+mavlink/Firmware/Build/px4io-v2_default.build/nuttx-export/libs/libnuttx.a(c-lib_printf.o)
 .debug_abbrev  0x000034ee      0x1a3 /media/data/coding/GSoC/AVT/px4+mavlink/Firmware/Build/px4io-v2_default.build/nuttx-export/libs/libnuttx.a(c-lib_sscanf.o)
 .debug_abbrev  0x00003691       0x73 /media/data/coding/GSoC/AVT/px4+mavlink/Firmware/Build/px4io-v2_default.build/nuttx-export/libs/libnuttx.a(c-lib_strchr.o)
 .debug_abbrev  0x00003704       0x82 /media/data/coding/GSoC/AVT/px4+mavlink/Firmware/Build/px4io-v2_default.build/nuttx-export/libs/libnuttx.a(c-lib_strcmp.o)
 .debug_abbrev  0x00003786       0x8f /media/data/coding/GSoC/AVT/px4+mavlink/Firmware/Build/px4io-v2_default.build/nuttx-export/libs/libnuttx.a(c-lib_strcspn.o)
 .debug_abbrev  0x00003815       0x9e /media/data/coding/GSoC/AVT/px4+mavlink/Firmware/Build/px4io-v2_default.build/nuttx-export/libs/libnuttx.a(c-lib_strncpy.o)
 .debug_abbrev  0x000038b3       0x7e /media/data/coding/GSoC/AVT/px4+mavlink/Firmware/Build/px4io-v2_default.build/nuttx-export/libs/libnuttx.a(c-lib_strtol.o)
 .debug_abbrev  0x00003931       0x80 /media/data/coding/GSoC/AVT/px4+mavlink/Firmware/Build/px4io-v2_default.build/nuttx-export/libs/libnuttx.a(c-lib_strtoul.o)
 .debug_abbrev  0x000039b1      0x14a /media/data/coding/GSoC/AVT/px4+mavlink/Firmware/Build/px4io-v2_default.build/nuttx-export/libs/libnuttx.a(c-lib_syslog.o)
 .debug_abbrev  0x00003afb       0xa9 /media/data/coding/GSoC/AVT/px4+mavlink/Firmware/Build/px4io-v2_default.build/nuttx-export/libs/libnuttx.a(c-lib_tcgetattr.o)
 .debug_abbrev  0x00003ba4       0xb0 /media/data/coding/GSoC/AVT/px4+mavlink/Firmware/Build/px4io-v2_default.build/nuttx-export/libs/libnuttx.a(c-lib_tcsetattr.o)
 .debug_abbrev  0x00003c54       0xed /media/data/coding/GSoC/AVT/px4+mavlink/Firmware/Build/px4io-v2_default.build/nuttx-export/libs/libnuttx.a(c-lib_vsnprintf.o)
 .debug_abbrev  0x00003d41       0x86 /media/data/coding/GSoC/AVT/px4+mavlink/Firmware/Build/px4io-v2_default.build/nuttx-export/libs/libnuttx.a(c-sq_addafter.o)
 .debug_abbrev  0x00003dc7       0x86 /media/data/coding/GSoC/AVT/px4+mavlink/Firmware/Build/px4io-v2_default.build/nuttx-export/libs/libnuttx.a(c-sq_addfirst.o)
 .debug_abbrev  0x00003e4d       0x86 /media/data/coding/GSoC/AVT/px4+mavlink/Firmware/Build/px4io-v2_default.build/nuttx-export/libs/libnuttx.a(c-sq_addlast.o)
 .debug_abbrev  0x00003ed3       0x9c /media/data/coding/GSoC/AVT/px4+mavlink/Firmware/Build/px4io-v2_default.build/nuttx-export/libs/libnuttx.a(c-sq_rem.o)
 .debug_abbrev  0x00003f6f       0x86 /media/data/coding/GSoC/AVT/px4+mavlink/Firmware/Build/px4io-v2_default.build/nuttx-export/libs/libnuttx.a(mm-mm_calloc.o)
 .debug_abbrev  0x00003ff5      0x125 /media/data/coding/GSoC/AVT/px4+mavlink/Firmware/Build/px4io-v2_default.build/nuttx-export/libs/libnuttx.a(mm-mm_free.o)
 .debug_abbrev  0x0000411a      0x107 /media/data/coding/GSoC/AVT/px4+mavlink/Firmware/Build/px4io-v2_default.build/nuttx-export/libs/libnuttx.a(mm-mm_mallinfo.o)
 .debug_abbrev  0x00004221      0x120 /media/data/coding/GSoC/AVT/px4+mavlink/Firmware/Build/px4io-v2_default.build/nuttx-export/libs/libnuttx.a(mm-mm_malloc.o)
 .debug_abbrev  0x00004341       0xec /media/data/coding/GSoC/AVT/px4+mavlink/Firmware/Build/px4io-v2_default.build/nuttx-export/libs/libnuttx.a(mm-mm_sem.o)
 .debug_abbrev  0x0000442d       0x6e /media/data/coding/GSoC/AVT/px4+mavlink/Firmware/Build/px4io-v2_default.build/nuttx-export/libs/libnuttx.a(mm-mm_size2ndx.o)
 .debug_abbrev  0x0000449b       0xed /media/data/coding/GSoC/AVT/px4+mavlink/Firmware/Build/px4io-v2_default.build/nuttx-export/libs/libnuttx.a(mm-mm_user.o)
 .debug_abbrev  0x00004588       0x77 /media/data/coding/GSoC/AVT/px4+mavlink/Firmware/Build/px4io-v2_default.build/nuttx-export/libs/libnuttx.a(mm-mm_zalloc.o)
 .debug_abbrev  0x000045ff      0x280 /media/data/coding/GSoC/AVT/px4+mavlink/Firmware/Build/px4io-v2_default.build/nuttx-export/libs/libnuttx.a(arch-stm32_dma.o)
 .debug_abbrev  0x0000487f      0x1e9 /media/data/coding/GSoC/AVT/px4+mavlink/Firmware/Build/px4io-v2_default.build/nuttx-export/libs/libnuttx.a(arch-stm32_gpio.o)
 .debug_abbrev  0x00004a68      0x199 /media/data/coding/GSoC/AVT/px4+mavlink/Firmware/Build/px4io-v2_default.build/nuttx-export/libs/libnuttx.a(arch-stm32_irq.o)
 .debug_abbrev  0x00004c01      0x333 /media/data/coding/GSoC/AVT/px4+mavlink/Firmware/Build/px4io-v2_default.build/nuttx-export/libs/libnuttx.a(arch-stm32_serial.o)
 .debug_abbrev  0x00004f34       0x8d /media/data/coding/GSoC/AVT/px4+mavlink/Firmware/Build/px4io-v2_default.build/nuttx-export/libs/libnuttx.a(arch-stm32_start.o)
 .debug_abbrev  0x00004fc1      0x288 /media/data/coding/GSoC/AVT/px4+mavlink/Firmware/Build/px4io-v2_default.build/nuttx-export/libs/libnuttx.a(arch-up_assert.o)
 .debug_abbrev  0x00005249      0x104 /media/data/coding/GSoC/AVT/px4+mavlink/Firmware/Build/px4io-v2_default.build/nuttx-export/libs/libnuttx.a(arch-up_hardfault.o)
 .debug_abbrev  0x0000534d      0x101 /media/data/coding/GSoC/AVT/px4+mavlink/Firmware/Build/px4io-v2_default.build/nuttx-export/libs/libnuttx.a(arch-up_modifyreg32.o)
 .debug_abbrev  0x0000544e       0xb6 /media/data/coding/GSoC/AVT/px4+mavlink/Firmware/Build/px4io-v2_default.build/nuttx-export/libs/libnuttx.a(arch-up_svcall.o)
 .debug_abbrev  0x00005504       0x75 /media/data/coding/GSoC/AVT/px4+mavlink/Firmware/Build/px4io-v2_default.build/nuttx-export/libs/libnuttx.a(arch-up_udelay.o)
 .debug_abbrev  0x00005579       0x53 /media/data/coding/GSoC/AVT/px4+mavlink/Firmware/Build/px4io-v2_default.build/nuttx-export/libs/libnuttx.a(arch-up_vectors.o)
 .debug_abbrev  0x000055cc      0x11e /media/data/coding/GSoC/AVT/px4+mavlink/Firmware/Build/px4io-v2_default.build/nuttx-export/libs/libnuttx.a(cxx-libxx_cxa_atexit.o)
 .debug_abbrev  0x000056ea       0x3f /media/data/coding/GSoC/AVT/px4+mavlink/Firmware/Build/px4io-v2_default.build/nuttx-export/libs/libnuttx.a(cxx-libxx_cxapurevirtual.o)
 .debug_abbrev  0x00005729       0xe7 /media/data/coding/GSoC/AVT/px4+mavlink/Firmware/Build/px4io-v2_default.build/nuttx-export/libs/libnuttx.a(cxx-libxx_delete.o)
 .debug_abbrev  0x00005810       0xed /media/data/coding/GSoC/AVT/px4+mavlink/Firmware/Build/px4io-v2_default.build/nuttx-export/libs/libnuttx.a(cxx-libxx_eabi_atexit.o)
 .debug_abbrev  0x000058fd       0xfd /media/data/coding/GSoC/AVT/px4+mavlink/Firmware/Build/px4io-v2_default.build/nuttx-export/libs/libnuttx.a(cxx-libxx_new.o)
 .debug_abbrev  0x000059fa      0x11e /media/data/coding/GSoC/AVT/px4+mavlink/Firmware/Build/px4io-v2_default.build/nuttx-export/libs/libnuttx.a(fs-fs_ioctl.o)
 .debug_abbrev  0x00005b18      0x18a /media/data/coding/GSoC/AVT/px4+mavlink/Firmware/Build/px4io-v2_default.build/nuttx-export/libs/libnuttx.a(fs-fs_open.o)
 .debug_abbrev  0x00005ca2      0x174 /media/data/coding/GSoC/AVT/px4+mavlink/Firmware/Build/px4io-v2_default.build/nuttx-export/libs/libnuttx.a(fs-fs_read.o)
 .debug_abbrev  0x00005e16      0x183 /media/data/coding/GSoC/AVT/px4+mavlink/Firmware/Build/px4io-v2_default.build/nuttx-export/libs/libnuttx.a(fs-fs_write.o)
 .debug_abbrev  0x00005f99      0x14a /media/data/coding/GSoC/AVT/px4+mavlink/Firmware/Build/px4io-v2_default.build/nuttx-export/libs/libnuttx.a(drivers-serialirq.o)
 .debug_abbrev  0x000060e3      0x319 /media/data/coding/GSoC/AVT/px4+mavlink/Firmware/Build/px4io-v2_default.build/nuttx-export/libs/libnuttx.a(drivers-serial.o)
 .debug_abbrev  0x000063fc      0x16d /media/data/coding/GSoC/AVT/px4+mavlink/Firmware/Build/px4io-v2_default.build/nuttx-export/libs/libnuttx.a(sched-errno_getptr.o)
 .debug_abbrev  0x00006569      0x14c /media/data/coding/GSoC/AVT/px4+mavlink/Firmware/Build/px4io-v2_default.build/nuttx-export/libs/libnuttx.a(sched-exit.o)
 .debug_abbrev  0x000066b5      0x12e /media/data/coding/GSoC/AVT/px4+mavlink/Firmware/Build/px4io-v2_default.build/nuttx-export/libs/libnuttx.a(sched-getpid.o)
 .debug_abbrev  0x000067e3      0x19b /media/data/coding/GSoC/AVT/px4+mavlink/Firmware/Build/px4io-v2_default.build/nuttx-export/libs/libnuttx.a(sched-os_start.o)
 .debug_abbrev  0x0000697e      0x14a /media/data/coding/GSoC/AVT/px4+mavlink/Firmware/Build/px4io-v2_default.build/nuttx-export/libs/libnuttx.a(sched-sched_garbage.o)
 .debug_abbrev  0x00006ac8      0x13f /media/data/coding/GSoC/AVT/px4+mavlink/Firmware/Build/px4io-v2_default.build/nuttx-export/libs/libnuttx.a(sched-sched_getfiles.o)
 .debug_abbrev  0x00006c07      0x1e3 /media/data/coding/GSoC/AVT/px4+mavlink/Firmware/Build/px4io-v2_default.build/nuttx-export/libs/libnuttx.a(sched-sem_post.o)
 .debug_abbrev  0x00006dea      0x1e3 /media/data/coding/GSoC/AVT/px4+mavlink/Firmware/Build/px4io-v2_default.build/nuttx-export/libs/libnuttx.a(sched-sem_trywait.o)
 .debug_abbrev  0x00006fcd      0x1fb /media/data/coding/GSoC/AVT/px4+mavlink/Firmware/Build/px4io-v2_default.build/nuttx-export/libs/libnuttx.a(sched-sem_wait.o)
 .debug_abbrev  0x000071c8      0x132 /media/data/coding/GSoC/AVT/px4+mavlink/Firmware/Build/px4io-v2_default.build/nuttx-export/libs/libnuttx.a(sched-task_exithook.o)
 .debug_abbrev  0x000072fa      0x1a9 /media/data/coding/GSoC/AVT/px4+mavlink/Firmware/Build/px4io-v2_default.build/nuttx-export/libs/libnuttx.a(sched-task_recover.o)
 .debug_abbrev  0x000074a3      0x173 /media/data/coding/GSoC/AVT/px4+mavlink/Firmware/Build/px4io-v2_default.build/nuttx-export/libs/libnuttx.a(sched-wd_cancel.o)
 .debug_abbrev  0x00007616      0x155 /media/data/coding/GSoC/AVT/px4+mavlink/Firmware/Build/px4io-v2_default.build/nuttx-export/libs/libnuttx.a(sched-wd_delete.o)
 .debug_abbrev  0x0000776b      0x10c /media/data/coding/GSoC/AVT/px4+mavlink/Firmware/Build/px4io-v2_default.build/nuttx-export/libs/libnuttx.a(sched-wd_initialize.o)
 .debug_abbrev  0x00007877       0x86 /media/data/coding/GSoC/AVT/px4+mavlink/Firmware/Build/px4io-v2_default.build/nuttx-export/libs/libnuttx.a(c-dq_addfirst.o)
 .debug_abbrev  0x000078fd       0xa1 /media/data/coding/GSoC/AVT/px4+mavlink/Firmware/Build/px4io-v2_default.build/nuttx-export/libs/libnuttx.a(c-lib_cfgetspeed.o)
 .debug_abbrev  0x0000799e       0x73 /media/data/coding/GSoC/AVT/px4+mavlink/Firmware/Build/px4io-v2_default.build/nuttx-export/libs/libnuttx.a(c-lib_checkbase.o)
 .debug_abbrev  0x00007a11       0x97 /media/data/coding/GSoC/AVT/px4+mavlink/Firmware/Build/px4io-v2_default.build/nuttx-export/libs/libnuttx.a(c-lib_isbasedigit.o)
 .debug_abbrev  0x00007aa8      0x24c /media/data/coding/GSoC/AVT/px4+mavlink/Firmware/Build/px4io-v2_default.build/nuttx-export/libs/libnuttx.a(c-lib_libvsprintf.o)
 .debug_abbrev  0x00007cf4       0xd6 /media/data/coding/GSoC/AVT/px4+mavlink/Firmware/Build/px4io-v2_default.build/nuttx-export/libs/libnuttx.a(c-lib_lowoutstream.o)
 .debug_abbrev  0x00007dca      0x133 /media/data/coding/GSoC/AVT/px4+mavlink/Firmware/Build/px4io-v2_default.build/nuttx-export/libs/libnuttx.a(c-lib_memoutstream.o)
 .debug_abbrev  0x00007efd       0xc7 /media/data/coding/GSoC/AVT/px4+mavlink/Firmware/Build/px4io-v2_default.build/nuttx-export/libs/libnuttx.a(c-lib_nulloutstream.o)
 .debug_abbrev  0x00007fc4      0x103 /media/data/coding/GSoC/AVT/px4+mavlink/Firmware/Build/px4io-v2_default.build/nuttx-export/libs/libnuttx.a(c-lib_rawoutstream.o)
 .debug_abbrev  0x000080c7       0x71 /media/data/coding/GSoC/AVT/px4+mavlink/Firmware/Build/px4io-v2_default.build/nuttx-export/libs/libnuttx.a(c-lib_skipspace.o)
 .debug_abbrev  0x00008138       0x80 /media/data/coding/GSoC/AVT/px4+mavlink/Firmware/Build/px4io-v2_default.build/nuttx-export/libs/libnuttx.a(c-lib_strlen.o)
 .debug_abbrev  0x000081b8       0x97 /media/data/coding/GSoC/AVT/px4+mavlink/Firmware/Build/px4io-v2_default.build/nuttx-export/libs/libnuttx.a(c-sem_init.o)
 .debug_abbrev  0x0000824f       0x97 /media/data/coding/GSoC/AVT/px4+mavlink/Firmware/Build/px4io-v2_default.build/nuttx-export/libs/libnuttx.a(c-sq_remafter.o)
 .debug_abbrev  0x000082e6       0x97 /media/data/coding/GSoC/AVT/px4+mavlink/Firmware/Build/px4io-v2_default.build/nuttx-export/libs/libnuttx.a(c-sq_remfirst.o)
 .debug_abbrev  0x0000837d       0xb6 /media/data/coding/GSoC/AVT/px4+mavlink/Firmware/Build/px4io-v2_default.build/nuttx-export/libs/libnuttx.a(mm-mm_addfreechunk.o)
 .debug_abbrev  0x00008433      0x12f /media/data/coding/GSoC/AVT/px4+mavlink/Firmware/Build/px4io-v2_default.build/nuttx-export/libs/libnuttx.a(mm-mm_initialize.o)
 .debug_abbrev  0x00008562       0x87 /media/data/coding/GSoC/AVT/px4+mavlink/Firmware/Build/px4io-v2_default.build/nuttx-export/libs/libnuttx.a(arch-stm32_allocateheap.o)
 .debug_abbrev  0x000085e9       0x41 /media/data/coding/GSoC/AVT/px4+mavlink/Firmware/Build/px4io-v2_default.build/nuttx-export/libs/libnuttx.a(arch-stm32_idle.o)
 .debug_abbrev  0x0000862a       0x92 /media/data/coding/GSoC/AVT/px4+mavlink/Firmware/Build/px4io-v2_default.build/nuttx-export/libs/libnuttx.a(arch-stm32_lowputc.o)
 .debug_abbrev  0x000086bc       0xfe /media/data/coding/GSoC/AVT/px4+mavlink/Firmware/Build/px4io-v2_default.build/nuttx-export/libs/libnuttx.a(arch-stm32_rcc.o)
 .debug_abbrev  0x000087ba      0x17a /media/data/coding/GSoC/AVT/px4+mavlink/Firmware/Build/px4io-v2_default.build/nuttx-export/libs/libnuttx.a(arch-up_blocktask.o)
 .debug_abbrev  0x00008934       0x84 /media/data/coding/GSoC/AVT/px4+mavlink/Firmware/Build/px4io-v2_default.build/nuttx-export/libs/libnuttx.a(arch-up_copystate.o)
 .debug_abbrev  0x000089b8       0x14 /media/data/coding/GSoC/AVT/px4+mavlink/Firmware/Build/px4io-v2_default.build/nuttx-export/libs/libnuttx.a(arch-up_exception.o)
 .debug_abbrev  0x000089cc      0x18b /media/data/coding/GSoC/AVT/px4+mavlink/Firmware/Build/px4io-v2_default.build/nuttx-export/libs/libnuttx.a(arch-up_exit.o)
 .debug_abbrev  0x00008b57       0x14 /media/data/coding/GSoC/AVT/px4+mavlink/Firmware/Build/px4io-v2_default.build/nuttx-export/libs/libnuttx.a(arch-up_fullcontextrestore.o)
 .debug_abbrev  0x00008b6b       0x6f /media/data/coding/GSoC/AVT/px4+mavlink/Firmware/Build/px4io-v2_default.build/nuttx-export/libs/libnuttx.a(arch-up_initialize.o)
 .debug_abbrev  0x00008bda      0x134 /media/data/coding/GSoC/AVT/px4+mavlink/Firmware/Build/px4io-v2_default.build/nuttx-export/libs/libnuttx.a(arch-up_initialstate.o)
 .debug_abbrev  0x00008d0e       0x71 /media/data/coding/GSoC/AVT/px4+mavlink/Firmware/Build/px4io-v2_default.build/nuttx-export/libs/libnuttx.a(arch-up_interruptcontext.o)
 .debug_abbrev  0x00008d7f       0x68 /media/data/coding/GSoC/AVT/px4+mavlink/Firmware/Build/px4io-v2_default.build/nuttx-export/libs/libnuttx.a(arch-up_mdelay.o)
 .debug_abbrev  0x00008de7       0x14 /media/data/coding/GSoC/AVT/px4+mavlink/Firmware/Build/px4io-v2_default.build/nuttx-export/libs/libnuttx.a(arch-up_switchcontext.o)
 .debug_abbrev  0x00008dfb      0x16b /media/data/coding/GSoC/AVT/px4+mavlink/Firmware/Build/px4io-v2_default.build/nuttx-export/libs/libnuttx.a(arch-up_unblocktask.o)
 .debug_abbrev  0x00008f66      0x284 /media/data/coding/GSoC/AVT/px4+mavlink/Firmware/Build/px4io-v2_default.build/nuttx-export/libs/libnuttx.a(fs-fs_files.o)
 .debug_abbrev  0x000091ea       0xef /media/data/coding/GSoC/AVT/px4+mavlink/Firmware/Build/px4io-v2_default.build/nuttx-export/libs/libnuttx.a(fs-fs_inodeaddref.o)
 .debug_abbrev  0x000092d9      0x102 /media/data/coding/GSoC/AVT/px4+mavlink/Firmware/Build/px4io-v2_default.build/nuttx-export/libs/libnuttx.a(fs-fs_inodefind.o)
 .debug_abbrev  0x000093db      0x263 /media/data/coding/GSoC/AVT/px4+mavlink/Firmware/Build/px4io-v2_default.build/nuttx-export/libs/libnuttx.a(fs-fs_inode.o)
 .debug_abbrev  0x0000963e       0xef /media/data/coding/GSoC/AVT/px4+mavlink/Firmware/Build/px4io-v2_default.build/nuttx-export/libs/libnuttx.a(fs-fs_inoderelease.o)
 .debug_abbrev  0x0000972d      0x10f /media/data/coding/GSoC/AVT/px4+mavlink/Firmware/Build/px4io-v2_default.build/nuttx-export/libs/libnuttx.a(fs-fs_registerdriver.o)
 .debug_abbrev  0x0000983c      0x17a /media/data/coding/GSoC/AVT/px4+mavlink/Firmware/Build/px4io-v2_default.build/nuttx-export/libs/libnuttx.a(sched-group_create.o)
 .debug_abbrev  0x000099b6      0x168 /media/data/coding/GSoC/AVT/px4+mavlink/Firmware/Build/px4io-v2_default.build/nuttx-export/libs/libnuttx.a(sched-group_leave.o)
 .debug_abbrev  0x00009b1e      0x145 /media/data/coding/GSoC/AVT/px4+mavlink/Firmware/Build/px4io-v2_default.build/nuttx-export/libs/libnuttx.a(sched-group_setupidlefiles.o)
 .debug_abbrev  0x00009c63       0x7a /media/data/coding/GSoC/AVT/px4+mavlink/Firmware/Build/px4io-v2_default.build/nuttx-export/libs/libnuttx.a(sched-os_bringup.o)
 .debug_abbrev  0x00009cdd      0x155 /media/data/coding/GSoC/AVT/px4+mavlink/Firmware/Build/px4io-v2_default.build/nuttx-export/libs/libnuttx.a(sched-sched_addblocked.o)
 .debug_abbrev  0x00009e32      0x154 /media/data/coding/GSoC/AVT/px4+mavlink/Firmware/Build/px4io-v2_default.build/nuttx-export/libs/libnuttx.a(sched-sched_addprioritized.o)
 .debug_abbrev  0x00009f86      0x175 /media/data/coding/GSoC/AVT/px4+mavlink/Firmware/Build/px4io-v2_default.build/nuttx-export/libs/libnuttx.a(sched-sched_addreadytorun.o)
 .debug_abbrev  0x0000a0fb      0x12b /media/data/coding/GSoC/AVT/px4+mavlink/Firmware/Build/px4io-v2_default.build/nuttx-export/libs/libnuttx.a(sched-sched_free.o)
 .debug_abbrev  0x0000a226      0x166 /media/data/coding/GSoC/AVT/px4+mavlink/Firmware/Build/px4io-v2_default.build/nuttx-export/libs/libnuttx.a(sched-sched_mergepending.o)
 .debug_abbrev  0x0000a38c      0x164 /media/data/coding/GSoC/AVT/px4+mavlink/Firmware/Build/px4io-v2_default.build/nuttx-export/libs/libnuttx.a(sched-sched_removeblocked.o)
 .debug_abbrev  0x0000a4f0      0x166 /media/data/coding/GSoC/AVT/px4+mavlink/Firmware/Build/px4io-v2_default.build/nuttx-export/libs/libnuttx.a(sched-sched_removereadytorun.o)
 .debug_abbrev  0x0000a656       0x86 /media/data/coding/GSoC/AVT/px4+mavlink/Firmware/Build/px4io-v2_default.build/nuttx-export/libs/libnuttx.a(sched-sem_destroy.o)
 .debug_abbrev  0x0000a6dc      0x1c7 /media/data/coding/GSoC/AVT/px4+mavlink/Firmware/Build/px4io-v2_default.build/nuttx-export/libs/libnuttx.a(sched-task_create.o)
 .debug_abbrev  0x0000a8a3      0x157 /media/data/coding/GSoC/AVT/px4+mavlink/Firmware/Build/px4io-v2_default.build/nuttx-export/libs/libnuttx.a(sched-task_exit.o)
 .debug_abbrev  0x0000a9fa      0x254 /media/data/coding/GSoC/AVT/px4+mavlink/Firmware/Build/px4io-v2_default.build/nuttx-export/libs/libnuttx.a(sched-task_setup.o)
 .debug_abbrev  0x0000ac4e      0x14c /media/data/coding/GSoC/AVT/px4+mavlink/Firmware/Build/px4io-v2_default.build/nuttx-export/libs/libnuttx.a(sched-task_start.o)
 .debug_abbrev  0x0000ad9a      0x20a /media/data/coding/GSoC/AVT/px4+mavlink/Firmware/Build/px4io-v2_default.build/nuttx-export/libs/libnuttx.a(sched-task_terminate.o)
 .debug_abbrev  0x0000afa4       0x86 /media/data/coding/GSoC/AVT/px4+mavlink/Firmware/Build/px4io-v2_default.build/nuttx-export/libs/libnuttx.a(c-dq_addlast.o)
 .debug_abbrev  0x0000b02a       0xa4 /media/data/coding/GSoC/AVT/px4+mavlink/Firmware/Build/px4io-v2_default.build/nuttx-export/libs/libnuttx.a(c-dq_rem.o)
 .debug_abbrev  0x0000b0ce       0x71 /media/data/coding/GSoC/AVT/px4+mavlink/Firmware/Build/px4io-v2_default.build/nuttx-export/libs/libnuttx.a(c-lib_strdup.o)
 .debug_abbrev  0x0000b13f       0xb6 /media/data/coding/GSoC/AVT/px4+mavlink/Firmware/Build/px4io-v2_default.build/nuttx-export/libs/libnuttx.a(arch-stm32_timerisr.o)
 .debug_abbrev  0x0000b1f5      0x14c /media/data/coding/GSoC/AVT/px4+mavlink/Firmware/Build/px4io-v2_default.build/nuttx-export/libs/libnuttx.a(arch-up_createstack.o)
 .debug_abbrev  0x0000b341       0xa0 /media/data/coding/GSoC/AVT/px4+mavlink/Firmware/Build/px4io-v2_default.build/nuttx-export/libs/libnuttx.a(arch-up_doirq.o)
 .debug_abbrev  0x0000b3e1      0x123 /media/data/coding/GSoC/AVT/px4+mavlink/Firmware/Build/px4io-v2_default.build/nuttx-export/libs/libnuttx.a(arch-up_releasestack.o)
 .debug_abbrev  0x0000b504       0x6e /media/data/coding/GSoC/AVT/px4+mavlink/Firmware/Build/px4io-v2_default.build/nuttx-export/libs/libnuttx.a(fs-fs_close.o)
 .debug_abbrev  0x0000b572      0x102 /media/data/coding/GSoC/AVT/px4+mavlink/Firmware/Build/px4io-v2_default.build/nuttx-export/libs/libnuttx.a(fs-fs_filedup2.o)
 .debug_abbrev  0x0000b674      0x1c1 /media/data/coding/GSoC/AVT/px4+mavlink/Firmware/Build/px4io-v2_default.build/nuttx-export/libs/libnuttx.a(fs-fs_inodereserve.o)
 .debug_abbrev  0x0000b835      0x136 /media/data/coding/GSoC/AVT/px4+mavlink/Firmware/Build/px4io-v2_default.build/nuttx-export/libs/libnuttx.a(sched-group_setuptaskfiles.o)
 .debug_abbrev  0x0000b96b       0xc2 /media/data/coding/GSoC/AVT/px4+mavlink/Firmware/Build/px4io-v2_default.build/nuttx-export/libs/libnuttx.a(sched-irq_dispatch.o)
 .debug_abbrev  0x0000ba2d      0x156 /media/data/coding/GSoC/AVT/px4+mavlink/Firmware/Build/px4io-v2_default.build/nuttx-export/libs/libnuttx.a(sched-sched_gettcb.o)
 .debug_abbrev  0x0000bb83      0x13f /media/data/coding/GSoC/AVT/px4+mavlink/Firmware/Build/px4io-v2_default.build/nuttx-export/libs/libnuttx.a(sched-sched_lock.o)
 .debug_abbrev  0x0000bcc2       0x50 /media/data/coding/GSoC/AVT/px4+mavlink/Firmware/Build/px4io-v2_default.build/nuttx-export/libs/libnuttx.a(sched-sched_processtimer.o)
 .debug_abbrev  0x0000bd12      0x1c5 /media/data/coding/GSoC/AVT/px4+mavlink/Firmware/Build/px4io-v2_default.build/nuttx-export/libs/libnuttx.a(sched-sched_releasetcb.o)
 .debug_abbrev  0x0000bed7      0x1cc /media/data/coding/GSoC/AVT/px4+mavlink/Firmware/Build/px4io-v2_default.build/nuttx-export/libs/libnuttx.a(sched-sched_unlock.o)
 .debug_abbrev  0x0000c0a3      0x1ab /media/data/coding/GSoC/AVT/px4+mavlink/Firmware/Build/px4io-v2_default.build/nuttx-export/libs/libnuttx.a(sched-task_activate.o)
 .debug_abbrev  0x0000c24e       0x82 /media/data/coding/GSoC/AVT/px4+mavlink/Firmware/Build/px4io-v2_default.build/nuttx-export/libs/libnuttx.a(c-lib_strcpy.o)
 .debug_abbrev  0x0000c2d0      0x144 /media/data/coding/GSoC/AVT/px4+mavlink/Firmware/Build/px4io-v2_default.build/nuttx-export/libs/libnuttx.a(arch-up_releasepending.o)

.debug_info     0x00000000    0x38e85
 *(.debug_info)
 .debug_info    0x00000000      0x256 /media/data/coding/GSoC/AVT/px4+mavlink/Firmware/Build/px4io-v2_default.build//media/data/coding/GSoC/AVT/px4+mavlink/Firmware/src/drivers/boards/px4io-v2/module.pre.o
 .debug_info    0x00000256     0x1763 /media/data/coding/GSoC/AVT/px4+mavlink/Firmware/Build/px4io-v2_default.build//media/data/coding/GSoC/AVT/px4+mavlink/Firmware/src/drivers/stm32/module.pre.o
 .debug_info    0x000019b9     0x6938 /media/data/coding/GSoC/AVT/px4+mavlink/Firmware/Build/px4io-v2_default.build//media/data/coding/GSoC/AVT/px4+mavlink/Firmware/src/modules/px4iofirmware/module.pre.o
 .debug_info    0x000082f1      0x1bb /media/data/coding/GSoC/AVT/px4+mavlink/Firmware/Build/px4io-v2_default.build/nuttx-export/libs/libnuttx.a(sched-irq_attach.o)
 .debug_info    0x000084ac      0x102 /media/data/coding/GSoC/AVT/px4+mavlink/Firmware/Build/px4io-v2_default.build/nuttx-export/libs/libnuttx.a(sched-irq_initialize.o)
 .debug_info    0x000085ae      0x11d /media/data/coding/GSoC/AVT/px4+mavlink/Firmware/Build/px4io-v2_default.build/nuttx-export/libs/libnuttx.a(sched-irq_unexpectedisr.o)
 .debug_info    0x000086cb       0x93 /media/data/coding/GSoC/AVT/px4+mavlink/Firmware/Build/px4io-v2_default.build/nuttx-export/libs/libnuttx.a(c-lib_abort.o)
 .debug_info    0x0000875e      0x175 /media/data/coding/GSoC/AVT/px4+mavlink/Firmware/Build/px4io-v2_default.build/nuttx-export/libs/libnuttx.a(c-lib_cfsetspeed.o)
 .debug_info    0x000088d3      0x1c8 /media/data/coding/GSoC/AVT/px4+mavlink/Firmware/Build/px4io-v2_default.build/nuttx-export/libs/libnuttx.a(c-lib_crc32.o)
 .debug_info    0x00008a9b      0x1e4 /media/data/coding/GSoC/AVT/px4+mavlink/Firmware/Build/px4io-v2_default.build/nuttx-export/libs/libnuttx.a(c-lib_lowsyslog.o)
 .debug_info    0x00008c7f       0xfe /media/data/coding/GSoC/AVT/px4+mavlink/Firmware/Build/px4io-v2_default.build/nuttx-export/libs/libnuttx.a(c-lib_memchr.o)
 .debug_info    0x00008d7d      0x10e /media/data/coding/GSoC/AVT/px4+mavlink/Firmware/Build/px4io-v2_default.build/nuttx-export/libs/libnuttx.a(c-lib_memcpy.o)
 .debug_info    0x00008e8b       0xf2 /media/data/coding/GSoC/AVT/px4+mavlink/Firmware/Build/px4io-v2_default.build/nuttx-export/libs/libnuttx.a(c-lib_memset.o)
 .debug_info    0x00008f7d      0x114 /media/data/coding/GSoC/AVT/px4+mavlink/Firmware/Build/px4io-v2_default.build/nuttx-export/libs/libnuttx.a(c-lib_printf.o)
 .debug_info    0x00009091      0x3c6 /media/data/coding/GSoC/AVT/px4+mavlink/Firmware/Build/px4io-v2_default.build/nuttx-export/libs/libnuttx.a(c-lib_sscanf.o)
 .debug_info    0x00009457       0xbd /media/data/coding/GSoC/AVT/px4+mavlink/Firmware/Build/px4io-v2_default.build/nuttx-export/libs/libnuttx.a(c-lib_strchr.o)
 .debug_info    0x00009514       0xc6 /media/data/coding/GSoC/AVT/px4+mavlink/Firmware/Build/px4io-v2_default.build/nuttx-export/libs/libnuttx.a(c-lib_strcmp.o)
 .debug_info    0x000095da       0xea /media/data/coding/GSoC/AVT/px4+mavlink/Firmware/Build/px4io-v2_default.build/nuttx-export/libs/libnuttx.a(c-lib_strcspn.o)
 .debug_info    0x000096c4      0x10e /media/data/coding/GSoC/AVT/px4+mavlink/Firmware/Build/px4io-v2_default.build/nuttx-export/libs/libnuttx.a(c-lib_strncpy.o)
 .debug_info    0x000097d2      0x122 /media/data/coding/GSoC/AVT/px4+mavlink/Firmware/Build/px4io-v2_default.build/nuttx-export/libs/libnuttx.a(c-lib_strtol.o)
 .debug_info    0x000098f4      0x100 /media/data/coding/GSoC/AVT/px4+mavlink/Firmware/Build/px4io-v2_default.build/nuttx-export/libs/libnuttx.a(c-lib_strtoul.o)
 .debug_info    0x000099f4      0x20c /media/data/coding/GSoC/AVT/px4+mavlink/Firmware/Build/px4io-v2_default.build/nuttx-export/libs/libnuttx.a(c-lib_syslog.o)
 .debug_info    0x00009c00      0x176 /media/data/coding/GSoC/AVT/px4+mavlink/Firmware/Build/px4io-v2_default.build/nuttx-export/libs/libnuttx.a(c-lib_tcgetattr.o)
 .debug_info    0x00009d76      0x18a /media/data/coding/GSoC/AVT/px4+mavlink/Firmware/Build/px4io-v2_default.build/nuttx-export/libs/libnuttx.a(c-lib_tcsetattr.o)
 .debug_info    0x00009f00      0x1df /media/data/coding/GSoC/AVT/px4+mavlink/Firmware/Build/px4io-v2_default.build/nuttx-export/libs/libnuttx.a(c-lib_vsnprintf.o)
 .debug_info    0x0000a0df      0x129 /media/data/coding/GSoC/AVT/px4+mavlink/Firmware/Build/px4io-v2_default.build/nuttx-export/libs/libnuttx.a(c-sq_addafter.o)
 .debug_info    0x0000a208      0x116 /media/data/coding/GSoC/AVT/px4+mavlink/Firmware/Build/px4io-v2_default.build/nuttx-export/libs/libnuttx.a(c-sq_addfirst.o)
 .debug_info    0x0000a31e      0x116 /media/data/coding/GSoC/AVT/px4+mavlink/Firmware/Build/px4io-v2_default.build/nuttx-export/libs/libnuttx.a(c-sq_addlast.o)
 .debug_info    0x0000a434      0x12f /media/data/coding/GSoC/AVT/px4+mavlink/Firmware/Build/px4io-v2_default.build/nuttx-export/libs/libnuttx.a(c-sq_rem.o)
 .debug_info    0x0000a563       0xe2 /media/data/coding/GSoC/AVT/px4+mavlink/Firmware/Build/px4io-v2_default.build/nuttx-export/libs/libnuttx.a(mm-mm_calloc.o)
 .debug_info    0x0000a645      0x2f8 /media/data/coding/GSoC/AVT/px4+mavlink/Firmware/Build/px4io-v2_default.build/nuttx-export/libs/libnuttx.a(mm-mm_free.o)
 .debug_info    0x0000a93d      0x362 /media/data/coding/GSoC/AVT/px4+mavlink/Firmware/Build/px4io-v2_default.build/nuttx-export/libs/libnuttx.a(mm-mm_mallinfo.o)
 .debug_info    0x0000ac9f      0x324 /media/data/coding/GSoC/AVT/px4+mavlink/Firmware/Build/px4io-v2_default.build/nuttx-export/libs/libnuttx.a(mm-mm_malloc.o)
 .debug_info    0x0000afc3      0x2ea /media/data/coding/GSoC/AVT/px4+mavlink/Firmware/Build/px4io-v2_default.build/nuttx-export/libs/libnuttx.a(mm-mm_sem.o)
 .debug_info    0x0000b2ad       0xd0 /media/data/coding/GSoC/AVT/px4+mavlink/Firmware/Build/px4io-v2_default.build/nuttx-export/libs/libnuttx.a(mm-mm_size2ndx.o)
 .debug_info    0x0000b37d      0x2c6 /media/data/coding/GSoC/AVT/px4+mavlink/Firmware/Build/px4io-v2_default.build/nuttx-export/libs/libnuttx.a(mm-mm_user.o)
 .debug_info    0x0000b643       0xd6 /media/data/coding/GSoC/AVT/px4+mavlink/Firmware/Build/px4io-v2_default.build/nuttx-export/libs/libnuttx.a(mm-mm_zalloc.o)
 .debug_info    0x0000b719      0x8f9 /media/data/coding/GSoC/AVT/px4+mavlink/Firmware/Build/px4io-v2_default.build/nuttx-export/libs/libnuttx.a(arch-stm32_dma.o)
 .debug_info    0x0000c012      0x3d7 /media/data/coding/GSoC/AVT/px4+mavlink/Firmware/Build/px4io-v2_default.build/nuttx-export/libs/libnuttx.a(arch-stm32_gpio.o)
 .debug_info    0x0000c3e9      0x367 /media/data/coding/GSoC/AVT/px4+mavlink/Firmware/Build/px4io-v2_default.build/nuttx-export/libs/libnuttx.a(arch-stm32_irq.o)
 .debug_info    0x0000c750     0x262f /media/data/coding/GSoC/AVT/px4+mavlink/Firmware/Build/px4io-v2_default.build/nuttx-export/libs/libnuttx.a(arch-stm32_serial.o)
 .debug_info    0x0000ed7f      0x15b /media/data/coding/GSoC/AVT/px4+mavlink/Firmware/Build/px4io-v2_default.build/nuttx-export/libs/libnuttx.a(arch-stm32_start.o)
 .debug_info    0x0000eeda      0xd67 /media/data/coding/GSoC/AVT/px4+mavlink/Firmware/Build/px4io-v2_default.build/nuttx-export/libs/libnuttx.a(arch-up_assert.o)
 .debug_info    0x0000fc41      0x1da /media/data/coding/GSoC/AVT/px4+mavlink/Firmware/Build/px4io-v2_default.build/nuttx-export/libs/libnuttx.a(arch-up_hardfault.o)
 .debug_info    0x0000fe1b      0x174 /media/data/coding/GSoC/AVT/px4+mavlink/Firmware/Build/px4io-v2_default.build/nuttx-export/libs/libnuttx.a(arch-up_modifyreg32.o)
 .debug_info    0x0000ff8f      0x122 /media/data/coding/GSoC/AVT/px4+mavlink/Firmware/Build/px4io-v2_default.build/nuttx-export/libs/libnuttx.a(arch-up_svcall.o)
 .debug_info    0x000100b1       0xe2 /media/data/coding/GSoC/AVT/px4+mavlink/Firmware/Build/px4io-v2_default.build/nuttx-export/libs/libnuttx.a(arch-up_udelay.o)
 .debug_info    0x00010193       0x70 /media/data/coding/GSoC/AVT/px4+mavlink/Firmware/Build/px4io-v2_default.build/nuttx-export/libs/libnuttx.a(arch-up_vectors.o)
 .debug_info    0x00010203      0x328 /media/data/coding/GSoC/AVT/px4+mavlink/Firmware/Build/px4io-v2_default.build/nuttx-export/libs/libnuttx.a(cxx-libxx_cxa_atexit.o)
 .debug_info    0x0001052b       0x76 /media/data/coding/GSoC/AVT/px4+mavlink/Firmware/Build/px4io-v2_default.build/nuttx-export/libs/libnuttx.a(cxx-libxx_cxapurevirtual.o)
 .debug_info    0x000105a1      0x2dc /media/data/coding/GSoC/AVT/px4+mavlink/Firmware/Build/px4io-v2_default.build/nuttx-export/libs/libnuttx.a(cxx-libxx_delete.o)
 .debug_info    0x0001087d      0x316 /media/data/coding/GSoC/AVT/px4+mavlink/Firmware/Build/px4io-v2_default.build/nuttx-export/libs/libnuttx.a(cxx-libxx_eabi_atexit.o)
 .debug_info    0x00010b93      0x44f /media/data/coding/GSoC/AVT/px4+mavlink/Firmware/Build/px4io-v2_default.build/nuttx-export/libs/libnuttx.a(cxx-libxx_new.o)
 .debug_info    0x00010fe2      0x86f /media/data/coding/GSoC/AVT/px4+mavlink/Firmware/Build/px4io-v2_default.build/nuttx-export/libs/libnuttx.a(fs-fs_ioctl.o)
 .debug_info    0x00011851      0x8e8 /media/data/coding/GSoC/AVT/px4+mavlink/Firmware/Build/px4io-v2_default.build/nuttx-export/libs/libnuttx.a(fs-fs_open.o)
 .debug_info    0x00012139      0x8d0 /media/data/coding/GSoC/AVT/px4+mavlink/Firmware/Build/px4io-v2_default.build/nuttx-export/libs/libnuttx.a(fs-fs_read.o)
 .debug_info    0x00012a09      0x8ec /media/data/coding/GSoC/AVT/px4+mavlink/Firmware/Build/px4io-v2_default.build/nuttx-export/libs/libnuttx.a(fs-fs_write.o)
 .debug_info    0x000132f5      0xac5 /media/data/coding/GSoC/AVT/px4+mavlink/Firmware/Build/px4io-v2_default.build/nuttx-export/libs/libnuttx.a(drivers-serialirq.o)
 .debug_info    0x00013dba     0x1383 /media/data/coding/GSoC/AVT/px4+mavlink/Firmware/Build/px4io-v2_default.build/nuttx-export/libs/libnuttx.a(drivers-serial.o)
 .debug_info    0x0001513d      0xb33 /media/data/coding/GSoC/AVT/px4+mavlink/Firmware/Build/px4io-v2_default.build/nuttx-export/libs/libnuttx.a(sched-errno_getptr.o)
 .debug_info    0x00015c70      0xae9 /media/data/coding/GSoC/AVT/px4+mavlink/Firmware/Build/px4io-v2_default.build/nuttx-export/libs/libnuttx.a(sched-exit.o)
 .debug_info    0x00016759      0xac9 /media/data/coding/GSoC/AVT/px4+mavlink/Firmware/Build/px4io-v2_default.build/nuttx-export/libs/libnuttx.a(sched-getpid.o)
 .debug_info    0x00017222      0xe1a /media/data/coding/GSoC/AVT/px4+mavlink/Firmware/Build/px4io-v2_default.build/nuttx-export/libs/libnuttx.a(sched-os_start.o)
 .debug_info    0x0001803c      0x1f2 /media/data/coding/GSoC/AVT/px4+mavlink/Firmware/Build/px4io-v2_default.build/nuttx-export/libs/libnuttx.a(sched-sched_garbage.o)
 .debug_info    0x0001822e      0xaf0 /media/data/coding/GSoC/AVT/px4+mavlink/Firmware/Build/px4io-v2_default.build/nuttx-export/libs/libnuttx.a(sched-sched_getfiles.o)
 .debug_info    0x00018d1e      0xb8b /media/data/coding/GSoC/AVT/px4+mavlink/Firmware/Build/px4io-v2_default.build/nuttx-export/libs/libnuttx.a(sched-sem_post.o)
 .debug_info    0x000198a9      0xb89 /media/data/coding/GSoC/AVT/px4+mavlink/Firmware/Build/px4io-v2_default.build/nuttx-export/libs/libnuttx.a(sched-sem_trywait.o)
 .debug_info    0x0001a432      0xbc0 /media/data/coding/GSoC/AVT/px4+mavlink/Firmware/Build/px4io-v2_default.build/nuttx-export/libs/libnuttx.a(sched-sem_wait.o)
 .debug_info    0x0001aff2      0xa65 /media/data/coding/GSoC/AVT/px4+mavlink/Firmware/Build/px4io-v2_default.build/nuttx-export/libs/libnuttx.a(sched-task_exithook.o)
 .debug_info    0x0001ba57      0xace /media/data/coding/GSoC/AVT/px4+mavlink/Firmware/Build/px4io-v2_default.build/nuttx-export/libs/libnuttx.a(sched-task_recover.o)
 .debug_info    0x0001c525      0x2d9 /media/data/coding/GSoC/AVT/px4+mavlink/Firmware/Build/px4io-v2_default.build/nuttx-export/libs/libnuttx.a(sched-wd_cancel.o)
 .debug_info    0x0001c7fe      0x29d /media/data/coding/GSoC/AVT/px4+mavlink/Firmware/Build/px4io-v2_default.build/nuttx-export/libs/libnuttx.a(sched-wd_delete.o)
 .debug_info    0x0001ca9b      0x29d /media/data/coding/GSoC/AVT/px4+mavlink/Firmware/Build/px4io-v2_default.build/nuttx-export/libs/libnuttx.a(sched-wd_initialize.o)
 .debug_info    0x0001cd38      0x124 /media/data/coding/GSoC/AVT/px4+mavlink/Firmware/Build/px4io-v2_default.build/nuttx-export/libs/libnuttx.a(c-dq_addfirst.o)
 .debug_info    0x0001ce5c      0x16d /media/data/coding/GSoC/AVT/px4+mavlink/Firmware/Build/px4io-v2_default.build/nuttx-export/libs/libnuttx.a(c-lib_cfgetspeed.o)
 .debug_info    0x0001cfc9       0xe1 /media/data/coding/GSoC/AVT/px4+mavlink/Firmware/Build/px4io-v2_default.build/nuttx-export/libs/libnuttx.a(c-lib_checkbase.o)
 .debug_info    0x0001d0aa      0x111 /media/data/coding/GSoC/AVT/px4+mavlink/Firmware/Build/px4io-v2_default.build/nuttx-export/libs/libnuttx.a(c-lib_isbasedigit.o)
 .debug_info    0x0001d1bb     0x1836 /media/data/coding/GSoC/AVT/px4+mavlink/Firmware/Build/px4io-v2_default.build/nuttx-export/libs/libnuttx.a(c-lib_libvsprintf.o)
 .debug_info    0x0001e9f1      0x12e /media/data/coding/GSoC/AVT/px4+mavlink/Firmware/Build/px4io-v2_default.build/nuttx-export/libs/libnuttx.a(c-lib_lowoutstream.o)
 .debug_info    0x0001eb1f      0x1e3 /media/data/coding/GSoC/AVT/px4+mavlink/Firmware/Build/px4io-v2_default.build/nuttx-export/libs/libnuttx.a(c-lib_memoutstream.o)
 .debug_info    0x0001ed02      0x12c /media/data/coding/GSoC/AVT/px4+mavlink/Firmware/Build/px4io-v2_default.build/nuttx-export/libs/libnuttx.a(c-lib_nulloutstream.o)
 .debug_info    0x0001ee2e      0x194 /media/data/coding/GSoC/AVT/px4+mavlink/Firmware/Build/px4io-v2_default.build/nuttx-export/libs/libnuttx.a(c-lib_rawoutstream.o)
 .debug_info    0x0001efc2       0xcb /media/data/coding/GSoC/AVT/px4+mavlink/Firmware/Build/px4io-v2_default.build/nuttx-export/libs/libnuttx.a(c-lib_skipspace.o)
 .debug_info    0x0001f08d       0xdb /media/data/coding/GSoC/AVT/px4+mavlink/Firmware/Build/px4io-v2_default.build/nuttx-export/libs/libnuttx.a(c-lib_strlen.o)
 .debug_info    0x0001f168      0x104 /media/data/coding/GSoC/AVT/px4+mavlink/Firmware/Build/px4io-v2_default.build/nuttx-export/libs/libnuttx.a(c-sem_init.o)
 .debug_info    0x0001f26c      0x12d /media/data/coding/GSoC/AVT/px4+mavlink/Firmware/Build/px4io-v2_default.build/nuttx-export/libs/libnuttx.a(c-sq_remafter.o)
 .debug_info    0x0001f399      0x11e /media/data/coding/GSoC/AVT/px4+mavlink/Firmware/Build/px4io-v2_default.build/nuttx-export/libs/libnuttx.a(c-sq_remfirst.o)
 .debug_info    0x0001f4b7      0x275 /media/data/coding/GSoC/AVT/px4+mavlink/Firmware/Build/px4io-v2_default.build/nuttx-export/libs/libnuttx.a(mm-mm_addfreechunk.o)
 .debug_info    0x0001f72c      0x35d /media/data/coding/GSoC/AVT/px4+mavlink/Firmware/Build/px4io-v2_default.build/nuttx-export/libs/libnuttx.a(mm-mm_initialize.o)
 .debug_info    0x0001fa89      0x109 /media/data/coding/GSoC/AVT/px4+mavlink/Firmware/Build/px4io-v2_default.build/nuttx-export/libs/libnuttx.a(arch-stm32_allocateheap.o)
 .debug_info    0x0001fb92       0x99 /media/data/coding/GSoC/AVT/px4+mavlink/Firmware/Build/px4io-v2_default.build/nuttx-export/libs/libnuttx.a(arch-stm32_idle.o)
 .debug_info    0x0001fc2b       0xf0 /media/data/coding/GSoC/AVT/px4+mavlink/Firmware/Build/px4io-v2_default.build/nuttx-export/libs/libnuttx.a(arch-stm32_lowputc.o)
 .debug_info    0x0001fd1b      0x22f /media/data/coding/GSoC/AVT/px4+mavlink/Firmware/Build/px4io-v2_default.build/nuttx-export/libs/libnuttx.a(arch-stm32_rcc.o)
 .debug_info    0x0001ff4a      0xb9e /media/data/coding/GSoC/AVT/px4+mavlink/Firmware/Build/px4io-v2_default.build/nuttx-export/libs/libnuttx.a(arch-up_blocktask.o)
 .debug_info    0x00020ae8       0xe2 /media/data/coding/GSoC/AVT/px4+mavlink/Firmware/Build/px4io-v2_default.build/nuttx-export/libs/libnuttx.a(arch-up_copystate.o)
 .debug_info    0x00020bca       0x74 /media/data/coding/GSoC/AVT/px4+mavlink/Firmware/Build/px4io-v2_default.build/nuttx-export/libs/libnuttx.a(arch-up_exception.o)
 .debug_info    0x00020c3e      0xb31 /media/data/coding/GSoC/AVT/px4+mavlink/Firmware/Build/px4io-v2_default.build/nuttx-export/libs/libnuttx.a(arch-up_exit.o)
 .debug_info    0x0002176f       0x7d /media/data/coding/GSoC/AVT/px4+mavlink/Firmware/Build/px4io-v2_default.build/nuttx-export/libs/libnuttx.a(arch-up_fullcontextrestore.o)
 .debug_info    0x000217ec       0xd5 /media/data/coding/GSoC/AVT/px4+mavlink/Firmware/Build/px4io-v2_default.build/nuttx-export/libs/libnuttx.a(arch-up_initialize.o)
 .debug_info    0x000218c1      0xa5c /media/data/coding/GSoC/AVT/px4+mavlink/Firmware/Build/px4io-v2_default.build/nuttx-export/libs/libnuttx.a(arch-up_initialstate.o)
 .debug_info    0x0002231d       0xfa /media/data/coding/GSoC/AVT/px4+mavlink/Firmware/Build/px4io-v2_default.build/nuttx-export/libs/libnuttx.a(arch-up_interruptcontext.o)
 .debug_info    0x00022417       0xcc /media/data/coding/GSoC/AVT/px4+mavlink/Firmware/Build/px4io-v2_default.build/nuttx-export/libs/libnuttx.a(arch-up_mdelay.o)
 .debug_info    0x000224e3       0x78 /media/data/coding/GSoC/AVT/px4+mavlink/Firmware/Build/px4io-v2_default.build/nuttx-export/libs/libnuttx.a(arch-up_switchcontext.o)
 .debug_info    0x0002255b      0xb5b /media/data/coding/GSoC/AVT/px4+mavlink/Firmware/Build/px4io-v2_default.build/nuttx-export/libs/libnuttx.a(arch-up_unblocktask.o)
 .debug_info    0x000230b6      0xba0 /media/data/coding/GSoC/AVT/px4+mavlink/Firmware/Build/px4io-v2_default.build/nuttx-export/libs/libnuttx.a(fs-fs_files.o)
 .debug_info    0x00023c56      0x788 /media/data/coding/GSoC/AVT/px4+mavlink/Firmware/Build/px4io-v2_default.build/nuttx-export/libs/libnuttx.a(fs-fs_inodeaddref.o)
 .debug_info    0x000243de      0x7b4 /media/data/coding/GSoC/AVT/px4+mavlink/Firmware/Build/px4io-v2_default.build/nuttx-export/libs/libnuttx.a(fs-fs_inodefind.o)
 .debug_info    0x00024b92     0x1069 /media/data/coding/GSoC/AVT/px4+mavlink/Firmware/Build/px4io-v2_default.build/nuttx-export/libs/libnuttx.a(fs-fs_inode.o)
 .debug_info    0x00025bfb      0x78f /media/data/coding/GSoC/AVT/px4+mavlink/Firmware/Build/px4io-v2_default.build/nuttx-export/libs/libnuttx.a(fs-fs_inoderelease.o)
 .debug_info    0x0002638a      0x7d7 /media/data/coding/GSoC/AVT/px4+mavlink/Firmware/Build/px4io-v2_default.build/nuttx-export/libs/libnuttx.a(fs-fs_registerdriver.o)
 .debug_info    0x00026b61      0xaf6 /media/data/coding/GSoC/AVT/px4+mavlink/Firmware/Build/px4io-v2_default.build/nuttx-export/libs/libnuttx.a(sched-group_create.o)
 .debug_info    0x00027657      0xa86 /media/data/coding/GSoC/AVT/px4+mavlink/Firmware/Build/px4io-v2_default.build/nuttx-export/libs/libnuttx.a(sched-group_leave.o)
 .debug_info    0x000280dd      0xabb /media/data/coding/GSoC/AVT/px4+mavlink/Firmware/Build/px4io-v2_default.build/nuttx-export/libs/libnuttx.a(sched-group_setupidlefiles.o)
 .debug_info    0x00028b98       0xf6 /media/data/coding/GSoC/AVT/px4+mavlink/Firmware/Build/px4io-v2_default.build/nuttx-export/libs/libnuttx.a(sched-os_bringup.o)
 .debug_info    0x00028c8e      0xb7f /media/data/coding/GSoC/AVT/px4+mavlink/Firmware/Build/px4io-v2_default.build/nuttx-export/libs/libnuttx.a(sched-sched_addblocked.o)
 .debug_info    0x0002980d      0xb10 /media/data/coding/GSoC/AVT/px4+mavlink/Firmware/Build/px4io-v2_default.build/nuttx-export/libs/libnuttx.a(sched-sched_addprioritized.o)
 .debug_info    0x0002a31d      0xb4b /media/data/coding/GSoC/AVT/px4+mavlink/Firmware/Build/px4io-v2_default.build/nuttx-export/libs/libnuttx.a(sched-sched_addreadytorun.o)
 .debug_info    0x0002ae68      0x1c4 /media/data/coding/GSoC/AVT/px4+mavlink/Firmware/Build/px4io-v2_default.build/nuttx-export/libs/libnuttx.a(sched-sched_free.o)
 .debug_info    0x0002b02c      0xb6b /media/data/coding/GSoC/AVT/px4+mavlink/Firmware/Build/px4io-v2_default.build/nuttx-export/libs/libnuttx.a(sched-sched_mergepending.o)
 .debug_info    0x0002bb97      0xb7f /media/data/coding/GSoC/AVT/px4+mavlink/Firmware/Build/px4io-v2_default.build/nuttx-export/libs/libnuttx.a(sched-sched_removeblocked.o)
 .debug_info    0x0002c716      0xb24 /media/data/coding/GSoC/AVT/px4+mavlink/Firmware/Build/px4io-v2_default.build/nuttx-export/libs/libnuttx.a(sched-sched_removereadytorun.o)
 .debug_info    0x0002d23a       0xf0 /media/data/coding/GSoC/AVT/px4+mavlink/Firmware/Build/px4io-v2_default.build/nuttx-export/libs/libnuttx.a(sched-sem_destroy.o)
 .debug_info    0x0002d32a      0xcac /media/data/coding/GSoC/AVT/px4+mavlink/Firmware/Build/px4io-v2_default.build/nuttx-export/libs/libnuttx.a(sched-task_create.o)
 .debug_info    0x0002dfd6      0xb3a /media/data/coding/GSoC/AVT/px4+mavlink/Firmware/Build/px4io-v2_default.build/nuttx-export/libs/libnuttx.a(sched-task_exit.o)
 .debug_info    0x0002eb10      0xe90 /media/data/coding/GSoC/AVT/px4+mavlink/Firmware/Build/px4io-v2_default.build/nuttx-export/libs/libnuttx.a(sched-task_setup.o)
 .debug_info    0x0002f9a0      0xb4b /media/data/coding/GSoC/AVT/px4+mavlink/Firmware/Build/px4io-v2_default.build/nuttx-export/libs/libnuttx.a(sched-task_start.o)
 .debug_info    0x000304eb      0xc22 /media/data/coding/GSoC/AVT/px4+mavlink/Firmware/Build/px4io-v2_default.build/nuttx-export/libs/libnuttx.a(sched-task_terminate.o)
 .debug_info    0x0003110d      0x124 /media/data/coding/GSoC/AVT/px4+mavlink/Firmware/Build/px4io-v2_default.build/nuttx-export/libs/libnuttx.a(c-dq_addlast.o)
 .debug_info    0x00031231      0x141 /media/data/coding/GSoC/AVT/px4+mavlink/Firmware/Build/px4io-v2_default.build/nuttx-export/libs/libnuttx.a(c-dq_rem.o)
 .debug_info    0x00031372       0xcc /media/data/coding/GSoC/AVT/px4+mavlink/Firmware/Build/px4io-v2_default.build/nuttx-export/libs/libnuttx.a(c-lib_strdup.o)
 .debug_info    0x0003143e      0x12c /media/data/coding/GSoC/AVT/px4+mavlink/Firmware/Build/px4io-v2_default.build/nuttx-export/libs/libnuttx.a(arch-stm32_timerisr.o)
 .debug_info    0x0003156a      0xa8d /media/data/coding/GSoC/AVT/px4+mavlink/Firmware/Build/px4io-v2_default.build/nuttx-export/libs/libnuttx.a(arch-up_createstack.o)
 .debug_info    0x00031ff7      0x112 /media/data/coding/GSoC/AVT/px4+mavlink/Firmware/Build/px4io-v2_default.build/nuttx-export/libs/libnuttx.a(arch-up_doirq.o)
 .debug_info    0x00032109      0xa53 /media/data/coding/GSoC/AVT/px4+mavlink/Firmware/Build/px4io-v2_default.build/nuttx-export/libs/libnuttx.a(arch-up_releasestack.o)
 .debug_info    0x00032b5c       0xd6 /media/data/coding/GSoC/AVT/px4+mavlink/Firmware/Build/px4io-v2_default.build/nuttx-export/libs/libnuttx.a(fs-fs_close.o)
 .debug_info    0x00032c32      0x81a /media/data/coding/GSoC/AVT/px4+mavlink/Firmware/Build/px4io-v2_default.build/nuttx-export/libs/libnuttx.a(fs-fs_filedup2.o)
 .debug_info    0x0003344c      0xa5c /media/data/coding/GSoC/AVT/px4+mavlink/Firmware/Build/px4io-v2_default.build/nuttx-export/libs/libnuttx.a(fs-fs_inodereserve.o)
 .debug_info    0x00033ea8      0xaad /media/data/coding/GSoC/AVT/px4+mavlink/Firmware/Build/px4io-v2_default.build/nuttx-export/libs/libnuttx.a(sched-group_setuptaskfiles.o)
 .debug_info    0x00034955      0x11d /media/data/coding/GSoC/AVT/px4+mavlink/Firmware/Build/px4io-v2_default.build/nuttx-export/libs/libnuttx.a(sched-irq_dispatch.o)
 .debug_info    0x00034a72      0xac6 /media/data/coding/GSoC/AVT/px4+mavlink/Firmware/Build/px4io-v2_default.build/nuttx-export/libs/libnuttx.a(sched-sched_gettcb.o)
 .debug_info    0x00035538      0xadc /media/data/coding/GSoC/AVT/px4+mavlink/Firmware/Build/px4io-v2_default.build/nuttx-export/libs/libnuttx.a(sched-sched_lock.o)
 .debug_info    0x00036014       0xa4 /media/data/coding/GSoC/AVT/px4+mavlink/Firmware/Build/px4io-v2_default.build/nuttx-export/libs/libnuttx.a(sched-sched_processtimer.o)
 .debug_info    0x000360b8      0xb8b /media/data/coding/GSoC/AVT/px4+mavlink/Firmware/Build/px4io-v2_default.build/nuttx-export/libs/libnuttx.a(sched-sched_releasetcb.o)
 .debug_info    0x00036c43      0xb8b /media/data/coding/GSoC/AVT/px4+mavlink/Firmware/Build/px4io-v2_default.build/nuttx-export/libs/libnuttx.a(sched-sched_unlock.o)
 .debug_info    0x000377ce      0xad2 /media/data/coding/GSoC/AVT/px4+mavlink/Firmware/Build/px4io-v2_default.build/nuttx-export/libs/libnuttx.a(sched-task_activate.o)
 .debug_info    0x000382a0       0xd0 /media/data/coding/GSoC/AVT/px4+mavlink/Firmware/Build/px4io-v2_default.build/nuttx-export/libs/libnuttx.a(c-lib_strcpy.o)
 .debug_info    0x00038370      0xb15 /media/data/coding/GSoC/AVT/px4+mavlink/Firmware/Build/px4io-v2_default.build/nuttx-export/libs/libnuttx.a(arch-up_releasepending.o)

.debug_line     0x00000000    0x12d0c
 *(.debug_line)
 .debug_line    0x00000000        0x0 /media/data/coding/GSoC/AVT/px4+mavlink/Firmware/Build/px4io-v2_default.build//media/data/coding/GSoC/AVT/px4+mavlink/Firmware/Build/px4io-v2_default.build/empty.c.o
 .debug_line    0x00000000      0x3a7 /media/data/coding/GSoC/AVT/px4+mavlink/Firmware/Build/px4io-v2_default.build//media/data/coding/GSoC/AVT/px4+mavlink/Firmware/src/drivers/boards/px4io-v2/module.pre.o
 .debug_line    0x000003a7      0xb4c /media/data/coding/GSoC/AVT/px4+mavlink/Firmware/Build/px4io-v2_default.build//media/data/coding/GSoC/AVT/px4+mavlink/Firmware/src/drivers/stm32/module.pre.o
 .debug_line    0x00000ef3     0x3a32 /media/data/coding/GSoC/AVT/px4+mavlink/Firmware/Build/px4io-v2_default.build//media/data/coding/GSoC/AVT/px4+mavlink/Firmware/src/modules/px4iofirmware/module.pre.o
 .debug_line    0x00004925      0x13d /media/data/coding/GSoC/AVT/px4+mavlink/Firmware/Build/px4io-v2_default.build/nuttx-export/libs/libnuttx.a(sched-irq_attach.o)
 .debug_line    0x00004a62       0xb7 /media/data/coding/GSoC/AVT/px4+mavlink/Firmware/Build/px4io-v2_default.build/nuttx-export/libs/libnuttx.a(sched-irq_initialize.o)
 .debug_line    0x00004b19      0x112 /media/data/coding/GSoC/AVT/px4+mavlink/Firmware/Build/px4io-v2_default.build/nuttx-export/libs/libnuttx.a(sched-irq_unexpectedisr.o)
 .debug_line    0x00004c2b       0x82 /media/data/coding/GSoC/AVT/px4+mavlink/Firmware/Build/px4io-v2_default.build/nuttx-export/libs/libnuttx.a(c-lib_abort.o)
 .debug_line    0x00004cad       0xd4 /media/data/coding/GSoC/AVT/px4+mavlink/Firmware/Build/px4io-v2_default.build/nuttx-export/libs/libnuttx.a(c-lib_cfsetspeed.o)
 .debug_line    0x00004d81      0x16b /media/data/coding/GSoC/AVT/px4+mavlink/Firmware/Build/px4io-v2_default.build/nuttx-export/libs/libnuttx.a(c-lib_crc32.o)
 .debug_line    0x00004eec      0x158 /media/data/coding/GSoC/AVT/px4+mavlink/Firmware/Build/px4io-v2_default.build/nuttx-export/libs/libnuttx.a(c-lib_lowsyslog.o)
 .debug_line    0x00005044      0x128 /media/data/coding/GSoC/AVT/px4+mavlink/Firmware/Build/px4io-v2_default.build/nuttx-export/libs/libnuttx.a(c-lib_memchr.o)
 .debug_line    0x0000516c      0x12f /media/data/coding/GSoC/AVT/px4+mavlink/Firmware/Build/px4io-v2_default.build/nuttx-export/libs/libnuttx.a(c-lib_memcpy.o)
 .debug_line    0x0000529b      0x134 /media/data/coding/GSoC/AVT/px4+mavlink/Firmware/Build/px4io-v2_default.build/nuttx-export/libs/libnuttx.a(c-lib_memset.o)
 .debug_line    0x000053cf       0xf6 /media/data/coding/GSoC/AVT/px4+mavlink/Firmware/Build/px4io-v2_default.build/nuttx-export/libs/libnuttx.a(c-lib_printf.o)
 .debug_line    0x000054c5      0x38e /media/data/coding/GSoC/AVT/px4+mavlink/Firmware/Build/px4io-v2_default.build/nuttx-export/libs/libnuttx.a(c-lib_sscanf.o)
 .debug_line    0x00005853       0x89 /media/data/coding/GSoC/AVT/px4+mavlink/Firmware/Build/px4io-v2_default.build/nuttx-export/libs/libnuttx.a(c-lib_strchr.o)
 .debug_line    0x000058dc       0x8a /media/data/coding/GSoC/AVT/px4+mavlink/Firmware/Build/px4io-v2_default.build/nuttx-export/libs/libnuttx.a(c-lib_strcmp.o)
 .debug_line    0x00005966      0x11c /media/data/coding/GSoC/AVT/px4+mavlink/Firmware/Build/px4io-v2_default.build/nuttx-export/libs/libnuttx.a(c-lib_strcspn.o)
 .debug_line    0x00005a82      0x11b /media/data/coding/GSoC/AVT/px4+mavlink/Firmware/Build/px4io-v2_default.build/nuttx-export/libs/libnuttx.a(c-lib_strncpy.o)
 .debug_line    0x00005b9d       0xf0 /media/data/coding/GSoC/AVT/px4+mavlink/Firmware/Build/px4io-v2_default.build/nuttx-export/libs/libnuttx.a(c-lib_strtol.o)
 .debug_line    0x00005c8d       0x99 /media/data/coding/GSoC/AVT/px4+mavlink/Firmware/Build/px4io-v2_default.build/nuttx-export/libs/libnuttx.a(c-lib_strtoul.o)
 .debug_line    0x00005d26      0x159 /media/data/coding/GSoC/AVT/px4+mavlink/Firmware/Build/px4io-v2_default.build/nuttx-export/libs/libnuttx.a(c-lib_syslog.o)
 .debug_line    0x00005e7f       0xd5 /media/data/coding/GSoC/AVT/px4+mavlink/Firmware/Build/px4io-v2_default.build/nuttx-export/libs/libnuttx.a(c-lib_tcgetattr.o)
 .debug_line    0x00005f54       0xd6 /media/data/coding/GSoC/AVT/px4+mavlink/Firmware/Build/px4io-v2_default.build/nuttx-export/libs/libnuttx.a(c-lib_tcsetattr.o)
 .debug_line    0x0000602a      0x1c4 /media/data/coding/GSoC/AVT/px4+mavlink/Firmware/Build/px4io-v2_default.build/nuttx-export/libs/libnuttx.a(c-lib_vsnprintf.o)
 .debug_line    0x000061ee       0x90 /media/data/coding/GSoC/AVT/px4+mavlink/Firmware/Build/px4io-v2_default.build/nuttx-export/libs/libnuttx.a(c-sq_addafter.o)
 .debug_line    0x0000627e       0x85 /media/data/coding/GSoC/AVT/px4+mavlink/Firmware/Build/px4io-v2_default.build/nuttx-export/libs/libnuttx.a(c-sq_addfirst.o)
 .debug_line    0x00006303       0x85 /media/data/coding/GSoC/AVT/px4+mavlink/Firmware/Build/px4io-v2_default.build/nuttx-export/libs/libnuttx.a(c-sq_addlast.o)
 .debug_line    0x00006388       0x9c /media/data/coding/GSoC/AVT/px4+mavlink/Firmware/Build/px4io-v2_default.build/nuttx-export/libs/libnuttx.a(c-sq_rem.o)
 .debug_line    0x00006424      0x112 /media/data/coding/GSoC/AVT/px4+mavlink/Firmware/Build/px4io-v2_default.build/nuttx-export/libs/libnuttx.a(mm-mm_calloc.o)
 .debug_line    0x00006536      0x17f /media/data/coding/GSoC/AVT/px4+mavlink/Firmware/Build/px4io-v2_default.build/nuttx-export/libs/libnuttx.a(mm-mm_free.o)
 .debug_line    0x000066b5      0x182 /media/data/coding/GSoC/AVT/px4+mavlink/Firmware/Build/px4io-v2_default.build/nuttx-export/libs/libnuttx.a(mm-mm_mallinfo.o)
 .debug_line    0x00006837      0x18d /media/data/coding/GSoC/AVT/px4+mavlink/Firmware/Build/px4io-v2_default.build/nuttx-export/libs/libnuttx.a(mm-mm_malloc.o)
 .debug_line    0x000069c4      0x1bc /media/data/coding/GSoC/AVT/px4+mavlink/Firmware/Build/px4io-v2_default.build/nuttx-export/libs/libnuttx.a(mm-mm_sem.o)
 .debug_line    0x00006b80      0x13e /media/data/coding/GSoC/AVT/px4+mavlink/Firmware/Build/px4io-v2_default.build/nuttx-export/libs/libnuttx.a(mm-mm_size2ndx.o)
 .debug_line    0x00006cbe      0x182 /media/data/coding/GSoC/AVT/px4+mavlink/Firmware/Build/px4io-v2_default.build/nuttx-export/libs/libnuttx.a(mm-mm_user.o)
 .debug_line    0x00006e40      0x108 /media/data/coding/GSoC/AVT/px4+mavlink/Firmware/Build/px4io-v2_default.build/nuttx-export/libs/libnuttx.a(mm-mm_zalloc.o)
 .debug_line    0x00006f48      0x371 /media/data/coding/GSoC/AVT/px4+mavlink/Firmware/Build/px4io-v2_default.build/nuttx-export/libs/libnuttx.a(arch-stm32_dma.o)
 .debug_line    0x000072b9      0x216 /media/data/coding/GSoC/AVT/px4+mavlink/Firmware/Build/px4io-v2_default.build/nuttx-export/libs/libnuttx.a(arch-stm32_gpio.o)
 .debug_line    0x000074cf      0x27c /media/data/coding/GSoC/AVT/px4+mavlink/Firmware/Build/px4io-v2_default.build/nuttx-export/libs/libnuttx.a(arch-stm32_irq.o)
 .debug_line    0x0000774b      0x958 /media/data/coding/GSoC/AVT/px4+mavlink/Firmware/Build/px4io-v2_default.build/nuttx-export/libs/libnuttx.a(arch-stm32_serial.o)
 .debug_line    0x000080a3      0x12f /media/data/coding/GSoC/AVT/px4+mavlink/Firmware/Build/px4io-v2_default.build/nuttx-export/libs/libnuttx.a(arch-stm32_start.o)
 .debug_line    0x000081d2      0x303 /media/data/coding/GSoC/AVT/px4+mavlink/Firmware/Build/px4io-v2_default.build/nuttx-export/libs/libnuttx.a(arch-up_assert.o)
 .debug_line    0x000084d5      0x17c /media/data/coding/GSoC/AVT/px4+mavlink/Firmware/Build/px4io-v2_default.build/nuttx-export/libs/libnuttx.a(arch-up_hardfault.o)
 .debug_line    0x00008651      0x125 /media/data/coding/GSoC/AVT/px4+mavlink/Firmware/Build/px4io-v2_default.build/nuttx-export/libs/libnuttx.a(arch-up_modifyreg32.o)
 .debug_line    0x00008776      0x137 /media/data/coding/GSoC/AVT/px4+mavlink/Firmware/Build/px4io-v2_default.build/nuttx-export/libs/libnuttx.a(arch-up_svcall.o)
 .debug_line    0x000088ad      0x17e /media/data/coding/GSoC/AVT/px4+mavlink/Firmware/Build/px4io-v2_default.build/nuttx-export/libs/libnuttx.a(arch-up_udelay.o)
 .debug_line    0x00008a2b       0x35 /media/data/coding/GSoC/AVT/px4+mavlink/Firmware/Build/px4io-v2_default.build/nuttx-export/libs/libnuttx.a(arch-up_vectors.o)
 .debug_line    0x00008a60      0x172 /media/data/coding/GSoC/AVT/px4+mavlink/Firmware/Build/px4io-v2_default.build/nuttx-export/libs/libnuttx.a(cxx-libxx_cxa_atexit.o)
 .debug_line    0x00008bd2       0x4c /media/data/coding/GSoC/AVT/px4+mavlink/Firmware/Build/px4io-v2_default.build/nuttx-export/libs/libnuttx.a(cxx-libxx_cxapurevirtual.o)
 .debug_line    0x00008c1e      0x156 /media/data/coding/GSoC/AVT/px4+mavlink/Firmware/Build/px4io-v2_default.build/nuttx-export/libs/libnuttx.a(cxx-libxx_delete.o)
 .debug_line    0x00008d74      0x174 /media/data/coding/GSoC/AVT/px4+mavlink/Firmware/Build/px4io-v2_default.build/nuttx-export/libs/libnuttx.a(cxx-libxx_eabi_atexit.o)
 .debug_line    0x00008ee8      0x164 /media/data/coding/GSoC/AVT/px4+mavlink/Firmware/Build/px4io-v2_default.build/nuttx-export/libs/libnuttx.a(cxx-libxx_new.o)
 .debug_line    0x0000904c      0x18f /media/data/coding/GSoC/AVT/px4+mavlink/Firmware/Build/px4io-v2_default.build/nuttx-export/libs/libnuttx.a(fs-fs_ioctl.o)
 .debug_line    0x000091db      0x1ca /media/data/coding/GSoC/AVT/px4+mavlink/Firmware/Build/px4io-v2_default.build/nuttx-export/libs/libnuttx.a(fs-fs_open.o)
 .debug_line    0x000093a5      0x185 /media/data/coding/GSoC/AVT/px4+mavlink/Firmware/Build/px4io-v2_default.build/nuttx-export/libs/libnuttx.a(fs-fs_read.o)
 .debug_line    0x0000952a      0x185 /media/data/coding/GSoC/AVT/px4+mavlink/Firmware/Build/px4io-v2_default.build/nuttx-export/libs/libnuttx.a(fs-fs_write.o)
 .debug_line    0x000096af      0x23b /media/data/coding/GSoC/AVT/px4+mavlink/Firmware/Build/px4io-v2_default.build/nuttx-export/libs/libnuttx.a(drivers-serialirq.o)
 .debug_line    0x000098ea      0x54c /media/data/coding/GSoC/AVT/px4+mavlink/Firmware/Build/px4io-v2_default.build/nuttx-export/libs/libnuttx.a(drivers-serial.o)
 .debug_line    0x00009e36      0x21f /media/data/coding/GSoC/AVT/px4+mavlink/Firmware/Build/px4io-v2_default.build/nuttx-export/libs/libnuttx.a(sched-errno_getptr.o)
 .debug_line    0x0000a055      0x20f /media/data/coding/GSoC/AVT/px4+mavlink/Firmware/Build/px4io-v2_default.build/nuttx-export/libs/libnuttx.a(sched-exit.o)
 .debug_line    0x0000a264      0x20f /media/data/coding/GSoC/AVT/px4+mavlink/Firmware/Build/px4io-v2_default.build/nuttx-export/libs/libnuttx.a(sched-getpid.o)
 .debug_line    0x0000a473      0x2c2 /media/data/coding/GSoC/AVT/px4+mavlink/Firmware/Build/px4io-v2_default.build/nuttx-export/libs/libnuttx.a(sched-os_start.o)
 .debug_line    0x0000a735      0x178 /media/data/coding/GSoC/AVT/px4+mavlink/Firmware/Build/px4io-v2_default.build/nuttx-export/libs/libnuttx.a(sched-sched_garbage.o)
 .debug_line    0x0000a8ad      0x20e /media/data/coding/GSoC/AVT/px4+mavlink/Firmware/Build/px4io-v2_default.build/nuttx-export/libs/libnuttx.a(sched-sched_getfiles.o)
 .debug_line    0x0000aabb      0x23a /media/data/coding/GSoC/AVT/px4+mavlink/Firmware/Build/px4io-v2_default.build/nuttx-export/libs/libnuttx.a(sched-sem_post.o)
 .debug_line    0x0000acf5      0x238 /media/data/coding/GSoC/AVT/px4+mavlink/Firmware/Build/px4io-v2_default.build/nuttx-export/libs/libnuttx.a(sched-sem_trywait.o)
 .debug_line    0x0000af2d      0x267 /media/data/coding/GSoC/AVT/px4+mavlink/Firmware/Build/px4io-v2_default.build/nuttx-export/libs/libnuttx.a(sched-sem_wait.o)
 .debug_line    0x0000b194      0x1fa /media/data/coding/GSoC/AVT/px4+mavlink/Firmware/Build/px4io-v2_default.build/nuttx-export/libs/libnuttx.a(sched-task_exithook.o)
 .debug_line    0x0000b38e      0x207 /media/data/coding/GSoC/AVT/px4+mavlink/Firmware/Build/px4io-v2_default.build/nuttx-export/libs/libnuttx.a(sched-task_recover.o)
 .debug_line    0x0000b595      0x172 /media/data/coding/GSoC/AVT/px4+mavlink/Firmware/Build/px4io-v2_default.build/nuttx-export/libs/libnuttx.a(sched-wd_cancel.o)
 .debug_line    0x0000b707      0x154 /media/data/coding/GSoC/AVT/px4+mavlink/Firmware/Build/px4io-v2_default.build/nuttx-export/libs/libnuttx.a(sched-wd_delete.o)
 .debug_line    0x0000b85b      0x13b /media/data/coding/GSoC/AVT/px4+mavlink/Firmware/Build/px4io-v2_default.build/nuttx-export/libs/libnuttx.a(sched-wd_initialize.o)
 .debug_line    0x0000b996       0x87 /media/data/coding/GSoC/AVT/px4+mavlink/Firmware/Build/px4io-v2_default.build/nuttx-export/libs/libnuttx.a(c-dq_addfirst.o)
 .debug_line    0x0000ba1d       0xd4 /media/data/coding/GSoC/AVT/px4+mavlink/Firmware/Build/px4io-v2_default.build/nuttx-export/libs/libnuttx.a(c-lib_cfgetspeed.o)
 .debug_line    0x0000baf1       0x76 /media/data/coding/GSoC/AVT/px4+mavlink/Firmware/Build/px4io-v2_default.build/nuttx-export/libs/libnuttx.a(c-lib_checkbase.o)
 .debug_line    0x0000bb67       0xfe /media/data/coding/GSoC/AVT/px4+mavlink/Firmware/Build/px4io-v2_default.build/nuttx-export/libs/libnuttx.a(c-lib_isbasedigit.o)
 .debug_line    0x0000bc65      0x73e /media/data/coding/GSoC/AVT/px4+mavlink/Firmware/Build/px4io-v2_default.build/nuttx-export/libs/libnuttx.a(c-lib_libvsprintf.o)
 .debug_line    0x0000c3a3       0xa3 /media/data/coding/GSoC/AVT/px4+mavlink/Firmware/Build/px4io-v2_default.build/nuttx-export/libs/libnuttx.a(c-lib_lowoutstream.o)
 .debug_line    0x0000c446       0xb0 /media/data/coding/GSoC/AVT/px4+mavlink/Firmware/Build/px4io-v2_default.build/nuttx-export/libs/libnuttx.a(c-lib_memoutstream.o)
 .debug_line    0x0000c4f6       0xa3 /media/data/coding/GSoC/AVT/px4+mavlink/Firmware/Build/px4io-v2_default.build/nuttx-export/libs/libnuttx.a(c-lib_nulloutstream.o)
 .debug_line    0x0000c599       0xb0 /media/data/coding/GSoC/AVT/px4+mavlink/Firmware/Build/px4io-v2_default.build/nuttx-export/libs/libnuttx.a(c-lib_rawoutstream.o)
 .debug_line    0x0000c649       0x69 /media/data/coding/GSoC/AVT/px4+mavlink/Firmware/Build/px4io-v2_default.build/nuttx-export/libs/libnuttx.a(c-lib_skipspace.o)
 .debug_line    0x0000c6b2      0x11d /media/data/coding/GSoC/AVT/px4+mavlink/Firmware/Build/px4io-v2_default.build/nuttx-export/libs/libnuttx.a(c-lib_strlen.o)
 .debug_line    0x0000c7cf       0xdf /media/data/coding/GSoC/AVT/px4+mavlink/Firmware/Build/px4io-v2_default.build/nuttx-export/libs/libnuttx.a(c-sem_init.o)
 .debug_line    0x0000c8ae       0x90 /media/data/coding/GSoC/AVT/px4+mavlink/Firmware/Build/px4io-v2_default.build/nuttx-export/libs/libnuttx.a(c-sq_remafter.o)
 .debug_line    0x0000c93e       0x87 /media/data/coding/GSoC/AVT/px4+mavlink/Firmware/Build/px4io-v2_default.build/nuttx-export/libs/libnuttx.a(c-sq_remfirst.o)
 .debug_line    0x0000c9c5      0x16a /media/data/coding/GSoC/AVT/px4+mavlink/Firmware/Build/px4io-v2_default.build/nuttx-export/libs/libnuttx.a(mm-mm_addfreechunk.o)
 .debug_line    0x0000cb2f      0x1dd /media/data/coding/GSoC/AVT/px4+mavlink/Firmware/Build/px4io-v2_default.build/nuttx-export/libs/libnuttx.a(mm-mm_initialize.o)
 .debug_line    0x0000cd0c      0x199 /media/data/coding/GSoC/AVT/px4+mavlink/Firmware/Build/px4io-v2_default.build/nuttx-export/libs/libnuttx.a(arch-stm32_allocateheap.o)
 .debug_line    0x0000cea5       0x86 /media/data/coding/GSoC/AVT/px4+mavlink/Firmware/Build/px4io-v2_default.build/nuttx-export/libs/libnuttx.a(arch-stm32_idle.o)
 .debug_line    0x0000cf2b      0x19d /media/data/coding/GSoC/AVT/px4+mavlink/Firmware/Build/px4io-v2_default.build/nuttx-export/libs/libnuttx.a(arch-stm32_lowputc.o)
 .debug_line    0x0000d0c8      0x1b3 /media/data/coding/GSoC/AVT/px4+mavlink/Firmware/Build/px4io-v2_default.build/nuttx-export/libs/libnuttx.a(arch-stm32_rcc.o)
 .debug_line    0x0000d27b      0x2bc /media/data/coding/GSoC/AVT/px4+mavlink/Firmware/Build/px4io-v2_default.build/nuttx-export/libs/libnuttx.a(arch-up_blocktask.o)
 .debug_line    0x0000d537       0xd9 /media/data/coding/GSoC/AVT/px4+mavlink/Firmware/Build/px4io-v2_default.build/nuttx-export/libs/libnuttx.a(arch-up_copystate.o)
 .debug_line    0x0000d610       0x6c /media/data/coding/GSoC/AVT/px4+mavlink/Firmware/Build/px4io-v2_default.build/nuttx-export/libs/libnuttx.a(arch-up_exception.o)
 .debug_line    0x0000d67c      0x251 /media/data/coding/GSoC/AVT/px4+mavlink/Firmware/Build/px4io-v2_default.build/nuttx-export/libs/libnuttx.a(arch-up_exit.o)
 .debug_line    0x0000d8cd       0x53 /media/data/coding/GSoC/AVT/px4+mavlink/Firmware/Build/px4io-v2_default.build/nuttx-export/libs/libnuttx.a(arch-up_fullcontextrestore.o)
 .debug_line    0x0000d920      0x161 /media/data/coding/GSoC/AVT/px4+mavlink/Firmware/Build/px4io-v2_default.build/nuttx-export/libs/libnuttx.a(arch-up_initialize.o)
 .debug_line    0x0000da81      0x21f /media/data/coding/GSoC/AVT/px4+mavlink/Firmware/Build/px4io-v2_default.build/nuttx-export/libs/libnuttx.a(arch-up_initialstate.o)
 .debug_line    0x0000dca0      0x129 /media/data/coding/GSoC/AVT/px4+mavlink/Firmware/Build/px4io-v2_default.build/nuttx-export/libs/libnuttx.a(arch-up_interruptcontext.o)
 .debug_line    0x0000ddc9       0x8e /media/data/coding/GSoC/AVT/px4+mavlink/Firmware/Build/px4io-v2_default.build/nuttx-export/libs/libnuttx.a(arch-up_mdelay.o)
 .debug_line    0x0000de57       0x4f /media/data/coding/GSoC/AVT/px4+mavlink/Firmware/Build/px4io-v2_default.build/nuttx-export/libs/libnuttx.a(arch-up_switchcontext.o)
 .debug_line    0x0000dea6      0x2b6 /media/data/coding/GSoC/AVT/px4+mavlink/Firmware/Build/px4io-v2_default.build/nuttx-export/libs/libnuttx.a(arch-up_unblocktask.o)
 .debug_line    0x0000e15c      0x326 /media/data/coding/GSoC/AVT/px4+mavlink/Firmware/Build/px4io-v2_default.build/nuttx-export/libs/libnuttx.a(fs-fs_files.o)
 .debug_line    0x0000e482      0x150 /media/data/coding/GSoC/AVT/px4+mavlink/Firmware/Build/px4io-v2_default.build/nuttx-export/libs/libnuttx.a(fs-fs_inodeaddref.o)
 .debug_line    0x0000e5d2      0x158 /media/data/coding/GSoC/AVT/px4+mavlink/Firmware/Build/px4io-v2_default.build/nuttx-export/libs/libnuttx.a(fs-fs_inodefind.o)
 .debug_line    0x0000e72a      0x34f /media/data/coding/GSoC/AVT/px4+mavlink/Firmware/Build/px4io-v2_default.build/nuttx-export/libs/libnuttx.a(fs-fs_inode.o)
 .debug_line    0x0000ea79      0x167 /media/data/coding/GSoC/AVT/px4+mavlink/Firmware/Build/px4io-v2_default.build/nuttx-export/libs/libnuttx.a(fs-fs_inoderelease.o)
 .debug_line    0x0000ebe0      0x15d /media/data/coding/GSoC/AVT/px4+mavlink/Firmware/Build/px4io-v2_default.build/nuttx-export/libs/libnuttx.a(fs-fs_registerdriver.o)
 .debug_line    0x0000ed3d      0x20f /media/data/coding/GSoC/AVT/px4+mavlink/Firmware/Build/px4io-v2_default.build/nuttx-export/libs/libnuttx.a(sched-group_create.o)
 .debug_line    0x0000ef4c      0x1fb /media/data/coding/GSoC/AVT/px4+mavlink/Firmware/Build/px4io-v2_default.build/nuttx-export/libs/libnuttx.a(sched-group_leave.o)
 .debug_line    0x0000f147      0x20b /media/data/coding/GSoC/AVT/px4+mavlink/Firmware/Build/px4io-v2_default.build/nuttx-export/libs/libnuttx.a(sched-group_setupidlefiles.o)
 .debug_line    0x0000f352      0x10f /media/data/coding/GSoC/AVT/px4+mavlink/Firmware/Build/px4io-v2_default.build/nuttx-export/libs/libnuttx.a(sched-os_bringup.o)
 .debug_line    0x0000f461      0x225 /media/data/coding/GSoC/AVT/px4+mavlink/Firmware/Build/px4io-v2_default.build/nuttx-export/libs/libnuttx.a(sched-sched_addblocked.o)
 .debug_line    0x0000f686      0x235 /media/data/coding/GSoC/AVT/px4+mavlink/Firmware/Build/px4io-v2_default.build/nuttx-export/libs/libnuttx.a(sched-sched_addprioritized.o)
 .debug_line    0x0000f8bb      0x23d /media/data/coding/GSoC/AVT/px4+mavlink/Firmware/Build/px4io-v2_default.build/nuttx-export/libs/libnuttx.a(sched-sched_addreadytorun.o)
 .debug_line    0x0000faf8      0x176 /media/data/coding/GSoC/AVT/px4+mavlink/Firmware/Build/px4io-v2_default.build/nuttx-export/libs/libnuttx.a(sched-sched_free.o)
 .debug_line    0x0000fc6e      0x249 /media/data/coding/GSoC/AVT/px4+mavlink/Firmware/Build/px4io-v2_default.build/nuttx-export/libs/libnuttx.a(sched-sched_mergepending.o)
 .debug_line    0x0000feb7      0x21b /media/data/coding/GSoC/AVT/px4+mavlink/Firmware/Build/px4io-v2_default.build/nuttx-export/libs/libnuttx.a(sched-sched_removeblocked.o)
 .debug_line    0x000100d2      0x233 /media/data/coding/GSoC/AVT/px4+mavlink/Firmware/Build/px4io-v2_default.build/nuttx-export/libs/libnuttx.a(sched-sched_removereadytorun.o)
 .debug_line    0x00010305       0xd2 /media/data/coding/GSoC/AVT/px4+mavlink/Firmware/Build/px4io-v2_default.build/nuttx-export/libs/libnuttx.a(sched-sem_destroy.o)
 .debug_line    0x000103d7      0x26e /media/data/coding/GSoC/AVT/px4+mavlink/Firmware/Build/px4io-v2_default.build/nuttx-export/libs/libnuttx.a(sched-task_create.o)
 .debug_line    0x00010645      0x226 /media/data/coding/GSoC/AVT/px4+mavlink/Firmware/Build/px4io-v2_default.build/nuttx-export/libs/libnuttx.a(sched-task_exit.o)
 .debug_line    0x0001086b      0x2ca /media/data/coding/GSoC/AVT/px4+mavlink/Firmware/Build/px4io-v2_default.build/nuttx-export/libs/libnuttx.a(sched-task_setup.o)
 .debug_line    0x00010b35      0x210 /media/data/coding/GSoC/AVT/px4+mavlink/Firmware/Build/px4io-v2_default.build/nuttx-export/libs/libnuttx.a(sched-task_start.o)
 .debug_line    0x00010d45      0x23f /media/data/coding/GSoC/AVT/px4+mavlink/Firmware/Build/px4io-v2_default.build/nuttx-export/libs/libnuttx.a(sched-task_terminate.o)
 .debug_line    0x00010f84       0x86 /media/data/coding/GSoC/AVT/px4+mavlink/Firmware/Build/px4io-v2_default.build/nuttx-export/libs/libnuttx.a(c-dq_addlast.o)
 .debug_line    0x0001100a       0x89 /media/data/coding/GSoC/AVT/px4+mavlink/Firmware/Build/px4io-v2_default.build/nuttx-export/libs/libnuttx.a(c-dq_rem.o)
 .debug_line    0x00011093       0x84 /media/data/coding/GSoC/AVT/px4+mavlink/Firmware/Build/px4io-v2_default.build/nuttx-export/libs/libnuttx.a(c-lib_strdup.o)
 .debug_line    0x00011117      0x179 /media/data/coding/GSoC/AVT/px4+mavlink/Firmware/Build/px4io-v2_default.build/nuttx-export/libs/libnuttx.a(arch-stm32_timerisr.o)
 .debug_line    0x00011290      0x221 /media/data/coding/GSoC/AVT/px4+mavlink/Firmware/Build/px4io-v2_default.build/nuttx-export/libs/libnuttx.a(arch-up_createstack.o)
 .debug_line    0x000114b1      0x11f /media/data/coding/GSoC/AVT/px4+mavlink/Firmware/Build/px4io-v2_default.build/nuttx-export/libs/libnuttx.a(arch-up_doirq.o)
 .debug_line    0x000115d0      0x207 /media/data/coding/GSoC/AVT/px4+mavlink/Firmware/Build/px4io-v2_default.build/nuttx-export/libs/libnuttx.a(arch-up_releasestack.o)
 .debug_line    0x000117d7       0x8d /media/data/coding/GSoC/AVT/px4+mavlink/Firmware/Build/px4io-v2_default.build/nuttx-export/libs/libnuttx.a(fs-fs_close.o)
 .debug_line    0x00011864      0x179 /media/data/coding/GSoC/AVT/px4+mavlink/Firmware/Build/px4io-v2_default.build/nuttx-export/libs/libnuttx.a(fs-fs_filedup2.o)
 .debug_line    0x000119dd      0x206 /media/data/coding/GSoC/AVT/px4+mavlink/Firmware/Build/px4io-v2_default.build/nuttx-export/libs/libnuttx.a(fs-fs_inodereserve.o)
 .debug_line    0x00011be3      0x1f9 /media/data/coding/GSoC/AVT/px4+mavlink/Firmware/Build/px4io-v2_default.build/nuttx-export/libs/libnuttx.a(sched-group_setuptaskfiles.o)
 .debug_line    0x00011ddc       0xc8 /media/data/coding/GSoC/AVT/px4+mavlink/Firmware/Build/px4io-v2_default.build/nuttx-export/libs/libnuttx.a(sched-irq_dispatch.o)
 .debug_line    0x00011ea4      0x20a /media/data/coding/GSoC/AVT/px4+mavlink/Firmware/Build/px4io-v2_default.build/nuttx-export/libs/libnuttx.a(sched-sched_gettcb.o)
 .debug_line    0x000120ae      0x221 /media/data/coding/GSoC/AVT/px4+mavlink/Firmware/Build/px4io-v2_default.build/nuttx-export/libs/libnuttx.a(sched-sched_lock.o)
 .debug_line    0x000122cf       0x89 /media/data/coding/GSoC/AVT/px4+mavlink/Firmware/Build/px4io-v2_default.build/nuttx-export/libs/libnuttx.a(sched-sched_processtimer.o)
 .debug_line    0x00012358      0x22a /media/data/coding/GSoC/AVT/px4+mavlink/Firmware/Build/px4io-v2_default.build/nuttx-export/libs/libnuttx.a(sched-sched_releasetcb.o)
 .debug_line    0x00012582      0x24a /media/data/coding/GSoC/AVT/px4+mavlink/Firmware/Build/px4io-v2_default.build/nuttx-export/libs/libnuttx.a(sched-sched_unlock.o)
 .debug_line    0x000127cc      0x20f /media/data/coding/GSoC/AVT/px4+mavlink/Firmware/Build/px4io-v2_default.build/nuttx-export/libs/libnuttx.a(sched-task_activate.o)
 .debug_line    0x000129db       0x88 /media/data/coding/GSoC/AVT/px4+mavlink/Firmware/Build/px4io-v2_default.build/nuttx-export/libs/libnuttx.a(c-lib_strcpy.o)
 .debug_line    0x00012a63      0x2a9 /media/data/coding/GSoC/AVT/px4+mavlink/Firmware/Build/px4io-v2_default.build/nuttx-export/libs/libnuttx.a(arch-up_releasepending.o)

.debug_pubnames
 *(.debug_pubnames)

.debug_aranges  0x00000000     0x19f8
 *(.debug_aranges)
 .debug_aranges
                0x00000000       0x20 /media/data/coding/GSoC/AVT/px4+mavlink/Firmware/Build/px4io-v2_default.build//media/data/coding/GSoC/AVT/px4+mavlink/Firmware/src/drivers/boards/px4io-v2/module.pre.o
 .debug_aranges
                0x00000020       0xd8 /media/data/coding/GSoC/AVT/px4+mavlink/Firmware/Build/px4io-v2_default.build//media/data/coding/GSoC/AVT/px4+mavlink/Firmware/src/drivers/stm32/module.pre.o
 .debug_aranges
                0x000000f8      0x440 /media/data/coding/GSoC/AVT/px4+mavlink/Firmware/Build/px4io-v2_default.build//media/data/coding/GSoC/AVT/px4+mavlink/Firmware/src/modules/px4iofirmware/module.pre.o
 .debug_aranges
                0x00000538       0x20 /media/data/coding/GSoC/AVT/px4+mavlink/Firmware/Build/px4io-v2_default.build/nuttx-export/libs/libnuttx.a(sched-irq_attach.o)
 .debug_aranges
                0x00000558       0x20 /media/data/coding/GSoC/AVT/px4+mavlink/Firmware/Build/px4io-v2_default.build/nuttx-export/libs/libnuttx.a(sched-irq_initialize.o)
 .debug_aranges
                0x00000578       0x20 /media/data/coding/GSoC/AVT/px4+mavlink/Firmware/Build/px4io-v2_default.build/nuttx-export/libs/libnuttx.a(sched-irq_unexpectedisr.o)
 .debug_aranges
                0x00000598       0x20 /media/data/coding/GSoC/AVT/px4+mavlink/Firmware/Build/px4io-v2_default.build/nuttx-export/libs/libnuttx.a(c-lib_abort.o)
 .debug_aranges
                0x000005b8       0x20 /media/data/coding/GSoC/AVT/px4+mavlink/Firmware/Build/px4io-v2_default.build/nuttx-export/libs/libnuttx.a(c-lib_cfsetspeed.o)
 .debug_aranges
                0x000005d8       0x28 /media/data/coding/GSoC/AVT/px4+mavlink/Firmware/Build/px4io-v2_default.build/nuttx-export/libs/libnuttx.a(c-lib_crc32.o)
 .debug_aranges
                0x00000600       0x28 /media/data/coding/GSoC/AVT/px4+mavlink/Firmware/Build/px4io-v2_default.build/nuttx-export/libs/libnuttx.a(c-lib_lowsyslog.o)
 .debug_aranges
                0x00000628       0x20 /media/data/coding/GSoC/AVT/px4+mavlink/Firmware/Build/px4io-v2_default.build/nuttx-export/libs/libnuttx.a(c-lib_memchr.o)
 .debug_aranges
                0x00000648       0x20 /media/data/coding/GSoC/AVT/px4+mavlink/Firmware/Build/px4io-v2_default.build/nuttx-export/libs/libnuttx.a(c-lib_memcpy.o)
 .debug_aranges
                0x00000668       0x20 /media/data/coding/GSoC/AVT/px4+mavlink/Firmware/Build/px4io-v2_default.build/nuttx-export/libs/libnuttx.a(c-lib_memset.o)
 .debug_aranges
                0x00000688       0x20 /media/data/coding/GSoC/AVT/px4+mavlink/Firmware/Build/px4io-v2_default.build/nuttx-export/libs/libnuttx.a(c-lib_printf.o)
 .debug_aranges
                0x000006a8       0x30 /media/data/coding/GSoC/AVT/px4+mavlink/Firmware/Build/px4io-v2_default.build/nuttx-export/libs/libnuttx.a(c-lib_sscanf.o)
 .debug_aranges
                0x000006d8       0x20 /media/data/coding/GSoC/AVT/px4+mavlink/Firmware/Build/px4io-v2_default.build/nuttx-export/libs/libnuttx.a(c-lib_strchr.o)
 .debug_aranges
                0x000006f8       0x20 /media/data/coding/GSoC/AVT/px4+mavlink/Firmware/Build/px4io-v2_default.build/nuttx-export/libs/libnuttx.a(c-lib_strcmp.o)
 .debug_aranges
                0x00000718       0x20 /media/data/coding/GSoC/AVT/px4+mavlink/Firmware/Build/px4io-v2_default.build/nuttx-export/libs/libnuttx.a(c-lib_strcspn.o)
 .debug_aranges
                0x00000738       0x20 /media/data/coding/GSoC/AVT/px4+mavlink/Firmware/Build/px4io-v2_default.build/nuttx-export/libs/libnuttx.a(c-lib_strncpy.o)
 .debug_aranges
                0x00000758       0x20 /media/data/coding/GSoC/AVT/px4+mavlink/Firmware/Build/px4io-v2_default.build/nuttx-export/libs/libnuttx.a(c-lib_strtol.o)
 .debug_aranges
                0x00000778       0x20 /media/data/coding/GSoC/AVT/px4+mavlink/Firmware/Build/px4io-v2_default.build/nuttx-export/libs/libnuttx.a(c-lib_strtoul.o)
 .debug_aranges
                0x00000798       0x28 /media/data/coding/GSoC/AVT/px4+mavlink/Firmware/Build/px4io-v2_default.build/nuttx-export/libs/libnuttx.a(c-lib_syslog.o)
 .debug_aranges
                0x000007c0       0x20 /media/data/coding/GSoC/AVT/px4+mavlink/Firmware/Build/px4io-v2_default.build/nuttx-export/libs/libnuttx.a(c-lib_tcgetattr.o)
 .debug_aranges
                0x000007e0       0x20 /media/data/coding/GSoC/AVT/px4+mavlink/Firmware/Build/px4io-v2_default.build/nuttx-export/libs/libnuttx.a(c-lib_tcsetattr.o)
 .debug_aranges
                0x00000800       0x20 /media/data/coding/GSoC/AVT/px4+mavlink/Firmware/Build/px4io-v2_default.build/nuttx-export/libs/libnuttx.a(c-lib_vsnprintf.o)
 .debug_aranges
                0x00000820       0x20 /media/data/coding/GSoC/AVT/px4+mavlink/Firmware/Build/px4io-v2_default.build/nuttx-export/libs/libnuttx.a(c-sq_addafter.o)
 .debug_aranges
                0x00000840       0x20 /media/data/coding/GSoC/AVT/px4+mavlink/Firmware/Build/px4io-v2_default.build/nuttx-export/libs/libnuttx.a(c-sq_addfirst.o)
 .debug_aranges
                0x00000860       0x20 /media/data/coding/GSoC/AVT/px4+mavlink/Firmware/Build/px4io-v2_default.build/nuttx-export/libs/libnuttx.a(c-sq_addlast.o)
 .debug_aranges
                0x00000880       0x20 /media/data/coding/GSoC/AVT/px4+mavlink/Firmware/Build/px4io-v2_default.build/nuttx-export/libs/libnuttx.a(c-sq_rem.o)
 .debug_aranges
                0x000008a0       0x20 /media/data/coding/GSoC/AVT/px4+mavlink/Firmware/Build/px4io-v2_default.build/nuttx-export/libs/libnuttx.a(mm-mm_calloc.o)
 .debug_aranges
                0x000008c0       0x20 /media/data/coding/GSoC/AVT/px4+mavlink/Firmware/Build/px4io-v2_default.build/nuttx-export/libs/libnuttx.a(mm-mm_free.o)
 .debug_aranges
                0x000008e0       0x20 /media/data/coding/GSoC/AVT/px4+mavlink/Firmware/Build/px4io-v2_default.build/nuttx-export/libs/libnuttx.a(mm-mm_mallinfo.o)
 .debug_aranges
                0x00000900       0x20 /media/data/coding/GSoC/AVT/px4+mavlink/Firmware/Build/px4io-v2_default.build/nuttx-export/libs/libnuttx.a(mm-mm_malloc.o)
 .debug_aranges
                0x00000920       0x38 /media/data/coding/GSoC/AVT/px4+mavlink/Firmware/Build/px4io-v2_default.build/nuttx-export/libs/libnuttx.a(mm-mm_sem.o)
 .debug_aranges
                0x00000958       0x20 /media/data/coding/GSoC/AVT/px4+mavlink/Firmware/Build/px4io-v2_default.build/nuttx-export/libs/libnuttx.a(mm-mm_size2ndx.o)
 .debug_aranges
                0x00000978       0x38 /media/data/coding/GSoC/AVT/px4+mavlink/Firmware/Build/px4io-v2_default.build/nuttx-export/libs/libnuttx.a(mm-mm_user.o)
 .debug_aranges
                0x000009b0       0x20 /media/data/coding/GSoC/AVT/px4+mavlink/Firmware/Build/px4io-v2_default.build/nuttx-export/libs/libnuttx.a(mm-mm_zalloc.o)
 .debug_aranges
                0x000009d0       0x58 /media/data/coding/GSoC/AVT/px4+mavlink/Firmware/Build/px4io-v2_default.build/nuttx-export/libs/libnuttx.a(arch-stm32_dma.o)
 .debug_aranges
                0x00000a28       0x40 /media/data/coding/GSoC/AVT/px4+mavlink/Firmware/Build/px4io-v2_default.build/nuttx-export/libs/libnuttx.a(arch-stm32_gpio.o)
 .debug_aranges
                0x00000a68       0x40 /media/data/coding/GSoC/AVT/px4+mavlink/Firmware/Build/px4io-v2_default.build/nuttx-export/libs/libnuttx.a(arch-stm32_irq.o)
 .debug_aranges
                0x00000aa8       0xe8 /media/data/coding/GSoC/AVT/px4+mavlink/Firmware/Build/px4io-v2_default.build/nuttx-export/libs/libnuttx.a(arch-stm32_serial.o)
 .debug_aranges
                0x00000b90       0x20 /media/data/coding/GSoC/AVT/px4+mavlink/Firmware/Build/px4io-v2_default.build/nuttx-export/libs/libnuttx.a(arch-stm32_start.o)
 .debug_aranges
                0x00000bb0       0x20 /media/data/coding/GSoC/AVT/px4+mavlink/Firmware/Build/px4io-v2_default.build/nuttx-export/libs/libnuttx.a(arch-up_assert.o)
 .debug_aranges
                0x00000bd0       0x20 /media/data/coding/GSoC/AVT/px4+mavlink/Firmware/Build/px4io-v2_default.build/nuttx-export/libs/libnuttx.a(arch-up_hardfault.o)
 .debug_aranges
                0x00000bf0       0x20 /media/data/coding/GSoC/AVT/px4+mavlink/Firmware/Build/px4io-v2_default.build/nuttx-export/libs/libnuttx.a(arch-up_modifyreg32.o)
 .debug_aranges
                0x00000c10       0x20 /media/data/coding/GSoC/AVT/px4+mavlink/Firmware/Build/px4io-v2_default.build/nuttx-export/libs/libnuttx.a(arch-up_svcall.o)
 .debug_aranges
                0x00000c30       0x20 /media/data/coding/GSoC/AVT/px4+mavlink/Firmware/Build/px4io-v2_default.build/nuttx-export/libs/libnuttx.a(arch-up_udelay.o)
 .debug_aranges
                0x00000c50       0x20 /media/data/coding/GSoC/AVT/px4+mavlink/Firmware/Build/px4io-v2_default.build/nuttx-export/libs/libnuttx.a(cxx-libxx_cxa_atexit.o)
 .debug_aranges
                0x00000c70       0x20 /media/data/coding/GSoC/AVT/px4+mavlink/Firmware/Build/px4io-v2_default.build/nuttx-export/libs/libnuttx.a(cxx-libxx_cxapurevirtual.o)
 .debug_aranges
                0x00000c90       0x20 /media/data/coding/GSoC/AVT/px4+mavlink/Firmware/Build/px4io-v2_default.build/nuttx-export/libs/libnuttx.a(cxx-libxx_delete.o)
 .debug_aranges
                0x00000cb0       0x20 /media/data/coding/GSoC/AVT/px4+mavlink/Firmware/Build/px4io-v2_default.build/nuttx-export/libs/libnuttx.a(cxx-libxx_eabi_atexit.o)
 .debug_aranges
                0x00000cd0       0x20 /media/data/coding/GSoC/AVT/px4+mavlink/Firmware/Build/px4io-v2_default.build/nuttx-export/libs/libnuttx.a(cxx-libxx_new.o)
 .debug_aranges
                0x00000cf0       0x20 /media/data/coding/GSoC/AVT/px4+mavlink/Firmware/Build/px4io-v2_default.build/nuttx-export/libs/libnuttx.a(fs-fs_ioctl.o)
 .debug_aranges
                0x00000d10       0x28 /media/data/coding/GSoC/AVT/px4+mavlink/Firmware/Build/px4io-v2_default.build/nuttx-export/libs/libnuttx.a(fs-fs_open.o)
 .debug_aranges
                0x00000d38       0x20 /media/data/coding/GSoC/AVT/px4+mavlink/Firmware/Build/px4io-v2_default.build/nuttx-export/libs/libnuttx.a(fs-fs_read.o)
 .debug_aranges
                0x00000d58       0x20 /media/data/coding/GSoC/AVT/px4+mavlink/Firmware/Build/px4io-v2_default.build/nuttx-export/libs/libnuttx.a(fs-fs_write.o)
 .debug_aranges
                0x00000d78       0x28 /media/data/coding/GSoC/AVT/px4+mavlink/Firmware/Build/px4io-v2_default.build/nuttx-export/libs/libnuttx.a(drivers-serialirq.o)
 .debug_aranges
                0x00000da0       0x60 /media/data/coding/GSoC/AVT/px4+mavlink/Firmware/Build/px4io-v2_default.build/nuttx-export/libs/libnuttx.a(drivers-serial.o)
 .debug_aranges
                0x00000e00       0x20 /media/data/coding/GSoC/AVT/px4+mavlink/Firmware/Build/px4io-v2_default.build/nuttx-export/libs/libnuttx.a(sched-errno_getptr.o)
 .debug_aranges
                0x00000e20       0x20 /media/data/coding/GSoC/AVT/px4+mavlink/Firmware/Build/px4io-v2_default.build/nuttx-export/libs/libnuttx.a(sched-exit.o)
 .debug_aranges
                0x00000e40       0x20 /media/data/coding/GSoC/AVT/px4+mavlink/Firmware/Build/px4io-v2_default.build/nuttx-export/libs/libnuttx.a(sched-getpid.o)
 .debug_aranges
                0x00000e60       0x20 /media/data/coding/GSoC/AVT/px4+mavlink/Firmware/Build/px4io-v2_default.build/nuttx-export/libs/libnuttx.a(sched-os_start.o)
 .debug_aranges
                0x00000e80       0x20 /media/data/coding/GSoC/AVT/px4+mavlink/Firmware/Build/px4io-v2_default.build/nuttx-export/libs/libnuttx.a(sched-sched_garbage.o)
 .debug_aranges
                0x00000ea0       0x20 /media/data/coding/GSoC/AVT/px4+mavlink/Firmware/Build/px4io-v2_default.build/nuttx-export/libs/libnuttx.a(sched-sched_getfiles.o)
 .debug_aranges
                0x00000ec0       0x20 /media/data/coding/GSoC/AVT/px4+mavlink/Firmware/Build/px4io-v2_default.build/nuttx-export/libs/libnuttx.a(sched-sem_post.o)
 .debug_aranges
                0x00000ee0       0x20 /media/data/coding/GSoC/AVT/px4+mavlink/Firmware/Build/px4io-v2_default.build/nuttx-export/libs/libnuttx.a(sched-sem_trywait.o)
 .debug_aranges
                0x00000f00       0x20 /media/data/coding/GSoC/AVT/px4+mavlink/Firmware/Build/px4io-v2_default.build/nuttx-export/libs/libnuttx.a(sched-sem_wait.o)
 .debug_aranges
                0x00000f20       0x20 /media/data/coding/GSoC/AVT/px4+mavlink/Firmware/Build/px4io-v2_default.build/nuttx-export/libs/libnuttx.a(sched-task_exithook.o)
 .debug_aranges
                0x00000f40       0x20 /media/data/coding/GSoC/AVT/px4+mavlink/Firmware/Build/px4io-v2_default.build/nuttx-export/libs/libnuttx.a(sched-task_recover.o)
 .debug_aranges
                0x00000f60       0x20 /media/data/coding/GSoC/AVT/px4+mavlink/Firmware/Build/px4io-v2_default.build/nuttx-export/libs/libnuttx.a(sched-wd_cancel.o)
 .debug_aranges
                0x00000f80       0x20 /media/data/coding/GSoC/AVT/px4+mavlink/Firmware/Build/px4io-v2_default.build/nuttx-export/libs/libnuttx.a(sched-wd_delete.o)
 .debug_aranges
                0x00000fa0       0x20 /media/data/coding/GSoC/AVT/px4+mavlink/Firmware/Build/px4io-v2_default.build/nuttx-export/libs/libnuttx.a(sched-wd_initialize.o)
 .debug_aranges
                0x00000fc0       0x20 /media/data/coding/GSoC/AVT/px4+mavlink/Firmware/Build/px4io-v2_default.build/nuttx-export/libs/libnuttx.a(c-dq_addfirst.o)
 .debug_aranges
                0x00000fe0       0x20 /media/data/coding/GSoC/AVT/px4+mavlink/Firmware/Build/px4io-v2_default.build/nuttx-export/libs/libnuttx.a(c-lib_cfgetspeed.o)
 .debug_aranges
                0x00001000       0x20 /media/data/coding/GSoC/AVT/px4+mavlink/Firmware/Build/px4io-v2_default.build/nuttx-export/libs/libnuttx.a(c-lib_checkbase.o)
 .debug_aranges
                0x00001020       0x20 /media/data/coding/GSoC/AVT/px4+mavlink/Firmware/Build/px4io-v2_default.build/nuttx-export/libs/libnuttx.a(c-lib_isbasedigit.o)
 .debug_aranges
                0x00001040       0x68 /media/data/coding/GSoC/AVT/px4+mavlink/Firmware/Build/px4io-v2_default.build/nuttx-export/libs/libnuttx.a(c-lib_libvsprintf.o)
 .debug_aranges
                0x000010a8       0x28 /media/data/coding/GSoC/AVT/px4+mavlink/Firmware/Build/px4io-v2_default.build/nuttx-export/libs/libnuttx.a(c-lib_lowoutstream.o)
 .debug_aranges
                0x000010d0       0x28 /media/data/coding/GSoC/AVT/px4+mavlink/Firmware/Build/px4io-v2_default.build/nuttx-export/libs/libnuttx.a(c-lib_memoutstream.o)
 .debug_aranges
                0x000010f8       0x28 /media/data/coding/GSoC/AVT/px4+mavlink/Firmware/Build/px4io-v2_default.build/nuttx-export/libs/libnuttx.a(c-lib_nulloutstream.o)
 .debug_aranges
                0x00001120       0x28 /media/data/coding/GSoC/AVT/px4+mavlink/Firmware/Build/px4io-v2_default.build/nuttx-export/libs/libnuttx.a(c-lib_rawoutstream.o)
 .debug_aranges
                0x00001148       0x20 /media/data/coding/GSoC/AVT/px4+mavlink/Firmware/Build/px4io-v2_default.build/nuttx-export/libs/libnuttx.a(c-lib_skipspace.o)
 .debug_aranges
                0x00001168       0x20 /media/data/coding/GSoC/AVT/px4+mavlink/Firmware/Build/px4io-v2_default.build/nuttx-export/libs/libnuttx.a(c-lib_strlen.o)
 .debug_aranges
                0x00001188       0x20 /media/data/coding/GSoC/AVT/px4+mavlink/Firmware/Build/px4io-v2_default.build/nuttx-export/libs/libnuttx.a(c-sem_init.o)
 .debug_aranges
                0x000011a8       0x20 /media/data/coding/GSoC/AVT/px4+mavlink/Firmware/Build/px4io-v2_default.build/nuttx-export/libs/libnuttx.a(c-sq_remafter.o)
 .debug_aranges
                0x000011c8       0x20 /media/data/coding/GSoC/AVT/px4+mavlink/Firmware/Build/px4io-v2_default.build/nuttx-export/libs/libnuttx.a(c-sq_remfirst.o)
 .debug_aranges
                0x000011e8       0x20 /media/data/coding/GSoC/AVT/px4+mavlink/Firmware/Build/px4io-v2_default.build/nuttx-export/libs/libnuttx.a(mm-mm_addfreechunk.o)
 .debug_aranges
                0x00001208       0x28 /media/data/coding/GSoC/AVT/px4+mavlink/Firmware/Build/px4io-v2_default.build/nuttx-export/libs/libnuttx.a(mm-mm_initialize.o)
 .debug_aranges
                0x00001230       0x20 /media/data/coding/GSoC/AVT/px4+mavlink/Firmware/Build/px4io-v2_default.build/nuttx-export/libs/libnuttx.a(arch-stm32_allocateheap.o)
 .debug_aranges
                0x00001250       0x20 /media/data/coding/GSoC/AVT/px4+mavlink/Firmware/Build/px4io-v2_default.build/nuttx-export/libs/libnuttx.a(arch-stm32_idle.o)
 .debug_aranges
                0x00001270       0x28 /media/data/coding/GSoC/AVT/px4+mavlink/Firmware/Build/px4io-v2_default.build/nuttx-export/libs/libnuttx.a(arch-stm32_lowputc.o)
 .debug_aranges
                0x00001298       0x20 /media/data/coding/GSoC/AVT/px4+mavlink/Firmware/Build/px4io-v2_default.build/nuttx-export/libs/libnuttx.a(arch-stm32_rcc.o)
 .debug_aranges
                0x000012b8       0x20 /media/data/coding/GSoC/AVT/px4+mavlink/Firmware/Build/px4io-v2_default.build/nuttx-export/libs/libnuttx.a(arch-up_blocktask.o)
 .debug_aranges
                0x000012d8       0x20 /media/data/coding/GSoC/AVT/px4+mavlink/Firmware/Build/px4io-v2_default.build/nuttx-export/libs/libnuttx.a(arch-up_copystate.o)
 .debug_aranges
                0x000012f8       0x20 /media/data/coding/GSoC/AVT/px4+mavlink/Firmware/Build/px4io-v2_default.build/nuttx-export/libs/libnuttx.a(arch-up_exception.o)
 .debug_aranges
                0x00001318       0x20 /media/data/coding/GSoC/AVT/px4+mavlink/Firmware/Build/px4io-v2_default.build/nuttx-export/libs/libnuttx.a(arch-up_exit.o)
 .debug_aranges
                0x00001338       0x20 /media/data/coding/GSoC/AVT/px4+mavlink/Firmware/Build/px4io-v2_default.build/nuttx-export/libs/libnuttx.a(arch-up_fullcontextrestore.o)
 .debug_aranges
                0x00001358       0x20 /media/data/coding/GSoC/AVT/px4+mavlink/Firmware/Build/px4io-v2_default.build/nuttx-export/libs/libnuttx.a(arch-up_initialize.o)
 .debug_aranges
                0x00001378       0x20 /media/data/coding/GSoC/AVT/px4+mavlink/Firmware/Build/px4io-v2_default.build/nuttx-export/libs/libnuttx.a(arch-up_initialstate.o)
 .debug_aranges
                0x00001398       0x20 /media/data/coding/GSoC/AVT/px4+mavlink/Firmware/Build/px4io-v2_default.build/nuttx-export/libs/libnuttx.a(arch-up_interruptcontext.o)
 .debug_aranges
                0x000013b8       0x20 /media/data/coding/GSoC/AVT/px4+mavlink/Firmware/Build/px4io-v2_default.build/nuttx-export/libs/libnuttx.a(arch-up_mdelay.o)
 .debug_aranges
                0x000013d8       0x20 /media/data/coding/GSoC/AVT/px4+mavlink/Firmware/Build/px4io-v2_default.build/nuttx-export/libs/libnuttx.a(arch-up_switchcontext.o)
 .debug_aranges
                0x000013f8       0x20 /media/data/coding/GSoC/AVT/px4+mavlink/Firmware/Build/px4io-v2_default.build/nuttx-export/libs/libnuttx.a(arch-up_unblocktask.o)
 .debug_aranges
                0x00001418       0x50 /media/data/coding/GSoC/AVT/px4+mavlink/Firmware/Build/px4io-v2_default.build/nuttx-export/libs/libnuttx.a(fs-fs_files.o)
 .debug_aranges
                0x00001468       0x20 /media/data/coding/GSoC/AVT/px4+mavlink/Firmware/Build/px4io-v2_default.build/nuttx-export/libs/libnuttx.a(fs-fs_inodeaddref.o)
 .debug_aranges
                0x00001488       0x20 /media/data/coding/GSoC/AVT/px4+mavlink/Firmware/Build/px4io-v2_default.build/nuttx-export/libs/libnuttx.a(fs-fs_inodefind.o)
 .debug_aranges
                0x000014a8       0x48 /media/data/coding/GSoC/AVT/px4+mavlink/Firmware/Build/px4io-v2_default.build/nuttx-export/libs/libnuttx.a(fs-fs_inode.o)
 .debug_aranges
                0x000014f0       0x20 /media/data/coding/GSoC/AVT/px4+mavlink/Firmware/Build/px4io-v2_default.build/nuttx-export/libs/libnuttx.a(fs-fs_inoderelease.o)
 .debug_aranges
                0x00001510       0x20 /media/data/coding/GSoC/AVT/px4+mavlink/Firmware/Build/px4io-v2_default.build/nuttx-export/libs/libnuttx.a(fs-fs_registerdriver.o)
 .debug_aranges
                0x00001530       0x28 /media/data/coding/GSoC/AVT/px4+mavlink/Firmware/Build/px4io-v2_default.build/nuttx-export/libs/libnuttx.a(sched-group_create.o)
 .debug_aranges
                0x00001558       0x20 /media/data/coding/GSoC/AVT/px4+mavlink/Firmware/Build/px4io-v2_default.build/nuttx-export/libs/libnuttx.a(sched-group_leave.o)
 .debug_aranges
                0x00001578       0x20 /media/data/coding/GSoC/AVT/px4+mavlink/Firmware/Build/px4io-v2_default.build/nuttx-export/libs/libnuttx.a(sched-group_setupidlefiles.o)
 .debug_aranges
                0x00001598       0x20 /media/data/coding/GSoC/AVT/px4+mavlink/Firmware/Build/px4io-v2_default.build/nuttx-export/libs/libnuttx.a(sched-os_bringup.o)
 .debug_aranges
                0x000015b8       0x20 /media/data/coding/GSoC/AVT/px4+mavlink/Firmware/Build/px4io-v2_default.build/nuttx-export/libs/libnuttx.a(sched-sched_addblocked.o)
 .debug_aranges
                0x000015d8       0x20 /media/data/coding/GSoC/AVT/px4+mavlink/Firmware/Build/px4io-v2_default.build/nuttx-export/libs/libnuttx.a(sched-sched_addprioritized.o)
 .debug_aranges
                0x000015f8       0x20 /media/data/coding/GSoC/AVT/px4+mavlink/Firmware/Build/px4io-v2_default.build/nuttx-export/libs/libnuttx.a(sched-sched_addreadytorun.o)
 .debug_aranges
                0x00001618       0x20 /media/data/coding/GSoC/AVT/px4+mavlink/Firmware/Build/px4io-v2_default.build/nuttx-export/libs/libnuttx.a(sched-sched_free.o)
 .debug_aranges
                0x00001638       0x20 /media/data/coding/GSoC/AVT/px4+mavlink/Firmware/Build/px4io-v2_default.build/nuttx-export/libs/libnuttx.a(sched-sched_mergepending.o)
 .debug_aranges
                0x00001658       0x20 /media/data/coding/GSoC/AVT/px4+mavlink/Firmware/Build/px4io-v2_default.build/nuttx-export/libs/libnuttx.a(sched-sched_removeblocked.o)
 .debug_aranges
                0x00001678       0x20 /media/data/coding/GSoC/AVT/px4+mavlink/Firmware/Build/px4io-v2_default.build/nuttx-export/libs/libnuttx.a(sched-sched_removereadytorun.o)
 .debug_aranges
                0x00001698       0x20 /media/data/coding/GSoC/AVT/px4+mavlink/Firmware/Build/px4io-v2_default.build/nuttx-export/libs/libnuttx.a(sched-sem_destroy.o)
 .debug_aranges
                0x000016b8       0x30 /media/data/coding/GSoC/AVT/px4+mavlink/Firmware/Build/px4io-v2_default.build/nuttx-export/libs/libnuttx.a(sched-task_create.o)
 .debug_aranges
                0x000016e8       0x20 /media/data/coding/GSoC/AVT/px4+mavlink/Firmware/Build/px4io-v2_default.build/nuttx-export/libs/libnuttx.a(sched-task_exit.o)
 .debug_aranges
                0x00001708       0x28 /media/data/coding/GSoC/AVT/px4+mavlink/Firmware/Build/px4io-v2_default.build/nuttx-export/libs/libnuttx.a(sched-task_setup.o)
 .debug_aranges
                0x00001730       0x20 /media/data/coding/GSoC/AVT/px4+mavlink/Firmware/Build/px4io-v2_default.build/nuttx-export/libs/libnuttx.a(sched-task_start.o)
 .debug_aranges
                0x00001750       0x20 /media/data/coding/GSoC/AVT/px4+mavlink/Firmware/Build/px4io-v2_default.build/nuttx-export/libs/libnuttx.a(sched-task_terminate.o)
 .debug_aranges
                0x00001770       0x20 /media/data/coding/GSoC/AVT/px4+mavlink/Firmware/Build/px4io-v2_default.build/nuttx-export/libs/libnuttx.a(c-dq_addlast.o)
 .debug_aranges
                0x00001790       0x20 /media/data/coding/GSoC/AVT/px4+mavlink/Firmware/Build/px4io-v2_default.build/nuttx-export/libs/libnuttx.a(c-dq_rem.o)
 .debug_aranges
                0x000017b0       0x20 /media/data/coding/GSoC/AVT/px4+mavlink/Firmware/Build/px4io-v2_default.build/nuttx-export/libs/libnuttx.a(c-lib_strdup.o)
 .debug_aranges
                0x000017d0       0x28 /media/data/coding/GSoC/AVT/px4+mavlink/Firmware/Build/px4io-v2_default.build/nuttx-export/libs/libnuttx.a(arch-stm32_timerisr.o)
 .debug_aranges
                0x000017f8       0x20 /media/data/coding/GSoC/AVT/px4+mavlink/Firmware/Build/px4io-v2_default.build/nuttx-export/libs/libnuttx.a(arch-up_createstack.o)
 .debug_aranges
                0x00001818       0x20 /media/data/coding/GSoC/AVT/px4+mavlink/Firmware/Build/px4io-v2_default.build/nuttx-export/libs/libnuttx.a(arch-up_doirq.o)
 .debug_aranges
                0x00001838       0x20 /media/data/coding/GSoC/AVT/px4+mavlink/Firmware/Build/px4io-v2_default.build/nuttx-export/libs/libnuttx.a(arch-up_releasestack.o)
 .debug_aranges
                0x00001858       0x20 /media/data/coding/GSoC/AVT/px4+mavlink/Firmware/Build/px4io-v2_default.build/nuttx-export/libs/libnuttx.a(fs-fs_close.o)
 .debug_aranges
                0x00001878       0x20 /media/data/coding/GSoC/AVT/px4+mavlink/Firmware/Build/px4io-v2_default.build/nuttx-export/libs/libnuttx.a(fs-fs_filedup2.o)
 .debug_aranges
                0x00001898       0x20 /media/data/coding/GSoC/AVT/px4+mavlink/Firmware/Build/px4io-v2_default.build/nuttx-export/libs/libnuttx.a(fs-fs_inodereserve.o)
 .debug_aranges
                0x000018b8       0x20 /media/data/coding/GSoC/AVT/px4+mavlink/Firmware/Build/px4io-v2_default.build/nuttx-export/libs/libnuttx.a(sched-group_setuptaskfiles.o)
 .debug_aranges
                0x000018d8       0x20 /media/data/coding/GSoC/AVT/px4+mavlink/Firmware/Build/px4io-v2_default.build/nuttx-export/libs/libnuttx.a(sched-irq_dispatch.o)
 .debug_aranges
                0x000018f8       0x20 /media/data/coding/GSoC/AVT/px4+mavlink/Firmware/Build/px4io-v2_default.build/nuttx-export/libs/libnuttx.a(sched-sched_gettcb.o)
 .debug_aranges
                0x00001918       0x20 /media/data/coding/GSoC/AVT/px4+mavlink/Firmware/Build/px4io-v2_default.build/nuttx-export/libs/libnuttx.a(sched-sched_lock.o)
 .debug_aranges
                0x00001938       0x20 /media/data/coding/GSoC/AVT/px4+mavlink/Firmware/Build/px4io-v2_default.build/nuttx-export/libs/libnuttx.a(sched-sched_processtimer.o)
 .debug_aranges
                0x00001958       0x20 /media/data/coding/GSoC/AVT/px4+mavlink/Firmware/Build/px4io-v2_default.build/nuttx-export/libs/libnuttx.a(sched-sched_releasetcb.o)
 .debug_aranges
                0x00001978       0x20 /media/data/coding/GSoC/AVT/px4+mavlink/Firmware/Build/px4io-v2_default.build/nuttx-export/libs/libnuttx.a(sched-sched_unlock.o)
 .debug_aranges
                0x00001998       0x20 /media/data/coding/GSoC/AVT/px4+mavlink/Firmware/Build/px4io-v2_default.build/nuttx-export/libs/libnuttx.a(sched-task_activate.o)
 .debug_aranges
                0x000019b8       0x20 /media/data/coding/GSoC/AVT/px4+mavlink/Firmware/Build/px4io-v2_default.build/nuttx-export/libs/libnuttx.a(c-lib_strcpy.o)
 .debug_aranges
                0x000019d8       0x20 /media/data/coding/GSoC/AVT/px4+mavlink/Firmware/Build/px4io-v2_default.build/nuttx-export/libs/libnuttx.a(arch-up_releasepending.o)
START GROUP
LOAD /media/data/coding/GSoC/AVT/px4+mavlink/Firmware/Build/px4io-v2_default.build//media/data/coding/GSoC/AVT/px4+mavlink/Firmware/Build/px4io-v2_default.build/empty.c.o
LOAD /media/data/coding/GSoC/AVT/px4+mavlink/Firmware/Build/px4io-v2_default.build//media/data/coding/GSoC/AVT/px4+mavlink/Firmware/src/drivers/boards/px4io-v2/module.pre.o
LOAD /media/data/coding/GSoC/AVT/px4+mavlink/Firmware/Build/px4io-v2_default.build//media/data/coding/GSoC/AVT/px4+mavlink/Firmware/src/drivers/stm32/module.pre.o
LOAD /media/data/coding/GSoC/AVT/px4+mavlink/Firmware/Build/px4io-v2_default.build//media/data/coding/GSoC/AVT/px4+mavlink/Firmware/src/modules/px4iofirmware/module.pre.o
LOAD /media/data/coding/GSoC/AVT/px4+mavlink/Firmware/Build/px4io-v2_default.build/nuttx-export/libs/libapps.a
LOAD /media/data/coding/GSoC/AVT/px4+mavlink/Firmware/Build/px4io-v2_default.build/nuttx-export/libs/libnuttx.a
LOAD /home/avnishks/gcc-arm-none-eabi-4_6-2012q2/bin/../lib/gcc/arm-none-eabi/4.6.2/../../../../arm-none-eabi/lib/armv7-m/libm.a
LOAD /home/avnishks/gcc-arm-none-eabi-4_6-2012q2/bin/../lib/gcc/arm-none-eabi/4.6.2/armv7-m/libgcc.a
END GROUP
OUTPUT(/media/data/coding/GSoC/AVT/px4+mavlink/Firmware/Build/px4io-v2_default.build/firmware.elf elf32-littlearm)

.debug_frame    0x00000000     0x302c
 .debug_frame   0x00000000       0x28 /media/data/coding/GSoC/AVT/px4+mavlink/Firmware/Build/px4io-v2_default.build//media/data/coding/GSoC/AVT/px4+mavlink/Firmware/src/drivers/boards/px4io-v2/module.pre.o
 .debug_frame   0x00000028      0x24c /media/data/coding/GSoC/AVT/px4+mavlink/Firmware/Build/px4io-v2_default.build//media/data/coding/GSoC/AVT/px4+mavlink/Firmware/src/drivers/stm32/module.pre.o
 .debug_frame   0x00000274      0xa54 /media/data/coding/GSoC/AVT/px4+mavlink/Firmware/Build/px4io-v2_default.build//media/data/coding/GSoC/AVT/px4+mavlink/Firmware/src/modules/px4iofirmware/module.pre.o
 .debug_frame   0x00000cc8       0x2c /media/data/coding/GSoC/AVT/px4+mavlink/Firmware/Build/px4io-v2_default.build/nuttx-export/libs/libnuttx.a(sched-irq_attach.o)
 .debug_frame   0x00000cf4       0x20 /media/data/coding/GSoC/AVT/px4+mavlink/Firmware/Build/px4io-v2_default.build/nuttx-export/libs/libnuttx.a(sched-irq_initialize.o)
 .debug_frame   0x00000d14       0x28 /media/data/coding/GSoC/AVT/px4+mavlink/Firmware/Build/px4io-v2_default.build/nuttx-export/libs/libnuttx.a(sched-irq_unexpectedisr.o)
 .debug_frame   0x00000d3c       0x28 /media/data/coding/GSoC/AVT/px4+mavlink/Firmware/Build/px4io-v2_default.build/nuttx-export/libs/libnuttx.a(c-lib_abort.o)
 .debug_frame   0x00000d64       0x20 /media/data/coding/GSoC/AVT/px4+mavlink/Firmware/Build/px4io-v2_default.build/nuttx-export/libs/libnuttx.a(c-lib_cfsetspeed.o)
 .debug_frame   0x00000d84       0x48 /media/data/coding/GSoC/AVT/px4+mavlink/Firmware/Build/px4io-v2_default.build/nuttx-export/libs/libnuttx.a(c-lib_crc32.o)
 .debug_frame   0x00000dcc       0x54 /media/data/coding/GSoC/AVT/px4+mavlink/Firmware/Build/px4io-v2_default.build/nuttx-export/libs/libnuttx.a(c-lib_lowsyslog.o)
 .debug_frame   0x00000e20       0x28 /media/data/coding/GSoC/AVT/px4+mavlink/Firmware/Build/px4io-v2_default.build/nuttx-export/libs/libnuttx.a(c-lib_memchr.o)
 .debug_frame   0x00000e48       0x34 /media/data/coding/GSoC/AVT/px4+mavlink/Firmware/Build/px4io-v2_default.build/nuttx-export/libs/libnuttx.a(c-lib_memcpy.o)
 .debug_frame   0x00000e7c       0x30 /media/data/coding/GSoC/AVT/px4+mavlink/Firmware/Build/px4io-v2_default.build/nuttx-export/libs/libnuttx.a(c-lib_memset.o)
 .debug_frame   0x00000eac       0x34 /media/data/coding/GSoC/AVT/px4+mavlink/Firmware/Build/px4io-v2_default.build/nuttx-export/libs/libnuttx.a(c-lib_printf.o)
 .debug_frame   0x00000ee0       0x78 /media/data/coding/GSoC/AVT/px4+mavlink/Firmware/Build/px4io-v2_default.build/nuttx-export/libs/libnuttx.a(c-lib_sscanf.o)
 .debug_frame   0x00000f58       0x20 /media/data/coding/GSoC/AVT/px4+mavlink/Firmware/Build/px4io-v2_default.build/nuttx-export/libs/libnuttx.a(c-lib_strchr.o)
 .debug_frame   0x00000f78       0x20 /media/data/coding/GSoC/AVT/px4+mavlink/Firmware/Build/px4io-v2_default.build/nuttx-export/libs/libnuttx.a(c-lib_strcmp.o)
 .debug_frame   0x00000f98       0x2c /media/data/coding/GSoC/AVT/px4+mavlink/Firmware/Build/px4io-v2_default.build/nuttx-export/libs/libnuttx.a(c-lib_strcspn.o)
 .debug_frame   0x00000fc4       0x2c /media/data/coding/GSoC/AVT/px4+mavlink/Firmware/Build/px4io-v2_default.build/nuttx-export/libs/libnuttx.a(c-lib_strncpy.o)
 .debug_frame   0x00000ff0       0x2c /media/data/coding/GSoC/AVT/px4+mavlink/Firmware/Build/px4io-v2_default.build/nuttx-export/libs/libnuttx.a(c-lib_strtol.o)
 .debug_frame   0x0000101c       0x30 /media/data/coding/GSoC/AVT/px4+mavlink/Firmware/Build/px4io-v2_default.build/nuttx-export/libs/libnuttx.a(c-lib_strtoul.o)
 .debug_frame   0x0000104c       0x54 /media/data/coding/GSoC/AVT/px4+mavlink/Firmware/Build/px4io-v2_default.build/nuttx-export/libs/libnuttx.a(c-lib_syslog.o)
 .debug_frame   0x000010a0       0x20 /media/data/coding/GSoC/AVT/px4+mavlink/Firmware/Build/px4io-v2_default.build/nuttx-export/libs/libnuttx.a(c-lib_tcgetattr.o)
 .debug_frame   0x000010c0       0x20 /media/data/coding/GSoC/AVT/px4+mavlink/Firmware/Build/px4io-v2_default.build/nuttx-export/libs/libnuttx.a(c-lib_tcsetattr.o)
 .debug_frame   0x000010e0       0x30 /media/data/coding/GSoC/AVT/px4+mavlink/Firmware/Build/px4io-v2_default.build/nuttx-export/libs/libnuttx.a(c-lib_vsnprintf.o)
 .debug_frame   0x00001110       0x20 /media/data/coding/GSoC/AVT/px4+mavlink/Firmware/Build/px4io-v2_default.build/nuttx-export/libs/libnuttx.a(c-sq_addafter.o)
 .debug_frame   0x00001130       0x20 /media/data/coding/GSoC/AVT/px4+mavlink/Firmware/Build/px4io-v2_default.build/nuttx-export/libs/libnuttx.a(c-sq_addfirst.o)
 .debug_frame   0x00001150       0x20 /media/data/coding/GSoC/AVT/px4+mavlink/Firmware/Build/px4io-v2_default.build/nuttx-export/libs/libnuttx.a(c-sq_addlast.o)
 .debug_frame   0x00001170       0x20 /media/data/coding/GSoC/AVT/px4+mavlink/Firmware/Build/px4io-v2_default.build/nuttx-export/libs/libnuttx.a(c-sq_rem.o)
 .debug_frame   0x00001190       0x20 /media/data/coding/GSoC/AVT/px4+mavlink/Firmware/Build/px4io-v2_default.build/nuttx-export/libs/libnuttx.a(mm-mm_calloc.o)
 .debug_frame   0x000011b0       0x2c /media/data/coding/GSoC/AVT/px4+mavlink/Firmware/Build/px4io-v2_default.build/nuttx-export/libs/libnuttx.a(mm-mm_free.o)
 .debug_frame   0x000011dc       0x34 /media/data/coding/GSoC/AVT/px4+mavlink/Firmware/Build/px4io-v2_default.build/nuttx-export/libs/libnuttx.a(mm-mm_mallinfo.o)
 .debug_frame   0x00001210       0x2c /media/data/coding/GSoC/AVT/px4+mavlink/Firmware/Build/px4io-v2_default.build/nuttx-export/libs/libnuttx.a(mm-mm_malloc.o)
 .debug_frame   0x0000123c       0x78 /media/data/coding/GSoC/AVT/px4+mavlink/Firmware/Build/px4io-v2_default.build/nuttx-export/libs/libnuttx.a(mm-mm_sem.o)
 .debug_frame   0x000012b4       0x20 /media/data/coding/GSoC/AVT/px4+mavlink/Firmware/Build/px4io-v2_default.build/nuttx-export/libs/libnuttx.a(mm-mm_size2ndx.o)
 .debug_frame   0x000012d4       0x50 /media/data/coding/GSoC/AVT/px4+mavlink/Firmware/Build/px4io-v2_default.build/nuttx-export/libs/libnuttx.a(mm-mm_user.o)
 .debug_frame   0x00001324       0x2c /media/data/coding/GSoC/AVT/px4+mavlink/Firmware/Build/px4io-v2_default.build/nuttx-export/libs/libnuttx.a(mm-mm_zalloc.o)
 .debug_frame   0x00001350       0xc4 /media/data/coding/GSoC/AVT/px4+mavlink/Firmware/Build/px4io-v2_default.build/nuttx-export/libs/libnuttx.a(arch-stm32_dma.o)
 .debug_frame   0x00001414       0x74 /media/data/coding/GSoC/AVT/px4+mavlink/Firmware/Build/px4io-v2_default.build/nuttx-export/libs/libnuttx.a(arch-stm32_gpio.o)
 .debug_frame   0x00001488       0x70 /media/data/coding/GSoC/AVT/px4+mavlink/Firmware/Build/px4io-v2_default.build/nuttx-export/libs/libnuttx.a(arch-stm32_irq.o)
 .debug_frame   0x000014f8      0x260 /media/data/coding/GSoC/AVT/px4+mavlink/Firmware/Build/px4io-v2_default.build/nuttx-export/libs/libnuttx.a(arch-stm32_serial.o)
 .debug_frame   0x00001758       0x2c /media/data/coding/GSoC/AVT/px4+mavlink/Firmware/Build/px4io-v2_default.build/nuttx-export/libs/libnuttx.a(arch-stm32_start.o)
 .debug_frame   0x00001784       0x2c /media/data/coding/GSoC/AVT/px4+mavlink/Firmware/Build/px4io-v2_default.build/nuttx-export/libs/libnuttx.a(arch-up_assert.o)
 .debug_frame   0x000017b0       0x28 /media/data/coding/GSoC/AVT/px4+mavlink/Firmware/Build/px4io-v2_default.build/nuttx-export/libs/libnuttx.a(arch-up_hardfault.o)
 .debug_frame   0x000017d8       0x28 /media/data/coding/GSoC/AVT/px4+mavlink/Firmware/Build/px4io-v2_default.build/nuttx-export/libs/libnuttx.a(arch-up_modifyreg32.o)
 .debug_frame   0x00001800       0x28 /media/data/coding/GSoC/AVT/px4+mavlink/Firmware/Build/px4io-v2_default.build/nuttx-export/libs/libnuttx.a(arch-up_svcall.o)
 .debug_frame   0x00001828       0x24 /media/data/coding/GSoC/AVT/px4+mavlink/Firmware/Build/px4io-v2_default.build/nuttx-export/libs/libnuttx.a(arch-up_udelay.o)
 .debug_frame   0x0000184c       0x20 /media/data/coding/GSoC/AVT/px4+mavlink/Firmware/Build/px4io-v2_default.build/nuttx-export/libs/libnuttx.a(cxx-libxx_cxa_atexit.o)
 .debug_frame   0x0000186c       0x28 /media/data/coding/GSoC/AVT/px4+mavlink/Firmware/Build/px4io-v2_default.build/nuttx-export/libs/libnuttx.a(cxx-libxx_cxapurevirtual.o)
 .debug_frame   0x00001894       0x20 /media/data/coding/GSoC/AVT/px4+mavlink/Firmware/Build/px4io-v2_default.build/nuttx-export/libs/libnuttx.a(cxx-libxx_delete.o)
 .debug_frame   0x000018b4       0x20 /media/data/coding/GSoC/AVT/px4+mavlink/Firmware/Build/px4io-v2_default.build/nuttx-export/libs/libnuttx.a(cxx-libxx_eabi_atexit.o)
 .debug_frame   0x000018d4       0x20 /media/data/coding/GSoC/AVT/px4+mavlink/Firmware/Build/px4io-v2_default.build/nuttx-export/libs/libnuttx.a(cxx-libxx_new.o)
 .debug_frame   0x000018f4       0x2c /media/data/coding/GSoC/AVT/px4+mavlink/Firmware/Build/px4io-v2_default.build/nuttx-export/libs/libnuttx.a(fs-fs_ioctl.o)
 .debug_frame   0x00001920       0x48 /media/data/coding/GSoC/AVT/px4+mavlink/Firmware/Build/px4io-v2_default.build/nuttx-export/libs/libnuttx.a(fs-fs_open.o)
 .debug_frame   0x00001968       0x2c /media/data/coding/GSoC/AVT/px4+mavlink/Firmware/Build/px4io-v2_default.build/nuttx-export/libs/libnuttx.a(fs-fs_read.o)
 .debug_frame   0x00001994       0x2c /media/data/coding/GSoC/AVT/px4+mavlink/Firmware/Build/px4io-v2_default.build/nuttx-export/libs/libnuttx.a(fs-fs_write.o)
 .debug_frame   0x000019c0       0x4c /media/data/coding/GSoC/AVT/px4+mavlink/Firmware/Build/px4io-v2_default.build/nuttx-export/libs/libnuttx.a(drivers-serialirq.o)
 .debug_frame   0x00001a0c      0x114 /media/data/coding/GSoC/AVT/px4+mavlink/Firmware/Build/px4io-v2_default.build/nuttx-export/libs/libnuttx.a(drivers-serial.o)
 .debug_frame   0x00001b20       0x28 /media/data/coding/GSoC/AVT/px4+mavlink/Firmware/Build/px4io-v2_default.build/nuttx-export/libs/libnuttx.a(sched-errno_getptr.o)
 .debug_frame   0x00001b48       0x28 /media/data/coding/GSoC/AVT/px4+mavlink/Firmware/Build/px4io-v2_default.build/nuttx-export/libs/libnuttx.a(sched-exit.o)
 .debug_frame   0x00001b70       0x20 /media/data/coding/GSoC/AVT/px4+mavlink/Firmware/Build/px4io-v2_default.build/nuttx-export/libs/libnuttx.a(sched-getpid.o)
 .debug_frame   0x00001b90       0x34 /media/data/coding/GSoC/AVT/px4+mavlink/Firmware/Build/px4io-v2_default.build/nuttx-export/libs/libnuttx.a(sched-os_start.o)
 .debug_frame   0x00001bc4       0x2c /media/data/coding/GSoC/AVT/px4+mavlink/Firmware/Build/px4io-v2_default.build/nuttx-export/libs/libnuttx.a(sched-sched_garbage.o)
 .debug_frame   0x00001bf0       0x20 /media/data/coding/GSoC/AVT/px4+mavlink/Firmware/Build/px4io-v2_default.build/nuttx-export/libs/libnuttx.a(sched-sched_getfiles.o)
 .debug_frame   0x00001c10       0x28 /media/data/coding/GSoC/AVT/px4+mavlink/Firmware/Build/px4io-v2_default.build/nuttx-export/libs/libnuttx.a(sched-sem_post.o)
 .debug_frame   0x00001c38       0x2c /media/data/coding/GSoC/AVT/px4+mavlink/Firmware/Build/px4io-v2_default.build/nuttx-export/libs/libnuttx.a(sched-sem_trywait.o)
 .debug_frame   0x00001c64       0x30 /media/data/coding/GSoC/AVT/px4+mavlink/Firmware/Build/px4io-v2_default.build/nuttx-export/libs/libnuttx.a(sched-sem_wait.o)
 .debug_frame   0x00001c94       0x28 /media/data/coding/GSoC/AVT/px4+mavlink/Firmware/Build/px4io-v2_default.build/nuttx-export/libs/libnuttx.a(sched-task_exithook.o)
 .debug_frame   0x00001cbc       0x2c /media/data/coding/GSoC/AVT/px4+mavlink/Firmware/Build/px4io-v2_default.build/nuttx-export/libs/libnuttx.a(sched-task_recover.o)
 .debug_frame   0x00001ce8       0x2c /media/data/coding/GSoC/AVT/px4+mavlink/Firmware/Build/px4io-v2_default.build/nuttx-export/libs/libnuttx.a(sched-wd_cancel.o)
 .debug_frame   0x00001d14       0x2c /media/data/coding/GSoC/AVT/px4+mavlink/Firmware/Build/px4io-v2_default.build/nuttx-export/libs/libnuttx.a(sched-wd_delete.o)
 .debug_frame   0x00001d40       0x2c /media/data/coding/GSoC/AVT/px4+mavlink/Firmware/Build/px4io-v2_default.build/nuttx-export/libs/libnuttx.a(sched-wd_initialize.o)
 .debug_frame   0x00001d6c       0x20 /media/data/coding/GSoC/AVT/px4+mavlink/Firmware/Build/px4io-v2_default.build/nuttx-export/libs/libnuttx.a(c-dq_addfirst.o)
 .debug_frame   0x00001d8c       0x20 /media/data/coding/GSoC/AVT/px4+mavlink/Firmware/Build/px4io-v2_default.build/nuttx-export/libs/libnuttx.a(c-lib_cfgetspeed.o)
 .debug_frame   0x00001dac       0x2c /media/data/coding/GSoC/AVT/px4+mavlink/Firmware/Build/px4io-v2_default.build/nuttx-export/libs/libnuttx.a(c-lib_checkbase.o)
 .debug_frame   0x00001dd8       0x20 /media/data/coding/GSoC/AVT/px4+mavlink/Firmware/Build/px4io-v2_default.build/nuttx-export/libs/libnuttx.a(c-lib_isbasedigit.o)
 .debug_frame   0x00001df8      0x188 /media/data/coding/GSoC/AVT/px4+mavlink/Firmware/Build/px4io-v2_default.build/nuttx-export/libs/libnuttx.a(c-lib_libvsprintf.o)
 .debug_frame   0x00001f80       0x38 /media/data/coding/GSoC/AVT/px4+mavlink/Firmware/Build/px4io-v2_default.build/nuttx-export/libs/libnuttx.a(c-lib_lowoutstream.o)
 .debug_frame   0x00001fb8       0x38 /media/data/coding/GSoC/AVT/px4+mavlink/Firmware/Build/px4io-v2_default.build/nuttx-export/libs/libnuttx.a(c-lib_memoutstream.o)
 .debug_frame   0x00001ff0       0x30 /media/data/coding/GSoC/AVT/px4+mavlink/Firmware/Build/px4io-v2_default.build/nuttx-export/libs/libnuttx.a(c-lib_nulloutstream.o)
 .debug_frame   0x00002020       0x3c /media/data/coding/GSoC/AVT/px4+mavlink/Firmware/Build/px4io-v2_default.build/nuttx-export/libs/libnuttx.a(c-lib_rawoutstream.o)
 .debug_frame   0x0000205c       0x20 /media/data/coding/GSoC/AVT/px4+mavlink/Firmware/Build/px4io-v2_default.build/nuttx-export/libs/libnuttx.a(c-lib_skipspace.o)
 .debug_frame   0x0000207c       0x20 /media/data/coding/GSoC/AVT/px4+mavlink/Firmware/Build/px4io-v2_default.build/nuttx-export/libs/libnuttx.a(c-lib_strlen.o)
 .debug_frame   0x0000209c       0x28 /media/data/coding/GSoC/AVT/px4+mavlink/Firmware/Build/px4io-v2_default.build/nuttx-export/libs/libnuttx.a(c-sem_init.o)
 .debug_frame   0x000020c4       0x20 /media/data/coding/GSoC/AVT/px4+mavlink/Firmware/Build/px4io-v2_default.build/nuttx-export/libs/libnuttx.a(c-sq_remafter.o)
 .debug_frame   0x000020e4       0x20 /media/data/coding/GSoC/AVT/px4+mavlink/Firmware/Build/px4io-v2_default.build/nuttx-export/libs/libnuttx.a(c-sq_remfirst.o)
 .debug_frame   0x00002104       0x2c /media/data/coding/GSoC/AVT/px4+mavlink/Firmware/Build/px4io-v2_default.build/nuttx-export/libs/libnuttx.a(mm-mm_addfreechunk.o)
 .debug_frame   0x00002130       0x54 /media/data/coding/GSoC/AVT/px4+mavlink/Firmware/Build/px4io-v2_default.build/nuttx-export/libs/libnuttx.a(mm-mm_initialize.o)
 .debug_frame   0x00002184       0x20 /media/data/coding/GSoC/AVT/px4+mavlink/Firmware/Build/px4io-v2_default.build/nuttx-export/libs/libnuttx.a(arch-stm32_allocateheap.o)
 .debug_frame   0x000021a4       0x20 /media/data/coding/GSoC/AVT/px4+mavlink/Firmware/Build/px4io-v2_default.build/nuttx-export/libs/libnuttx.a(arch-stm32_idle.o)
 .debug_frame   0x000021c4       0x38 /media/data/coding/GSoC/AVT/px4+mavlink/Firmware/Build/px4io-v2_default.build/nuttx-export/libs/libnuttx.a(arch-stm32_lowputc.o)
 .debug_frame   0x000021fc       0x30 /media/data/coding/GSoC/AVT/px4+mavlink/Firmware/Build/px4io-v2_default.build/nuttx-export/libs/libnuttx.a(arch-stm32_rcc.o)
 .debug_frame   0x0000222c       0x30 /media/data/coding/GSoC/AVT/px4+mavlink/Firmware/Build/px4io-v2_default.build/nuttx-export/libs/libnuttx.a(arch-up_blocktask.o)
 .debug_frame   0x0000225c       0x28 /media/data/coding/GSoC/AVT/px4+mavlink/Firmware/Build/px4io-v2_default.build/nuttx-export/libs/libnuttx.a(arch-up_copystate.o)
 .debug_frame   0x00002284       0x28 /media/data/coding/GSoC/AVT/px4+mavlink/Firmware/Build/px4io-v2_default.build/nuttx-export/libs/libnuttx.a(arch-up_exit.o)
 .debug_frame   0x000022ac       0x28 /media/data/coding/GSoC/AVT/px4+mavlink/Firmware/Build/px4io-v2_default.build/nuttx-export/libs/libnuttx.a(arch-up_initialize.o)
 .debug_frame   0x000022d4       0x28 /media/data/coding/GSoC/AVT/px4+mavlink/Firmware/Build/px4io-v2_default.build/nuttx-export/libs/libnuttx.a(arch-up_initialstate.o)
 .debug_frame   0x000022fc       0x20 /media/data/coding/GSoC/AVT/px4+mavlink/Firmware/Build/px4io-v2_default.build/nuttx-export/libs/libnuttx.a(arch-up_interruptcontext.o)
 .debug_frame   0x0000231c       0x24 /media/data/coding/GSoC/AVT/px4+mavlink/Firmware/Build/px4io-v2_default.build/nuttx-export/libs/libnuttx.a(arch-up_mdelay.o)
 .debug_frame   0x00002340       0x2c /media/data/coding/GSoC/AVT/px4+mavlink/Firmware/Build/px4io-v2_default.build/nuttx-export/libs/libnuttx.a(arch-up_unblocktask.o)
 .debug_frame   0x0000236c       0xcc /media/data/coding/GSoC/AVT/px4+mavlink/Firmware/Build/px4io-v2_default.build/nuttx-export/libs/libnuttx.a(fs-fs_files.o)
 .debug_frame   0x00002438       0x28 /media/data/coding/GSoC/AVT/px4+mavlink/Firmware/Build/px4io-v2_default.build/nuttx-export/libs/libnuttx.a(fs-fs_inodeaddref.o)
 .debug_frame   0x00002460       0x2c /media/data/coding/GSoC/AVT/px4+mavlink/Firmware/Build/px4io-v2_default.build/nuttx-export/libs/libnuttx.a(fs-fs_inodefind.o)
 .debug_frame   0x0000248c       0xa8 /media/data/coding/GSoC/AVT/px4+mavlink/Firmware/Build/px4io-v2_default.build/nuttx-export/libs/libnuttx.a(fs-fs_inode.o)
 .debug_frame   0x00002534       0x28 /media/data/coding/GSoC/AVT/px4+mavlink/Firmware/Build/px4io-v2_default.build/nuttx-export/libs/libnuttx.a(fs-fs_inoderelease.o)
 .debug_frame   0x0000255c       0x30 /media/data/coding/GSoC/AVT/px4+mavlink/Firmware/Build/px4io-v2_default.build/nuttx-export/libs/libnuttx.a(fs-fs_registerdriver.o)
 .debug_frame   0x0000258c       0x38 /media/data/coding/GSoC/AVT/px4+mavlink/Firmware/Build/px4io-v2_default.build/nuttx-export/libs/libnuttx.a(sched-group_create.o)
 .debug_frame   0x000025c4       0x2c /media/data/coding/GSoC/AVT/px4+mavlink/Firmware/Build/px4io-v2_default.build/nuttx-export/libs/libnuttx.a(sched-group_leave.o)
 .debug_frame   0x000025f0       0x28 /media/data/coding/GSoC/AVT/px4+mavlink/Firmware/Build/px4io-v2_default.build/nuttx-export/libs/libnuttx.a(sched-group_setupidlefiles.o)
 .debug_frame   0x00002618       0x2c /media/data/coding/GSoC/AVT/px4+mavlink/Firmware/Build/px4io-v2_default.build/nuttx-export/libs/libnuttx.a(sched-os_bringup.o)
 .debug_frame   0x00002644       0x2c /media/data/coding/GSoC/AVT/px4+mavlink/Firmware/Build/px4io-v2_default.build/nuttx-export/libs/libnuttx.a(sched-sched_addblocked.o)
 .debug_frame   0x00002670       0x28 /media/data/coding/GSoC/AVT/px4+mavlink/Firmware/Build/px4io-v2_default.build/nuttx-export/libs/libnuttx.a(sched-sched_addprioritized.o)
 .debug_frame   0x00002698       0x2c /media/data/coding/GSoC/AVT/px4+mavlink/Firmware/Build/px4io-v2_default.build/nuttx-export/libs/libnuttx.a(sched-sched_addreadytorun.o)
 .debug_frame   0x000026c4       0x2c /media/data/coding/GSoC/AVT/px4+mavlink/Firmware/Build/px4io-v2_default.build/nuttx-export/libs/libnuttx.a(sched-sched_free.o)
 .debug_frame   0x000026f0       0x30 /media/data/coding/GSoC/AVT/px4+mavlink/Firmware/Build/px4io-v2_default.build/nuttx-export/libs/libnuttx.a(sched-sched_mergepending.o)
 .debug_frame   0x00002720       0x28 /media/data/coding/GSoC/AVT/px4+mavlink/Firmware/Build/px4io-v2_default.build/nuttx-export/libs/libnuttx.a(sched-sched_removeblocked.o)
 .debug_frame   0x00002748       0x2c /media/data/coding/GSoC/AVT/px4+mavlink/Firmware/Build/px4io-v2_default.build/nuttx-export/libs/libnuttx.a(sched-sched_removereadytorun.o)
 .debug_frame   0x00002774       0x28 /media/data/coding/GSoC/AVT/px4+mavlink/Firmware/Build/px4io-v2_default.build/nuttx-export/libs/libnuttx.a(sched-sem_destroy.o)
 .debug_frame   0x0000279c       0x74 /media/data/coding/GSoC/AVT/px4+mavlink/Firmware/Build/px4io-v2_default.build/nuttx-export/libs/libnuttx.a(sched-task_create.o)
 .debug_frame   0x00002810       0x2c /media/data/coding/GSoC/AVT/px4+mavlink/Firmware/Build/px4io-v2_default.build/nuttx-export/libs/libnuttx.a(sched-task_exit.o)
 .debug_frame   0x0000283c       0x4c /media/data/coding/GSoC/AVT/px4+mavlink/Firmware/Build/px4io-v2_default.build/nuttx-export/libs/libnuttx.a(sched-task_setup.o)
 .debug_frame   0x00002888       0x28 /media/data/coding/GSoC/AVT/px4+mavlink/Firmware/Build/px4io-v2_default.build/nuttx-export/libs/libnuttx.a(sched-task_start.o)
 .debug_frame   0x000028b0       0x2c /media/data/coding/GSoC/AVT/px4+mavlink/Firmware/Build/px4io-v2_default.build/nuttx-export/libs/libnuttx.a(sched-task_terminate.o)
 .debug_frame   0x000028dc       0x20 /media/data/coding/GSoC/AVT/px4+mavlink/Firmware/Build/px4io-v2_default.build/nuttx-export/libs/libnuttx.a(c-dq_addlast.o)
 .debug_frame   0x000028fc       0x20 /media/data/coding/GSoC/AVT/px4+mavlink/Firmware/Build/px4io-v2_default.build/nuttx-export/libs/libnuttx.a(c-dq_rem.o)
 .debug_frame   0x0000291c       0x2c /media/data/coding/GSoC/AVT/px4+mavlink/Firmware/Build/px4io-v2_default.build/nuttx-export/libs/libnuttx.a(c-lib_strdup.o)
 .debug_frame   0x00002948       0x40 /media/data/coding/GSoC/AVT/px4+mavlink/Firmware/Build/px4io-v2_default.build/nuttx-export/libs/libnuttx.a(arch-stm32_timerisr.o)
 .debug_frame   0x00002988       0x2c /media/data/coding/GSoC/AVT/px4+mavlink/Firmware/Build/px4io-v2_default.build/nuttx-export/libs/libnuttx.a(arch-up_createstack.o)
 .debug_frame   0x000029b4       0x30 /media/data/coding/GSoC/AVT/px4+mavlink/Firmware/Build/px4io-v2_default.build/nuttx-export/libs/libnuttx.a(arch-up_doirq.o)
 .debug_frame   0x000029e4       0x28 /media/data/coding/GSoC/AVT/px4+mavlink/Firmware/Build/px4io-v2_default.build/nuttx-export/libs/libnuttx.a(arch-up_releasestack.o)
 .debug_frame   0x00002a0c       0x28 /media/data/coding/GSoC/AVT/px4+mavlink/Firmware/Build/px4io-v2_default.build/nuttx-export/libs/libnuttx.a(fs-fs_close.o)
 .debug_frame   0x00002a34       0x2c /media/data/coding/GSoC/AVT/px4+mavlink/Firmware/Build/px4io-v2_default.build/nuttx-export/libs/libnuttx.a(fs-fs_filedup2.o)
 .debug_frame   0x00002a60       0x34 /media/data/coding/GSoC/AVT/px4+mavlink/Firmware/Build/px4io-v2_default.build/nuttx-export/libs/libnuttx.a(fs-fs_inodereserve.o)
 .debug_frame   0x00002a94       0x28 /media/data/coding/GSoC/AVT/px4+mavlink/Firmware/Build/px4io-v2_default.build/nuttx-export/libs/libnuttx.a(sched-group_setuptaskfiles.o)
 .debug_frame   0x00002abc       0x28 /media/data/coding/GSoC/AVT/px4+mavlink/Firmware/Build/px4io-v2_default.build/nuttx-export/libs/libnuttx.a(sched-irq_dispatch.o)
 .debug_frame   0x00002ae4       0x20 /media/data/coding/GSoC/AVT/px4+mavlink/Firmware/Build/px4io-v2_default.build/nuttx-export/libs/libnuttx.a(sched-sched_gettcb.o)
 .debug_frame   0x00002b04       0x28 /media/data/coding/GSoC/AVT/px4+mavlink/Firmware/Build/px4io-v2_default.build/nuttx-export/libs/libnuttx.a(sched-sched_lock.o)
 .debug_frame   0x00002b2c       0x28 /media/data/coding/GSoC/AVT/px4+mavlink/Firmware/Build/px4io-v2_default.build/nuttx-export/libs/libnuttx.a(sched-sched_processtimer.o)
 .debug_frame   0x00002b54       0x2c /media/data/coding/GSoC/AVT/px4+mavlink/Firmware/Build/px4io-v2_default.build/nuttx-export/libs/libnuttx.a(sched-sched_releasetcb.o)
 .debug_frame   0x00002b80       0x2c /media/data/coding/GSoC/AVT/px4+mavlink/Firmware/Build/px4io-v2_default.build/nuttx-export/libs/libnuttx.a(sched-sched_unlock.o)
 .debug_frame   0x00002bac       0x28 /media/data/coding/GSoC/AVT/px4+mavlink/Firmware/Build/px4io-v2_default.build/nuttx-export/libs/libnuttx.a(sched-task_activate.o)
 .debug_frame   0x00002bd4       0x20 /media/data/coding/GSoC/AVT/px4+mavlink/Firmware/Build/px4io-v2_default.build/nuttx-export/libs/libnuttx.a(c-lib_strcpy.o)
 .debug_frame   0x00002bf4       0x2c /media/data/coding/GSoC/AVT/px4+mavlink/Firmware/Build/px4io-v2_default.build/nuttx-export/libs/libnuttx.a(arch-up_releasepending.o)
 .debug_frame   0x00002c20       0x50 /home/avnishks/gcc-arm-none-eabi-4_6-2012q2/bin/../lib/gcc/arm-none-eabi/4.6.2/armv7-m/libgcc.a(bpabi.o)
 .debug_frame   0x00002c70      0x268 /home/avnishks/gcc-arm-none-eabi-4_6-2012q2/bin/../lib/gcc/arm-none-eabi/4.6.2/armv7-m/libgcc.a(unwind-arm.o)
 .debug_frame   0x00002ed8       0xec /home/avnishks/gcc-arm-none-eabi-4_6-2012q2/bin/../lib/gcc/arm-none-eabi/4.6.2/armv7-m/libgcc.a(pr-support.o)
 .debug_frame   0x00002fc4       0x34 /home/avnishks/gcc-arm-none-eabi-4_6-2012q2/bin/../lib/gcc/arm-none-eabi/4.6.2/armv7-m/libgcc.a(_divdi3.o)
 .debug_frame   0x00002ff8       0x34 /home/avnishks/gcc-arm-none-eabi-4_6-2012q2/bin/../lib/gcc/arm-none-eabi/4.6.2/armv7-m/libgcc.a(_udivdi3.o)

.debug_str      0x00000000     0x46ef
 .debug_str     0x00000000      0x2ce /media/data/coding/GSoC/AVT/px4+mavlink/Firmware/Build/px4io-v2_default.build//media/data/coding/GSoC/AVT/px4+mavlink/Firmware/src/drivers/boards/px4io-v2/module.pre.o
                                0x412 (size before relaxing)
 .debug_str     0x000002ce      0x52c /media/data/coding/GSoC/AVT/px4+mavlink/Firmware/Build/px4io-v2_default.build//media/data/coding/GSoC/AVT/px4+mavlink/Firmware/src/drivers/stm32/module.pre.o
                                0x93e (size before relaxing)
 .debug_str     0x000007fa     0x1910 /media/data/coding/GSoC/AVT/px4+mavlink/Firmware/Build/px4io-v2_default.build//media/data/coding/GSoC/AVT/px4+mavlink/Firmware/src/modules/px4iofirmware/module.pre.o
                               0x4121 (size before relaxing)
 .debug_str     0x0000210a       0x59 /media/data/coding/GSoC/AVT/px4+mavlink/Firmware/Build/px4io-v2_default.build/nuttx-export/libs/libnuttx.a(sched-irq_attach.o)
                                0x16a (size before relaxing)
 .debug_str     0x00002163       0x20 /media/data/coding/GSoC/AVT/px4+mavlink/Firmware/Build/px4io-v2_default.build/nuttx-export/libs/libnuttx.a(sched-irq_initialize.o)
                                0x140 (size before relaxing)
 .debug_str     0x00002183       0x27 /media/data/coding/GSoC/AVT/px4+mavlink/Firmware/Build/px4io-v2_default.build/nuttx-export/libs/libnuttx.a(sched-irq_unexpectedisr.o)
                                0x168 (size before relaxing)
 .debug_str     0x000021aa       0x46 /media/data/coding/GSoC/AVT/px4+mavlink/Firmware/Build/px4io-v2_default.build/nuttx-export/libs/libnuttx.a(c-lib_abort.o)
                                0x113 (size before relaxing)
 .debug_str     0x000021f0       0x2d /media/data/coding/GSoC/AVT/px4+mavlink/Firmware/Build/px4io-v2_default.build/nuttx-export/libs/libnuttx.a(c-lib_cfsetspeed.o)
                                0x195 (size before relaxing)
 .debug_str     0x0000221d       0x34 /media/data/coding/GSoC/AVT/px4+mavlink/Firmware/Build/px4io-v2_default.build/nuttx-export/libs/libnuttx.a(c-lib_crc32.o)
                                0x150 (size before relaxing)
 .debug_str     0x00002251       0x46 /media/data/coding/GSoC/AVT/px4+mavlink/Firmware/Build/px4io-v2_default.build/nuttx-export/libs/libnuttx.a(c-lib_lowsyslog.o)
                                0x184 (size before relaxing)
 .debug_str     0x00002297       0x1b /media/data/coding/GSoC/AVT/px4+mavlink/Firmware/Build/px4io-v2_default.build/nuttx-export/libs/libnuttx.a(c-lib_memchr.o)
                                0x126 (size before relaxing)
 .debug_str     0x000022b2       0x25 /media/data/coding/GSoC/AVT/px4+mavlink/Firmware/Build/px4io-v2_default.build/nuttx-export/libs/libnuttx.a(c-lib_memcpy.o)
                                0x130 (size before relaxing)
 .debug_str     0x000022d7       0x1b /media/data/coding/GSoC/AVT/px4+mavlink/Firmware/Build/px4io-v2_default.build/nuttx-export/libs/libnuttx.a(c-lib_memset.o)
                                0x126 (size before relaxing)
 .debug_str     0x000022f2       0x13 /media/data/coding/GSoC/AVT/px4+mavlink/Firmware/Build/px4io-v2_default.build/nuttx-export/libs/libnuttx.a(c-lib_printf.o)
                                0x154 (size before relaxing)
 .debug_str     0x00002305       0x5b /media/data/coding/GSoC/AVT/px4+mavlink/Firmware/Build/px4io-v2_default.build/nuttx-export/libs/libnuttx.a(c-lib_sscanf.o)
                                0x1d6 (size before relaxing)
 .debug_str     0x00002360       0x1b /media/data/coding/GSoC/AVT/px4+mavlink/Firmware/Build/px4io-v2_default.build/nuttx-export/libs/libnuttx.a(c-lib_strchr.o)
                                0x10c (size before relaxing)
 .debug_str     0x0000237b       0x1b /media/data/coding/GSoC/AVT/px4+mavlink/Firmware/Build/px4io-v2_default.build/nuttx-export/libs/libnuttx.a(c-lib_strcmp.o)
                                0x113 (size before relaxing)
 .debug_str     0x00002396       0x24 /media/data/coding/GSoC/AVT/px4+mavlink/Firmware/Build/px4io-v2_default.build/nuttx-export/libs/libnuttx.a(c-lib_strcspn.o)
                                0x12f (size before relaxing)
 .debug_str     0x000023ba       0x1d /media/data/coding/GSoC/AVT/px4+mavlink/Firmware/Build/px4io-v2_default.build/nuttx-export/libs/libnuttx.a(c-lib_strncpy.o)
                                0x12d (size before relaxing)
 .debug_str     0x000023d7       0x34 /media/data/coding/GSoC/AVT/px4+mavlink/Firmware/Build/px4io-v2_default.build/nuttx-export/libs/libnuttx.a(c-lib_strtol.o)
                                0x15d (size before relaxing)
 .debug_str     0x0000240b       0x1d /media/data/coding/GSoC/AVT/px4+mavlink/Firmware/Build/px4io-v2_default.build/nuttx-export/libs/libnuttx.a(c-lib_strtoul.o)
                                0x146 (size before relaxing)
 .debug_str     0x00002428       0x2d /media/data/coding/GSoC/AVT/px4+mavlink/Firmware/Build/px4io-v2_default.build/nuttx-export/libs/libnuttx.a(c-lib_syslog.o)
                                0x19b (size before relaxing)
 .debug_str     0x00002455       0x22 /media/data/coding/GSoC/AVT/px4+mavlink/Firmware/Build/px4io-v2_default.build/nuttx-export/libs/libnuttx.a(c-lib_tcgetattr.o)
                                0x18d (size before relaxing)
 .debug_str     0x00002477       0x2a /media/data/coding/GSoC/AVT/px4+mavlink/Firmware/Build/px4io-v2_default.build/nuttx-export/libs/libnuttx.a(c-lib_tcsetattr.o)
                                0x195 (size before relaxing)
 .debug_str     0x000024a1       0x33 /media/data/coding/GSoC/AVT/px4+mavlink/Firmware/Build/px4io-v2_default.build/nuttx-export/libs/libnuttx.a(c-lib_vsnprintf.o)
                                0x1cd (size before relaxing)
 .debug_str     0x000024d4       0x20 /media/data/coding/GSoC/AVT/px4+mavlink/Firmware/Build/px4io-v2_default.build/nuttx-export/libs/libnuttx.a(c-sq_addafter.o)
                                0x15d (size before relaxing)
 .debug_str     0x000024f4       0x20 /media/data/coding/GSoC/AVT/px4+mavlink/Firmware/Build/px4io-v2_default.build/nuttx-export/libs/libnuttx.a(c-sq_addfirst.o)
                                0x158 (size before relaxing)
 .debug_str     0x00002514       0x1e /media/data/coding/GSoC/AVT/px4+mavlink/Firmware/Build/px4io-v2_default.build/nuttx-export/libs/libnuttx.a(c-sq_addlast.o)
                                0x156 (size before relaxing)
 .debug_str     0x00002532       0x16 /media/data/coding/GSoC/AVT/px4+mavlink/Firmware/Build/px4io-v2_default.build/nuttx-export/libs/libnuttx.a(c-sq_rem.o)
                                0x153 (size before relaxing)
 .debug_str     0x00002548       0x48 /media/data/coding/GSoC/AVT/px4+mavlink/Firmware/Build/px4io-v2_default.build/nuttx-export/libs/libnuttx.a(mm-mm_calloc.o)
                                0x126 (size before relaxing)
 .debug_str     0x00002590       0xd0 /media/data/coding/GSoC/AVT/px4+mavlink/Firmware/Build/px4io-v2_default.build/nuttx-export/libs/libnuttx.a(mm-mm_free.o)
                                0x227 (size before relaxing)
 .debug_str     0x00002660       0x1a /media/data/coding/GSoC/AVT/px4+mavlink/Firmware/Build/px4io-v2_default.build/nuttx-export/libs/libnuttx.a(mm-mm_mallinfo.o)
                                0x24d (size before relaxing)
 .debug_str     0x0000267a       0x2a /media/data/coding/GSoC/AVT/px4+mavlink/Firmware/Build/px4io-v2_default.build/nuttx-export/libs/libnuttx.a(mm-mm_malloc.o)
                                0x232 (size before relaxing)
 .debug_str     0x000026a4       0x32 /media/data/coding/GSoC/AVT/px4+mavlink/Firmware/Build/px4io-v2_default.build/nuttx-export/libs/libnuttx.a(mm-mm_sem.o)
                                0x252 (size before relaxing)
 .debug_str     0x000026d6       0x1a /media/data/coding/GSoC/AVT/px4+mavlink/Firmware/Build/px4io-v2_default.build/nuttx-export/libs/libnuttx.a(mm-mm_size2ndx.o)
                                0x128 (size before relaxing)
 .debug_str     0x000026f0       0x5f /media/data/coding/GSoC/AVT/px4+mavlink/Firmware/Build/px4io-v2_default.build/nuttx-export/libs/libnuttx.a(mm-mm_user.o)
                                0x251 (size before relaxing)
 .debug_str     0x0000274f       0x13 /media/data/coding/GSoC/AVT/px4+mavlink/Firmware/Build/px4io-v2_default.build/nuttx-export/libs/libnuttx.a(mm-mm_zalloc.o)
                                0x127 (size before relaxing)
 .debug_str     0x00002762      0x21a /media/data/coding/GSoC/AVT/px4+mavlink/Firmware/Build/px4io-v2_default.build/nuttx-export/libs/libnuttx.a(arch-stm32_dma.o)
                                0x386 (size before relaxing)
 .debug_str     0x0000297c       0xa2 /media/data/coding/GSoC/AVT/px4+mavlink/Firmware/Build/px4io-v2_default.build/nuttx-export/libs/libnuttx.a(arch-stm32_gpio.o)
                                0x217 (size before relaxing)
 .debug_str     0x00002a1e       0xa7 /media/data/coding/GSoC/AVT/px4+mavlink/Firmware/Build/px4io-v2_default.build/nuttx-export/libs/libnuttx.a(arch-stm32_irq.o)
                                0x285 (size before relaxing)
 .debug_str     0x00002ac5      0x520 /media/data/coding/GSoC/AVT/px4+mavlink/Firmware/Build/px4io-v2_default.build/nuttx-export/libs/libnuttx.a(arch-stm32_serial.o)
                                0x8e2 (size before relaxing)
 .debug_str     0x00002fe5       0x3d /media/data/coding/GSoC/AVT/px4+mavlink/Firmware/Build/px4io-v2_default.build/nuttx-export/libs/libnuttx.a(arch-stm32_start.o)
                                0x160 (size before relaxing)
 .debug_str     0x00003022      0x1e5 /media/data/coding/GSoC/AVT/px4+mavlink/Firmware/Build/px4io-v2_default.build/nuttx-export/libs/libnuttx.a(arch-up_assert.o)
                                0x5ad (size before relaxing)
 .debug_str     0x00003207       0x29 /media/data/coding/GSoC/AVT/px4+mavlink/Firmware/Build/px4io-v2_default.build/nuttx-export/libs/libnuttx.a(arch-up_hardfault.o)
                                0x1bf (size before relaxing)
 .debug_str     0x00003230       0x36 /media/data/coding/GSoC/AVT/px4+mavlink/Firmware/Build/px4io-v2_default.build/nuttx-export/libs/libnuttx.a(arch-up_modifyreg32.o)
                                0x195 (size before relaxing)
 .debug_str     0x00003266       0x1e /media/data/coding/GSoC/AVT/px4+mavlink/Firmware/Build/px4io-v2_default.build/nuttx-export/libs/libnuttx.a(arch-up_svcall.o)
                                0x15f (size before relaxing)
 .debug_str     0x00003284       0x35 /media/data/coding/GSoC/AVT/px4+mavlink/Firmware/Build/px4io-v2_default.build/nuttx-export/libs/libnuttx.a(arch-up_udelay.o)
                                0x15c (size before relaxing)
 .debug_str     0x000032b9       0x1e /media/data/coding/GSoC/AVT/px4+mavlink/Firmware/Build/px4io-v2_default.build/nuttx-export/libs/libnuttx.a(arch-up_vectors.o)
                                 0xb4 (size before relaxing)
 .debug_str     0x000032d7       0x9c /media/data/coding/GSoC/AVT/px4+mavlink/Firmware/Build/px4io-v2_default.build/nuttx-export/libs/libnuttx.a(cxx-libxx_cxa_atexit.o)
                                0x20c (size before relaxing)
 .debug_str     0x00003373       0x2c /media/data/coding/GSoC/AVT/px4+mavlink/Firmware/Build/px4io-v2_default.build/nuttx-export/libs/libnuttx.a(cxx-libxx_cxapurevirtual.o)
                                0x10e (size before relaxing)
 .debug_str     0x0000339f       0x28 /media/data/coding/GSoC/AVT/px4+mavlink/Firmware/Build/px4io-v2_default.build/nuttx-export/libs/libnuttx.a(cxx-libxx_delete.o)
                                0x1e4 (size before relaxing)
 .debug_str     0x000033c7       0x2c /media/data/coding/GSoC/AVT/px4+mavlink/Firmware/Build/px4io-v2_default.build/nuttx-export/libs/libnuttx.a(cxx-libxx_eabi_atexit.o)
                                0x209 (size before relaxing)
 .debug_str     0x000033f3       0x7a /media/data/coding/GSoC/AVT/px4+mavlink/Firmware/Build/px4io-v2_default.build/nuttx-export/libs/libnuttx.a(cxx-libxx_new.o)
                                0x292 (size before relaxing)
 .debug_str     0x0000346d       0x47 /media/data/coding/GSoC/AVT/px4+mavlink/Firmware/Build/px4io-v2_default.build/nuttx-export/libs/libnuttx.a(fs-fs_ioctl.o)
                                0x35e (size before relaxing)
 .debug_str     0x000034b4       0x44 /media/data/coding/GSoC/AVT/px4+mavlink/Firmware/Build/px4io-v2_default.build/nuttx-export/libs/libnuttx.a(fs-fs_open.o)
                                0x399 (size before relaxing)
 .debug_str     0x000034f8       0x14 /media/data/coding/GSoC/AVT/px4+mavlink/Firmware/Build/px4io-v2_default.build/nuttx-export/libs/libnuttx.a(fs-fs_read.o)
                                0x367 (size before relaxing)
 .debug_str     0x0000350c       0x16 /media/data/coding/GSoC/AVT/px4+mavlink/Firmware/Build/px4io-v2_default.build/nuttx-export/libs/libnuttx.a(fs-fs_write.o)
                                0x370 (size before relaxing)
 .debug_str     0x00003522       0x75 /media/data/coding/GSoC/AVT/px4+mavlink/Firmware/Build/px4io-v2_default.build/nuttx-export/libs/libnuttx.a(drivers-serialirq.o)
                                0x478 (size before relaxing)
 .debug_str     0x00003597       0xd1 /media/data/coding/GSoC/AVT/px4+mavlink/Firmware/Build/px4io-v2_default.build/nuttx-export/libs/libnuttx.a(drivers-serial.o)
                                0x5af (size before relaxing)
 .debug_str     0x00003668       0x28 /media/data/coding/GSoC/AVT/px4+mavlink/Firmware/Build/px4io-v2_default.build/nuttx-export/libs/libnuttx.a(sched-errno_getptr.o)
                                0x577 (size before relaxing)
 .debug_str     0x00000000       0x28 /media/data/coding/GSoC/AVT/px4+mavlink/Firmware/Build/px4io-v2_default.build/nuttx-export/libs/libnuttx.a(sched-exit.o)
                                0x4cc (size before relaxing)
 .debug_str     0x00003690       0x10 /media/data/coding/GSoC/AVT/px4+mavlink/Firmware/Build/px4io-v2_default.build/nuttx-export/libs/libnuttx.a(sched-getpid.o)
                                0x4c9 (size before relaxing)
 .debug_str     0x000036a0       0xec /media/data/coding/GSoC/AVT/px4+mavlink/Firmware/Build/px4io-v2_default.build/nuttx-export/libs/libnuttx.a(sched-os_start.o)
                                0x69c (size before relaxing)
 .debug_str     0x0000378c       0x40 /media/data/coding/GSoC/AVT/px4+mavlink/Firmware/Build/px4io-v2_default.build/nuttx-export/libs/libnuttx.a(sched-sched_garbage.o)
                                0x1c6 (size before relaxing)
 .debug_str     0x000037cc       0x20 /media/data/coding/GSoC/AVT/px4+mavlink/Firmware/Build/px4io-v2_default.build/nuttx-export/libs/libnuttx.a(sched-sched_getfiles.o)
                                0x4de (size before relaxing)
 .debug_str     0x000037ec       0x25 /media/data/coding/GSoC/AVT/px4+mavlink/Firmware/Build/px4io-v2_default.build/nuttx-export/libs/libnuttx.a(sched-sem_post.o)
                                0x50d (size before relaxing)
 .debug_str     0x00003811       0x1a /media/data/coding/GSoC/AVT/px4+mavlink/Firmware/Build/px4io-v2_default.build/nuttx-export/libs/libnuttx.a(sched-sem_trywait.o)
                                0x50a (size before relaxing)
 .debug_str     0x0000382b       0x14 /media/data/coding/GSoC/AVT/px4+mavlink/Firmware/Build/px4io-v2_default.build/nuttx-export/libs/libnuttx.a(sched-sem_wait.o)
                                0x595 (size before relaxing)
 .debug_str     0x0000383f       0x2a /media/data/coding/GSoC/AVT/px4+mavlink/Firmware/Build/px4io-v2_default.build/nuttx-export/libs/libnuttx.a(sched-task_exithook.o)
                                0x4a7 (size before relaxing)
 .debug_str     0x00003869       0x1c /media/data/coding/GSoC/AVT/px4+mavlink/Firmware/Build/px4io-v2_default.build/nuttx-export/libs/libnuttx.a(sched-task_recover.o)
                                0x4b8 (size before relaxing)
 .debug_str     0x00003885       0x3e /media/data/coding/GSoC/AVT/px4+mavlink/Firmware/Build/px4io-v2_default.build/nuttx-export/libs/libnuttx.a(sched-wd_cancel.o)
                                0x21b (size before relaxing)
 .debug_str     0x000038c3       0x28 /media/data/coding/GSoC/AVT/px4+mavlink/Firmware/Build/px4io-v2_default.build/nuttx-export/libs/libnuttx.a(sched-wd_delete.o)
                                0x208 (size before relaxing)
 .debug_str     0x000038eb       0x2c /media/data/coding/GSoC/AVT/px4+mavlink/Firmware/Build/px4io-v2_default.build/nuttx-export/libs/libnuttx.a(sched-wd_initialize.o)
                                0x280 (size before relaxing)
 .debug_str     0x00003917       0x20 /media/data/coding/GSoC/AVT/px4+mavlink/Firmware/Build/px4io-v2_default.build/nuttx-export/libs/libnuttx.a(c-dq_addfirst.o)
                                0x15e (size before relaxing)
 .debug_str     0x00003937       0x24 /media/data/coding/GSoC/AVT/px4+mavlink/Firmware/Build/px4io-v2_default.build/nuttx-export/libs/libnuttx.a(c-lib_cfgetspeed.o)
                                0x18f (size before relaxing)
 .debug_str     0x0000395b       0x2a /media/data/coding/GSoC/AVT/px4+mavlink/Firmware/Build/px4io-v2_default.build/nuttx-export/libs/libnuttx.a(c-lib_checkbase.o)
                                0x13b (size before relaxing)
 .debug_str     0x00003985       0x29 /media/data/coding/GSoC/AVT/px4+mavlink/Firmware/Build/px4io-v2_default.build/nuttx-export/libs/libnuttx.a(c-lib_isbasedigit.o)
                                0x158 (size before relaxing)
 .debug_str     0x000039ae       0xff /media/data/coding/GSoC/AVT/px4+mavlink/Firmware/Build/px4io-v2_default.build/nuttx-export/libs/libnuttx.a(c-lib_libvsprintf.o)
                                0x2ca (size before relaxing)
 .debug_str     0x00003aad       0x3c /media/data/coding/GSoC/AVT/px4+mavlink/Firmware/Build/px4io-v2_default.build/nuttx-export/libs/libnuttx.a(c-lib_lowoutstream.o)
                                0x174 (size before relaxing)
 .debug_str     0x00003ae9       0x42 /media/data/coding/GSoC/AVT/px4+mavlink/Firmware/Build/px4io-v2_default.build/nuttx-export/libs/libnuttx.a(c-lib_memoutstream.o)
                                0x1b1 (size before relaxing)
 .debug_str     0x00003b2b       0x3f /media/data/coding/GSoC/AVT/px4+mavlink/Firmware/Build/px4io-v2_default.build/nuttx-export/libs/libnuttx.a(c-lib_nulloutstream.o)
                                0x17e (size before relaxing)
 .debug_str     0x00003b6a       0x4b /media/data/coding/GSoC/AVT/px4+mavlink/Firmware/Build/px4io-v2_default.build/nuttx-export/libs/libnuttx.a(c-lib_rawoutstream.o)
                                0x1aa (size before relaxing)
 .debug_str     0x00003bb5       0x25 /media/data/coding/GSoC/AVT/px4+mavlink/Firmware/Build/px4io-v2_default.build/nuttx-export/libs/libnuttx.a(c-lib_skipspace.o)
                                0x136 (size before relaxing)
 .debug_str     0x00003bda       0x1b /media/data/coding/GSoC/AVT/px4+mavlink/Firmware/Build/px4io-v2_default.build/nuttx-export/libs/libnuttx.a(c-lib_strlen.o)
                                0x126 (size before relaxing)
 .debug_str     0x00003bf5       0x26 /media/data/coding/GSoC/AVT/px4+mavlink/Firmware/Build/px4io-v2_default.build/nuttx-export/libs/libnuttx.a(c-sem_init.o)
                                0x143 (size before relaxing)
 .debug_str     0x00003c1b       0x20 /media/data/coding/GSoC/AVT/px4+mavlink/Firmware/Build/px4io-v2_default.build/nuttx-export/libs/libnuttx.a(c-sq_remafter.o)
                                0x158 (size before relaxing)
 .debug_str     0x00003c3b       0x20 /media/data/coding/GSoC/AVT/px4+mavlink/Firmware/Build/px4io-v2_default.build/nuttx-export/libs/libnuttx.a(c-sq_remfirst.o)
                                0x153 (size before relaxing)
 .debug_str     0x00003c5b       0x22 /media/data/coding/GSoC/AVT/px4+mavlink/Firmware/Build/px4io-v2_default.build/nuttx-export/libs/libnuttx.a(mm-mm_addfreechunk.o)
                                0x21f (size before relaxing)
 .debug_str     0x00003c7d       0x19 /media/data/coding/GSoC/AVT/px4+mavlink/Firmware/Build/px4io-v2_default.build/nuttx-export/libs/libnuttx.a(mm-mm_initialize.o)
                                0x257 (size before relaxing)
 .debug_str     0x00003c96       0x2b /media/data/coding/GSoC/AVT/px4+mavlink/Firmware/Build/px4io-v2_default.build/nuttx-export/libs/libnuttx.a(arch-stm32_allocateheap.o)
                                0x17e (size before relaxing)
 .debug_str     0x00003cc1       0x1a /media/data/coding/GSoC/AVT/px4+mavlink/Firmware/Build/px4io-v2_default.build/nuttx-export/libs/libnuttx.a(arch-stm32_idle.o)
                                0x12e (size before relaxing)
 .debug_str     0x00003cdb       0x34 /media/data/coding/GSoC/AVT/px4+mavlink/Firmware/Build/px4io-v2_default.build/nuttx-export/libs/libnuttx.a(arch-stm32_lowputc.o)
                                0x152 (size before relaxing)
 .debug_str     0x00003d0f       0x8c /media/data/coding/GSoC/AVT/px4+mavlink/Firmware/Build/px4io-v2_default.build/nuttx-export/libs/libnuttx.a(arch-stm32_rcc.o)
                                0x1cb (size before relaxing)
 .debug_str     0x00003d9b       0x44 /media/data/coding/GSoC/AVT/px4+mavlink/Firmware/Build/px4io-v2_default.build/nuttx-export/libs/libnuttx.a(arch-up_blocktask.o)
                                0x5b6 (size before relaxing)
 .debug_str     0x00003ddf       0x24 /media/data/coding/GSoC/AVT/px4+mavlink/Firmware/Build/px4io-v2_default.build/nuttx-export/libs/libnuttx.a(arch-up_copystate.o)
                                0x150 (size before relaxing)
 .debug_str     0x00003e03       0x11 /media/data/coding/GSoC/AVT/px4+mavlink/Firmware/Build/px4io-v2_default.build/nuttx-export/libs/libnuttx.a(arch-up_exit.o)
                                0x4f9 (size before relaxing)
 .debug_str     0x00003e14       0x17 /media/data/coding/GSoC/AVT/px4+mavlink/Firmware/Build/px4io-v2_default.build/nuttx-export/libs/libnuttx.a(arch-up_initialize.o)
                                0x159 (size before relaxing)
 .debug_str     0x00003e2b       0x2b /media/data/coding/GSoC/AVT/px4+mavlink/Firmware/Build/px4io-v2_default.build/nuttx-export/libs/libnuttx.a(arch-up_initialstate.o)
                                0x4a8 (size before relaxing)
 .debug_str     0x00003e56       0x32 /media/data/coding/GSoC/AVT/px4+mavlink/Firmware/Build/px4io-v2_default.build/nuttx-export/libs/libnuttx.a(arch-up_interruptcontext.o)
                                0x17e (size before relaxing)
 .debug_str     0x00003e88       0x2a /media/data/coding/GSoC/AVT/px4+mavlink/Firmware/Build/px4io-v2_default.build/nuttx-export/libs/libnuttx.a(arch-up_mdelay.o)
                                0x13e (size before relaxing)
 .debug_str     0x00003eb2       0x29 /media/data/coding/GSoC/AVT/px4+mavlink/Firmware/Build/px4io-v2_default.build/nuttx-export/libs/libnuttx.a(arch-up_unblocktask.o)
                                0x594 (size before relaxing)
 .debug_str     0x00003edb       0xac /media/data/coding/GSoC/AVT/px4+mavlink/Firmware/Build/px4io-v2_default.build/nuttx-export/libs/libnuttx.a(fs-fs_files.o)
                                0x420 (size before relaxing)
 .debug_str     0x00003f87       0x1e /media/data/coding/GSoC/AVT/px4+mavlink/Firmware/Build/px4io-v2_default.build/nuttx-export/libs/libnuttx.a(fs-fs_inodeaddref.o)
                                0x324 (size before relaxing)
 .debug_str     0x00003fa5       0x1a /media/data/coding/GSoC/AVT/px4+mavlink/Firmware/Build/px4io-v2_default.build/nuttx-export/libs/libnuttx.a(fs-fs_inodefind.o)
                                0x332 (size before relaxing)
 .debug_str     0x00003fbf       0x9d /media/data/coding/GSoC/AVT/px4+mavlink/Firmware/Build/px4io-v2_default.build/nuttx-export/libs/libnuttx.a(fs-fs_inode.o)
                                0x3e4 (size before relaxing)
 .debug_str     0x0000405c       0x20 /media/data/coding/GSoC/AVT/px4+mavlink/Firmware/Build/px4io-v2_default.build/nuttx-export/libs/libnuttx.a(fs-fs_inoderelease.o)
                                0x334 (size before relaxing)
 .debug_str     0x0000407c       0x2e /media/data/coding/GSoC/AVT/px4+mavlink/Firmware/Build/px4io-v2_default.build/nuttx-export/libs/libnuttx.a(fs-fs_registerdriver.o)
                                0x343 (size before relaxing)
 .debug_str     0x000040aa       0x2f /media/data/coding/GSoC/AVT/px4+mavlink/Firmware/Build/px4io-v2_default.build/nuttx-export/libs/libnuttx.a(sched-group_create.o)
                                0x4c3 (size before relaxing)
 .debug_str     0x000040d9       0x28 /media/data/coding/GSoC/AVT/px4+mavlink/Firmware/Build/px4io-v2_default.build/nuttx-export/libs/libnuttx.a(sched-group_leave.o)
                                0x49e (size before relaxing)
 .debug_str     0x00004101       0x2c /media/data/coding/GSoC/AVT/px4+mavlink/Firmware/Build/px4io-v2_default.build/nuttx-export/libs/libnuttx.a(sched-group_setupidlefiles.o)
                                0x4c0 (size before relaxing)
 .debug_str     0x0000412d       0x1f /media/data/coding/GSoC/AVT/px4+mavlink/Firmware/Build/px4io-v2_default.build/nuttx-export/libs/libnuttx.a(sched-os_bringup.o)
                                0x144 (size before relaxing)
 .debug_str     0x0000414c       0x29 /media/data/coding/GSoC/AVT/px4+mavlink/Firmware/Build/px4io-v2_default.build/nuttx-export/libs/libnuttx.a(sched-sched_addblocked.o)
                                0x5a6 (size before relaxing)
 .debug_str     0x00004175       0x2c /media/data/coding/GSoC/AVT/px4+mavlink/Firmware/Build/px4io-v2_default.build/nuttx-export/libs/libnuttx.a(sched-sched_addprioritized.o)
                                0x4e7 (size before relaxing)
 .debug_str     0x000041a1       0x2a /media/data/coding/GSoC/AVT/px4+mavlink/Firmware/Build/px4io-v2_default.build/nuttx-export/libs/libnuttx.a(sched-sched_addreadytorun.o)
                                0x58d (size before relaxing)
 .debug_str     0x000041cb       0x19 /media/data/coding/GSoC/AVT/px4+mavlink/Firmware/Build/px4io-v2_default.build/nuttx-export/libs/libnuttx.a(sched-sched_free.o)
                                0x1a7 (size before relaxing)
 .debug_str     0x000041e4       0x46 /media/data/coding/GSoC/AVT/px4+mavlink/Firmware/Build/px4io-v2_default.build/nuttx-export/libs/libnuttx.a(sched-sched_mergepending.o)
                                0x59f (size before relaxing)
 .debug_str     0x0000422a       0x2a /media/data/coding/GSoC/AVT/px4+mavlink/Firmware/Build/px4io-v2_default.build/nuttx-export/libs/libnuttx.a(sched-sched_removeblocked.o)
                                0x5ac (size before relaxing)
 .debug_str     0x00004254       0x30 /media/data/coding/GSoC/AVT/px4+mavlink/Firmware/Build/px4io-v2_default.build/nuttx-export/libs/libnuttx.a(sched-sched_removereadytorun.o)
                                0x57f (size before relaxing)
 .debug_str     0x00004284       0x1a /media/data/coding/GSoC/AVT/px4+mavlink/Firmware/Build/px4io-v2_default.build/nuttx-export/libs/libnuttx.a(sched-sem_destroy.o)
                                0x14d (size before relaxing)
 .debug_str     0x0000429e       0x54 /media/data/coding/GSoC/AVT/px4+mavlink/Firmware/Build/px4io-v2_default.build/nuttx-export/libs/libnuttx.a(sched-task_create.o)
                                0x549 (size before relaxing)
 .debug_str     0x000042f2       0x16 /media/data/coding/GSoC/AVT/px4+mavlink/Firmware/Build/px4io-v2_default.build/nuttx-export/libs/libnuttx.a(sched-task_exit.o)
                                0x579 (size before relaxing)
 .debug_str     0x00004308       0x8d /media/data/coding/GSoC/AVT/px4+mavlink/Firmware/Build/px4io-v2_default.build/nuttx-export/libs/libnuttx.a(sched-task_setup.o)
                                0x62f (size before relaxing)
 .debug_str     0x00004395       0x21 /media/data/coding/GSoC/AVT/px4+mavlink/Firmware/Build/px4io-v2_default.build/nuttx-export/libs/libnuttx.a(sched-task_start.o)
                                0x4fd (size before relaxing)
 .debug_str     0x000043b6       0x20 /media/data/coding/GSoC/AVT/px4+mavlink/Firmware/Build/px4io-v2_default.build/nuttx-export/libs/libnuttx.a(sched-task_terminate.o)
                                0x5d7 (size before relaxing)
 .debug_str     0x000043d6       0x1e /media/data/coding/GSoC/AVT/px4+mavlink/Firmware/Build/px4io-v2_default.build/nuttx-export/libs/libnuttx.a(c-dq_addlast.o)
                                0x15c (size before relaxing)
 .debug_str     0x000043f4       0x16 /media/data/coding/GSoC/AVT/px4+mavlink/Firmware/Build/px4io-v2_default.build/nuttx-export/libs/libnuttx.a(c-dq_rem.o)
                                0x15e (size before relaxing)
 .debug_str     0x0000440a       0x20 /media/data/coding/GSoC/AVT/px4+mavlink/Firmware/Build/px4io-v2_default.build/nuttx-export/libs/libnuttx.a(c-lib_strdup.o)
                                0x12c (size before relaxing)
 .debug_str     0x0000442a       0x2f /media/data/coding/GSoC/AVT/px4+mavlink/Firmware/Build/px4io-v2_default.build/nuttx-export/libs/libnuttx.a(arch-stm32_timerisr.o)
                                0x169 (size before relaxing)
 .debug_str     0x00004459       0x43 /media/data/coding/GSoC/AVT/px4+mavlink/Firmware/Build/px4io-v2_default.build/nuttx-export/libs/libnuttx.a(arch-up_createstack.o)
                                0x4d1 (size before relaxing)
 .debug_str     0x0000449c       0x26 /media/data/coding/GSoC/AVT/px4+mavlink/Firmware/Build/px4io-v2_default.build/nuttx-export/libs/libnuttx.a(arch-up_doirq.o)
                                0x15f (size before relaxing)
 .debug_str     0x000044c2       0x2a /media/data/coding/GSoC/AVT/px4+mavlink/Firmware/Build/px4io-v2_default.build/nuttx-export/libs/libnuttx.a(arch-up_releasestack.o)
                                0x4b2 (size before relaxing)
 .debug_str     0x000044ec        0xb /media/data/coding/GSoC/AVT/px4+mavlink/Firmware/Build/px4io-v2_default.build/nuttx-export/libs/libnuttx.a(fs-fs_close.o)
                                0x122 (size before relaxing)
 .debug_str     0x000044f7       0x23 /media/data/coding/GSoC/AVT/px4+mavlink/Firmware/Build/px4io-v2_default.build/nuttx-export/libs/libnuttx.a(fs-fs_filedup2.o)
                                0x365 (size before relaxing)
 .debug_str     0x0000451a       0x5f /media/data/coding/GSoC/AVT/px4+mavlink/Firmware/Build/px4io-v2_default.build/nuttx-export/libs/libnuttx.a(fs-fs_inodereserve.o)
                                0x3a6 (size before relaxing)
 .debug_str     0x00004579       0x2c /media/data/coding/GSoC/AVT/px4+mavlink/Firmware/Build/px4io-v2_default.build/nuttx-export/libs/libnuttx.a(sched-group_setuptaskfiles.o)
                                0x4c0 (size before relaxing)
 .debug_str     0x000045a5       0x1c /media/data/coding/GSoC/AVT/px4+mavlink/Firmware/Build/px4io-v2_default.build/nuttx-export/libs/libnuttx.a(sched-irq_dispatch.o)
                                0x14b (size before relaxing)
 .debug_str     0x000045c1       0x1c /media/data/coding/GSoC/AVT/px4+mavlink/Firmware/Build/px4io-v2_default.build/nuttx-export/libs/libnuttx.a(sched-sched_gettcb.o)
                                0x4b9 (size before relaxing)
 .debug_str     0x000045dd       0x18 /media/data/coding/GSoC/AVT/px4+mavlink/Firmware/Build/px4io-v2_default.build/nuttx-export/libs/libnuttx.a(sched-sched_lock.o)
                                0x4d6 (size before relaxing)
 .debug_str     0x000045f5       0x41 /media/data/coding/GSoC/AVT/px4+mavlink/Firmware/Build/px4io-v2_default.build/nuttx-export/libs/libnuttx.a(sched-sched_processtimer.o)
                                0x14e (size before relaxing)
 .debug_str     0x00004636       0x35 /media/data/coding/GSoC/AVT/px4+mavlink/Firmware/Build/px4io-v2_default.build/nuttx-export/libs/libnuttx.a(sched-sched_releasetcb.o)
                                0x4fb (size before relaxing)
 .debug_str     0x0000466b       0x1c /media/data/coding/GSoC/AVT/px4+mavlink/Firmware/Build/px4io-v2_default.build/nuttx-export/libs/libnuttx.a(sched-sched_unlock.o)
                                0x50f (size before relaxing)
 .debug_str     0x00004687       0x1e /media/data/coding/GSoC/AVT/px4+mavlink/Firmware/Build/px4io-v2_default.build/nuttx-export/libs/libnuttx.a(sched-task_activate.o)
                                0x4ba (size before relaxing)
 .debug_str     0x000046a5       0x1b /media/data/coding/GSoC/AVT/px4+mavlink/Firmware/Build/px4io-v2_default.build/nuttx-export/libs/libnuttx.a(c-lib_strcpy.o)
                                0x111 (size before relaxing)
 .debug_str     0x000046c0       0x2f /media/data/coding/GSoC/AVT/px4+mavlink/Firmware/Build/px4io-v2_default.build/nuttx-export/libs/libnuttx.a(arch-up_releasepending.o)
                                0x509 (size before relaxing)

.debug_loc      0x00000000    0x12340
 .debug_loc     0x00000000       0x20 /media/data/coding/GSoC/AVT/px4+mavlink/Firmware/Build/px4io-v2_default.build//media/data/coding/GSoC/AVT/px4+mavlink/Firmware/src/drivers/boards/px4io-v2/module.pre.o
 .debug_loc     0x00000020     0x1345 /media/data/coding/GSoC/AVT/px4+mavlink/Firmware/Build/px4io-v2_default.build//media/data/coding/GSoC/AVT/px4+mavlink/Firmware/src/drivers/stm32/module.pre.o
 .debug_loc     0x00001365     0x4de5 /media/data/coding/GSoC/AVT/px4+mavlink/Firmware/Build/px4io-v2_default.build//media/data/coding/GSoC/AVT/px4+mavlink/Firmware/src/modules/px4iofirmware/module.pre.o
 .debug_loc     0x0000614a       0xbb /media/data/coding/GSoC/AVT/px4+mavlink/Firmware/Build/px4io-v2_default.build/nuttx-export/libs/libnuttx.a(sched-irq_attach.o)
 .debug_loc     0x00006205       0x14 /media/data/coding/GSoC/AVT/px4+mavlink/Firmware/Build/px4io-v2_default.build/nuttx-export/libs/libnuttx.a(sched-irq_initialize.o)
 .debug_loc     0x00006219       0x46 /media/data/coding/GSoC/AVT/px4+mavlink/Firmware/Build/px4io-v2_default.build/nuttx-export/libs/libnuttx.a(sched-irq_unexpectedisr.o)
 .debug_loc     0x0000625f       0x20 /media/data/coding/GSoC/AVT/px4+mavlink/Firmware/Build/px4io-v2_default.build/nuttx-export/libs/libnuttx.a(c-lib_abort.o)
 .debug_loc     0x0000627f       0x13 /media/data/coding/GSoC/AVT/px4+mavlink/Firmware/Build/px4io-v2_default.build/nuttx-export/libs/libnuttx.a(c-lib_cfsetspeed.o)
 .debug_loc     0x00006292      0x115 /media/data/coding/GSoC/AVT/px4+mavlink/Firmware/Build/px4io-v2_default.build/nuttx-export/libs/libnuttx.a(c-lib_crc32.o)
 .debug_loc     0x000063a7       0xa0 /media/data/coding/GSoC/AVT/px4+mavlink/Firmware/Build/px4io-v2_default.build/nuttx-export/libs/libnuttx.a(c-lib_lowsyslog.o)
 .debug_loc     0x00006447       0xf1 /media/data/coding/GSoC/AVT/px4+mavlink/Firmware/Build/px4io-v2_default.build/nuttx-export/libs/libnuttx.a(c-lib_memchr.o)
 .debug_loc     0x00006538      0x105 /media/data/coding/GSoC/AVT/px4+mavlink/Firmware/Build/px4io-v2_default.build/nuttx-export/libs/libnuttx.a(c-lib_memcpy.o)
 .debug_loc     0x0000663d      0x117 /media/data/coding/GSoC/AVT/px4+mavlink/Firmware/Build/px4io-v2_default.build/nuttx-export/libs/libnuttx.a(c-lib_memset.o)
 .debug_loc     0x00006754       0x38 /media/data/coding/GSoC/AVT/px4+mavlink/Firmware/Build/px4io-v2_default.build/nuttx-export/libs/libnuttx.a(c-lib_printf.o)
 .debug_loc     0x0000678c      0x610 /media/data/coding/GSoC/AVT/px4+mavlink/Firmware/Build/px4io-v2_default.build/nuttx-export/libs/libnuttx.a(c-lib_sscanf.o)
 .debug_loc     0x00006d9c       0x1e /media/data/coding/GSoC/AVT/px4+mavlink/Firmware/Build/px4io-v2_default.build/nuttx-export/libs/libnuttx.a(c-lib_strchr.o)
 .debug_loc     0x00006dba       0x2b /media/data/coding/GSoC/AVT/px4+mavlink/Firmware/Build/px4io-v2_default.build/nuttx-export/libs/libnuttx.a(c-lib_strcmp.o)
 .debug_loc     0x00006de5       0x87 /media/data/coding/GSoC/AVT/px4+mavlink/Firmware/Build/px4io-v2_default.build/nuttx-export/libs/libnuttx.a(c-lib_strcspn.o)
 .debug_loc     0x00006e6c       0x9b /media/data/coding/GSoC/AVT/px4+mavlink/Firmware/Build/px4io-v2_default.build/nuttx-export/libs/libnuttx.a(c-lib_strncpy.o)
 .debug_loc     0x00006f07      0x103 /media/data/coding/GSoC/AVT/px4+mavlink/Firmware/Build/px4io-v2_default.build/nuttx-export/libs/libnuttx.a(c-lib_strtol.o)
 .debug_loc     0x0000700a       0xbc /media/data/coding/GSoC/AVT/px4+mavlink/Firmware/Build/px4io-v2_default.build/nuttx-export/libs/libnuttx.a(c-lib_strtoul.o)
 .debug_loc     0x000070c6       0xa0 /media/data/coding/GSoC/AVT/px4+mavlink/Firmware/Build/px4io-v2_default.build/nuttx-export/libs/libnuttx.a(c-lib_syslog.o)
 .debug_loc     0x00007166       0x31 /media/data/coding/GSoC/AVT/px4+mavlink/Firmware/Build/px4io-v2_default.build/nuttx-export/libs/libnuttx.a(c-lib_tcgetattr.o)
 .debug_loc     0x00007197       0x5a /media/data/coding/GSoC/AVT/px4+mavlink/Firmware/Build/px4io-v2_default.build/nuttx-export/libs/libnuttx.a(c-lib_tcsetattr.o)
 .debug_loc     0x000071f1       0xa4 /media/data/coding/GSoC/AVT/px4+mavlink/Firmware/Build/px4io-v2_default.build/nuttx-export/libs/libnuttx.a(c-lib_vsnprintf.o)
 .debug_loc     0x00007295       0x4f /media/data/coding/GSoC/AVT/px4+mavlink/Firmware/Build/px4io-v2_default.build/nuttx-export/libs/libnuttx.a(c-sq_addafter.o)
 .debug_loc     0x000072e4       0x7f /media/data/coding/GSoC/AVT/px4+mavlink/Firmware/Build/px4io-v2_default.build/nuttx-export/libs/libnuttx.a(c-sq_rem.o)
 .debug_loc     0x00007363       0x5b /media/data/coding/GSoC/AVT/px4+mavlink/Firmware/Build/px4io-v2_default.build/nuttx-export/libs/libnuttx.a(mm-mm_calloc.o)
 .debug_loc     0x000073be       0xec /media/data/coding/GSoC/AVT/px4+mavlink/Firmware/Build/px4io-v2_default.build/nuttx-export/libs/libnuttx.a(mm-mm_free.o)
 .debug_loc     0x000074aa      0x158 /media/data/coding/GSoC/AVT/px4+mavlink/Firmware/Build/px4io-v2_default.build/nuttx-export/libs/libnuttx.a(mm-mm_mallinfo.o)
 .debug_loc     0x00007602      0x13f /media/data/coding/GSoC/AVT/px4+mavlink/Firmware/Build/px4io-v2_default.build/nuttx-export/libs/libnuttx.a(mm-mm_malloc.o)
 .debug_loc     0x00007741      0x129 /media/data/coding/GSoC/AVT/px4+mavlink/Firmware/Build/px4io-v2_default.build/nuttx-export/libs/libnuttx.a(mm-mm_sem.o)
 .debug_loc     0x0000786a       0x5f /media/data/coding/GSoC/AVT/px4+mavlink/Firmware/Build/px4io-v2_default.build/nuttx-export/libs/libnuttx.a(mm-mm_size2ndx.o)
 .debug_loc     0x000078c9       0x78 /media/data/coding/GSoC/AVT/px4+mavlink/Firmware/Build/px4io-v2_default.build/nuttx-export/libs/libnuttx.a(mm-mm_user.o)
 .debug_loc     0x00007941       0x5c /media/data/coding/GSoC/AVT/px4+mavlink/Firmware/Build/px4io-v2_default.build/nuttx-export/libs/libnuttx.a(mm-mm_zalloc.o)
 .debug_loc     0x0000799d      0x9ee /media/data/coding/GSoC/AVT/px4+mavlink/Firmware/Build/px4io-v2_default.build/nuttx-export/libs/libnuttx.a(arch-stm32_dma.o)
 .debug_loc     0x0000838b      0x395 /media/data/coding/GSoC/AVT/px4+mavlink/Firmware/Build/px4io-v2_default.build/nuttx-export/libs/libnuttx.a(arch-stm32_gpio.o)
 .debug_loc     0x00008720      0x390 /media/data/coding/GSoC/AVT/px4+mavlink/Firmware/Build/px4io-v2_default.build/nuttx-export/libs/libnuttx.a(arch-stm32_irq.o)
 .debug_loc     0x00008ab0     0x182c /media/data/coding/GSoC/AVT/px4+mavlink/Firmware/Build/px4io-v2_default.build/nuttx-export/libs/libnuttx.a(arch-stm32_serial.o)
 .debug_loc     0x0000a2dc       0x4c /media/data/coding/GSoC/AVT/px4+mavlink/Firmware/Build/px4io-v2_default.build/nuttx-export/libs/libnuttx.a(arch-stm32_start.o)
 .debug_loc     0x0000a328      0x1cb /media/data/coding/GSoC/AVT/px4+mavlink/Firmware/Build/px4io-v2_default.build/nuttx-export/libs/libnuttx.a(arch-up_assert.o)
 .debug_loc     0x0000a4f3       0x8e /media/data/coding/GSoC/AVT/px4+mavlink/Firmware/Build/px4io-v2_default.build/nuttx-export/libs/libnuttx.a(arch-up_hardfault.o)
 .debug_loc     0x0000a581       0x5c /media/data/coding/GSoC/AVT/px4+mavlink/Firmware/Build/px4io-v2_default.build/nuttx-export/libs/libnuttx.a(arch-up_modifyreg32.o)
 .debug_loc     0x0000a5dd       0xbb /media/data/coding/GSoC/AVT/px4+mavlink/Firmware/Build/px4io-v2_default.build/nuttx-export/libs/libnuttx.a(arch-up_svcall.o)
 .debug_loc     0x0000a698       0xaf /media/data/coding/GSoC/AVT/px4+mavlink/Firmware/Build/px4io-v2_default.build/nuttx-export/libs/libnuttx.a(arch-up_udelay.o)
 .debug_loc     0x0000a747       0x13 /media/data/coding/GSoC/AVT/px4+mavlink/Firmware/Build/px4io-v2_default.build/nuttx-export/libs/libnuttx.a(cxx-libxx_cxa_atexit.o)
 .debug_loc     0x0000a75a       0x20 /media/data/coding/GSoC/AVT/px4+mavlink/Firmware/Build/px4io-v2_default.build/nuttx-export/libs/libnuttx.a(cxx-libxx_cxapurevirtual.o)
 .debug_loc     0x0000a77a       0x13 /media/data/coding/GSoC/AVT/px4+mavlink/Firmware/Build/px4io-v2_default.build/nuttx-export/libs/libnuttx.a(cxx-libxx_delete.o)
 .debug_loc     0x0000a78d       0x4f /media/data/coding/GSoC/AVT/px4+mavlink/Firmware/Build/px4io-v2_default.build/nuttx-export/libs/libnuttx.a(cxx-libxx_eabi_atexit.o)
 .debug_loc     0x0000a7dc       0x13 /media/data/coding/GSoC/AVT/px4+mavlink/Firmware/Build/px4io-v2_default.build/nuttx-export/libs/libnuttx.a(cxx-libxx_new.o)
 .debug_loc     0x0000a7ef      0x163 /media/data/coding/GSoC/AVT/px4+mavlink/Firmware/Build/px4io-v2_default.build/nuttx-export/libs/libnuttx.a(fs-fs_ioctl.o)
 .debug_loc     0x0000a952      0x1fa /media/data/coding/GSoC/AVT/px4+mavlink/Firmware/Build/px4io-v2_default.build/nuttx-export/libs/libnuttx.a(fs-fs_open.o)
 .debug_loc     0x0000ab4c      0x1f0 /media/data/coding/GSoC/AVT/px4+mavlink/Firmware/Build/px4io-v2_default.build/nuttx-export/libs/libnuttx.a(fs-fs_read.o)
 .debug_loc     0x0000ad3c      0x197 /media/data/coding/GSoC/AVT/px4+mavlink/Firmware/Build/px4io-v2_default.build/nuttx-export/libs/libnuttx.a(fs-fs_write.o)
 .debug_loc     0x0000aed3      0x102 /media/data/coding/GSoC/AVT/px4+mavlink/Firmware/Build/px4io-v2_default.build/nuttx-export/libs/libnuttx.a(drivers-serialirq.o)
 .debug_loc     0x0000afd5      0x922 /media/data/coding/GSoC/AVT/px4+mavlink/Firmware/Build/px4io-v2_default.build/nuttx-export/libs/libnuttx.a(drivers-serial.o)
 .debug_loc     0x0000b8f7       0x4b /media/data/coding/GSoC/AVT/px4+mavlink/Firmware/Build/px4io-v2_default.build/nuttx-export/libs/libnuttx.a(sched-errno_getptr.o)
 .debug_loc     0x0000b942       0x51 /media/data/coding/GSoC/AVT/px4+mavlink/Firmware/Build/px4io-v2_default.build/nuttx-export/libs/libnuttx.a(sched-exit.o)
 .debug_loc     0x0000b993       0x2c /media/data/coding/GSoC/AVT/px4+mavlink/Firmware/Build/px4io-v2_default.build/nuttx-export/libs/libnuttx.a(sched-os_start.o)
 .debug_loc     0x0000b9bf       0x7a /media/data/coding/GSoC/AVT/px4+mavlink/Firmware/Build/px4io-v2_default.build/nuttx-export/libs/libnuttx.a(sched-sched_garbage.o)
 .debug_loc     0x0000ba39      0x102 /media/data/coding/GSoC/AVT/px4+mavlink/Firmware/Build/px4io-v2_default.build/nuttx-export/libs/libnuttx.a(sched-sem_post.o)
 .debug_loc     0x0000bb3b       0xbf /media/data/coding/GSoC/AVT/px4+mavlink/Firmware/Build/px4io-v2_default.build/nuttx-export/libs/libnuttx.a(sched-sem_trywait.o)
 .debug_loc     0x0000bbfa       0xfa /media/data/coding/GSoC/AVT/px4+mavlink/Firmware/Build/px4io-v2_default.build/nuttx-export/libs/libnuttx.a(sched-sem_wait.o)
 .debug_loc     0x0000bcf4       0x64 /media/data/coding/GSoC/AVT/px4+mavlink/Firmware/Build/px4io-v2_default.build/nuttx-export/libs/libnuttx.a(sched-task_exithook.o)
 .debug_loc     0x0000bd58       0x3e /media/data/coding/GSoC/AVT/px4+mavlink/Firmware/Build/px4io-v2_default.build/nuttx-export/libs/libnuttx.a(sched-task_recover.o)
 .debug_loc     0x0000bd96       0xea /media/data/coding/GSoC/AVT/px4+mavlink/Firmware/Build/px4io-v2_default.build/nuttx-export/libs/libnuttx.a(sched-wd_cancel.o)
 .debug_loc     0x0000be80       0x64 /media/data/coding/GSoC/AVT/px4+mavlink/Firmware/Build/px4io-v2_default.build/nuttx-export/libs/libnuttx.a(sched-wd_delete.o)
 .debug_loc     0x0000bee4       0x6b /media/data/coding/GSoC/AVT/px4+mavlink/Firmware/Build/px4io-v2_default.build/nuttx-export/libs/libnuttx.a(sched-wd_initialize.o)
 .debug_loc     0x0000bf4f       0x13 /media/data/coding/GSoC/AVT/px4+mavlink/Firmware/Build/px4io-v2_default.build/nuttx-export/libs/libnuttx.a(c-lib_cfgetspeed.o)
 .debug_loc     0x0000bf62       0xde /media/data/coding/GSoC/AVT/px4+mavlink/Firmware/Build/px4io-v2_default.build/nuttx-export/libs/libnuttx.a(c-lib_checkbase.o)
 .debug_loc     0x0000c040      0x146 /media/data/coding/GSoC/AVT/px4+mavlink/Firmware/Build/px4io-v2_default.build/nuttx-export/libs/libnuttx.a(c-lib_isbasedigit.o)
 .debug_loc     0x0000c186     0x2a47 /media/data/coding/GSoC/AVT/px4+mavlink/Firmware/Build/px4io-v2_default.build/nuttx-export/libs/libnuttx.a(c-lib_libvsprintf.o)
 .debug_loc     0x0000ebcd       0x51 /media/data/coding/GSoC/AVT/px4+mavlink/Firmware/Build/px4io-v2_default.build/nuttx-export/libs/libnuttx.a(c-lib_lowoutstream.o)
 .debug_loc     0x0000ec1e       0x79 /media/data/coding/GSoC/AVT/px4+mavlink/Firmware/Build/px4io-v2_default.build/nuttx-export/libs/libnuttx.a(c-lib_memoutstream.o)
 .debug_loc     0x0000ec97       0x13 /media/data/coding/GSoC/AVT/px4+mavlink/Firmware/Build/px4io-v2_default.build/nuttx-export/libs/libnuttx.a(c-lib_nulloutstream.o)
 .debug_loc     0x0000ecaa       0x99 /media/data/coding/GSoC/AVT/px4+mavlink/Firmware/Build/px4io-v2_default.build/nuttx-export/libs/libnuttx.a(c-lib_rawoutstream.o)
 .debug_loc     0x0000ed43       0x2a /media/data/coding/GSoC/AVT/px4+mavlink/Firmware/Build/px4io-v2_default.build/nuttx-export/libs/libnuttx.a(c-lib_skipspace.o)
 .debug_loc     0x0000ed6d       0x47 /media/data/coding/GSoC/AVT/px4+mavlink/Firmware/Build/px4io-v2_default.build/nuttx-export/libs/libnuttx.a(c-lib_strlen.o)
 .debug_loc     0x0000edb4       0x64 /media/data/coding/GSoC/AVT/px4+mavlink/Firmware/Build/px4io-v2_default.build/nuttx-export/libs/libnuttx.a(c-sem_init.o)
 .debug_loc     0x0000ee18       0x66 /media/data/coding/GSoC/AVT/px4+mavlink/Firmware/Build/px4io-v2_default.build/nuttx-export/libs/libnuttx.a(c-sq_remafter.o)
 .debug_loc     0x0000ee7e       0x3d /media/data/coding/GSoC/AVT/px4+mavlink/Firmware/Build/px4io-v2_default.build/nuttx-export/libs/libnuttx.a(c-sq_remfirst.o)
 .debug_loc     0x0000eebb       0xef /media/data/coding/GSoC/AVT/px4+mavlink/Firmware/Build/px4io-v2_default.build/nuttx-export/libs/libnuttx.a(mm-mm_addfreechunk.o)
 .debug_loc     0x0000efaa      0x232 /media/data/coding/GSoC/AVT/px4+mavlink/Firmware/Build/px4io-v2_default.build/nuttx-export/libs/libnuttx.a(mm-mm_initialize.o)
 .debug_loc     0x0000f1dc       0x8d /media/data/coding/GSoC/AVT/px4+mavlink/Firmware/Build/px4io-v2_default.build/nuttx-export/libs/libnuttx.a(arch-stm32_lowputc.o)
 .debug_loc     0x0000f269      0x1a5 /media/data/coding/GSoC/AVT/px4+mavlink/Firmware/Build/px4io-v2_default.build/nuttx-export/libs/libnuttx.a(arch-stm32_rcc.o)
 .debug_loc     0x0000f40e       0xf1 /media/data/coding/GSoC/AVT/px4+mavlink/Firmware/Build/px4io-v2_default.build/nuttx-export/libs/libnuttx.a(arch-up_blocktask.o)
 .debug_loc     0x0000f4ff       0x53 /media/data/coding/GSoC/AVT/px4+mavlink/Firmware/Build/px4io-v2_default.build/nuttx-export/libs/libnuttx.a(arch-up_copystate.o)
 .debug_loc     0x0000f552       0x53 /media/data/coding/GSoC/AVT/px4+mavlink/Firmware/Build/px4io-v2_default.build/nuttx-export/libs/libnuttx.a(arch-up_exit.o)
 .debug_loc     0x0000f5a5       0x20 /media/data/coding/GSoC/AVT/px4+mavlink/Firmware/Build/px4io-v2_default.build/nuttx-export/libs/libnuttx.a(arch-up_initialize.o)
 .debug_loc     0x0000f5c5       0x60 /media/data/coding/GSoC/AVT/px4+mavlink/Firmware/Build/px4io-v2_default.build/nuttx-export/libs/libnuttx.a(arch-up_initialstate.o)
 .debug_loc     0x0000f625       0x76 /media/data/coding/GSoC/AVT/px4+mavlink/Firmware/Build/px4io-v2_default.build/nuttx-export/libs/libnuttx.a(arch-up_mdelay.o)
 .debug_loc     0x0000f69b       0xaa /media/data/coding/GSoC/AVT/px4+mavlink/Firmware/Build/px4io-v2_default.build/nuttx-export/libs/libnuttx.a(arch-up_unblocktask.o)
 .debug_loc     0x0000f745      0x5fd /media/data/coding/GSoC/AVT/px4+mavlink/Firmware/Build/px4io-v2_default.build/nuttx-export/libs/libnuttx.a(fs-fs_files.o)
 .debug_loc     0x0000fd42       0x3e /media/data/coding/GSoC/AVT/px4+mavlink/Firmware/Build/px4io-v2_default.build/nuttx-export/libs/libnuttx.a(fs-fs_inodeaddref.o)
 .debug_loc     0x0000fd80       0x86 /media/data/coding/GSoC/AVT/px4+mavlink/Firmware/Build/px4io-v2_default.build/nuttx-export/libs/libnuttx.a(fs-fs_inodefind.o)
 .debug_loc     0x0000fe06      0xb17 /media/data/coding/GSoC/AVT/px4+mavlink/Firmware/Build/px4io-v2_default.build/nuttx-export/libs/libnuttx.a(fs-fs_inode.o)
 .debug_loc     0x0001091d       0x3e /media/data/coding/GSoC/AVT/px4+mavlink/Firmware/Build/px4io-v2_default.build/nuttx-export/libs/libnuttx.a(fs-fs_inoderelease.o)
 .debug_loc     0x0001095b       0xb7 /media/data/coding/GSoC/AVT/px4+mavlink/Firmware/Build/px4io-v2_default.build/nuttx-export/libs/libnuttx.a(fs-fs_registerdriver.o)
 .debug_loc     0x00010a12       0xae /media/data/coding/GSoC/AVT/px4+mavlink/Firmware/Build/px4io-v2_default.build/nuttx-export/libs/libnuttx.a(sched-group_create.o)
 .debug_loc     0x00010ac0       0x5d /media/data/coding/GSoC/AVT/px4+mavlink/Firmware/Build/px4io-v2_default.build/nuttx-export/libs/libnuttx.a(sched-group_leave.o)
 .debug_loc     0x00010b1d       0x65 /media/data/coding/GSoC/AVT/px4+mavlink/Firmware/Build/px4io-v2_default.build/nuttx-export/libs/libnuttx.a(sched-group_setupidlefiles.o)
 .debug_loc     0x00010b82       0x4a /media/data/coding/GSoC/AVT/px4+mavlink/Firmware/Build/px4io-v2_default.build/nuttx-export/libs/libnuttx.a(sched-os_bringup.o)
 .debug_loc     0x00010bcc       0x51 /media/data/coding/GSoC/AVT/px4+mavlink/Firmware/Build/px4io-v2_default.build/nuttx-export/libs/libnuttx.a(sched-sched_addblocked.o)
 .debug_loc     0x00010c1d      0x11f /media/data/coding/GSoC/AVT/px4+mavlink/Firmware/Build/px4io-v2_default.build/nuttx-export/libs/libnuttx.a(sched-sched_addprioritized.o)
 .debug_loc     0x00010d3c       0x69 /media/data/coding/GSoC/AVT/px4+mavlink/Firmware/Build/px4io-v2_default.build/nuttx-export/libs/libnuttx.a(sched-sched_addreadytorun.o)
 .debug_loc     0x00010da5       0x64 /media/data/coding/GSoC/AVT/px4+mavlink/Firmware/Build/px4io-v2_default.build/nuttx-export/libs/libnuttx.a(sched-sched_free.o)
 .debug_loc     0x00010e09      0x129 /media/data/coding/GSoC/AVT/px4+mavlink/Firmware/Build/px4io-v2_default.build/nuttx-export/libs/libnuttx.a(sched-sched_mergepending.o)
 .debug_loc     0x00010f32       0x5c /media/data/coding/GSoC/AVT/px4+mavlink/Firmware/Build/px4io-v2_default.build/nuttx-export/libs/libnuttx.a(sched-sched_removeblocked.o)
 .debug_loc     0x00010f8e       0x8c /media/data/coding/GSoC/AVT/px4+mavlink/Firmware/Build/px4io-v2_default.build/nuttx-export/libs/libnuttx.a(sched-sched_removereadytorun.o)
 .debug_loc     0x0001101a       0x49 /media/data/coding/GSoC/AVT/px4+mavlink/Firmware/Build/px4io-v2_default.build/nuttx-export/libs/libnuttx.a(sched-sem_destroy.o)
 .debug_loc     0x00011063      0x2a9 /media/data/coding/GSoC/AVT/px4+mavlink/Firmware/Build/px4io-v2_default.build/nuttx-export/libs/libnuttx.a(sched-task_create.o)
 .debug_loc     0x0001130c       0x20 /media/data/coding/GSoC/AVT/px4+mavlink/Firmware/Build/px4io-v2_default.build/nuttx-export/libs/libnuttx.a(sched-task_exit.o)
 .debug_loc     0x0001132c      0x3a2 /media/data/coding/GSoC/AVT/px4+mavlink/Firmware/Build/px4io-v2_default.build/nuttx-export/libs/libnuttx.a(sched-task_setup.o)
 .debug_loc     0x000116ce       0xbb /media/data/coding/GSoC/AVT/px4+mavlink/Firmware/Build/px4io-v2_default.build/nuttx-export/libs/libnuttx.a(sched-task_start.o)
 .debug_loc     0x00011789       0x8a /media/data/coding/GSoC/AVT/px4+mavlink/Firmware/Build/px4io-v2_default.build/nuttx-export/libs/libnuttx.a(sched-task_terminate.o)
 .debug_loc     0x00011813       0x1e /media/data/coding/GSoC/AVT/px4+mavlink/Firmware/Build/px4io-v2_default.build/nuttx-export/libs/libnuttx.a(c-dq_rem.o)
 .debug_loc     0x00011831       0x68 /media/data/coding/GSoC/AVT/px4+mavlink/Firmware/Build/px4io-v2_default.build/nuttx-export/libs/libnuttx.a(c-lib_strdup.o)
 .debug_loc     0x00011899       0x8f /media/data/coding/GSoC/AVT/px4+mavlink/Firmware/Build/px4io-v2_default.build/nuttx-export/libs/libnuttx.a(arch-stm32_timerisr.o)
 .debug_loc     0x00011928       0xcb /media/data/coding/GSoC/AVT/px4+mavlink/Firmware/Build/px4io-v2_default.build/nuttx-export/libs/libnuttx.a(arch-up_createstack.o)
 .debug_loc     0x000119f3       0x92 /media/data/coding/GSoC/AVT/px4+mavlink/Firmware/Build/px4io-v2_default.build/nuttx-export/libs/libnuttx.a(arch-up_doirq.o)
 .debug_loc     0x00011a85       0x51 /media/data/coding/GSoC/AVT/px4+mavlink/Firmware/Build/px4io-v2_default.build/nuttx-export/libs/libnuttx.a(arch-up_releasestack.o)
 .debug_loc     0x00011ad6       0x7a /media/data/coding/GSoC/AVT/px4+mavlink/Firmware/Build/px4io-v2_default.build/nuttx-export/libs/libnuttx.a(fs-fs_close.o)
 .debug_loc     0x00011b50       0x9b /media/data/coding/GSoC/AVT/px4+mavlink/Firmware/Build/px4io-v2_default.build/nuttx-export/libs/libnuttx.a(fs-fs_filedup2.o)
 .debug_loc     0x00011beb      0x416 /media/data/coding/GSoC/AVT/px4+mavlink/Firmware/Build/px4io-v2_default.build/nuttx-export/libs/libnuttx.a(fs-fs_inodereserve.o)
 .debug_loc     0x00012001       0x47 /media/data/coding/GSoC/AVT/px4+mavlink/Firmware/Build/px4io-v2_default.build/nuttx-export/libs/libnuttx.a(sched-group_setuptaskfiles.o)
 .debug_loc     0x00012048       0x5c /media/data/coding/GSoC/AVT/px4+mavlink/Firmware/Build/px4io-v2_default.build/nuttx-export/libs/libnuttx.a(sched-irq_dispatch.o)
 .debug_loc     0x000120a4       0x7f /media/data/coding/GSoC/AVT/px4+mavlink/Firmware/Build/px4io-v2_default.build/nuttx-export/libs/libnuttx.a(sched-sched_gettcb.o)
 .debug_loc     0x00012123       0x20 /media/data/coding/GSoC/AVT/px4+mavlink/Firmware/Build/px4io-v2_default.build/nuttx-export/libs/libnuttx.a(sched-sched_lock.o)
 .debug_loc     0x00012143       0x20 /media/data/coding/GSoC/AVT/px4+mavlink/Firmware/Build/px4io-v2_default.build/nuttx-export/libs/libnuttx.a(sched-sched_processtimer.o)
 .debug_loc     0x00012163       0xa7 /media/data/coding/GSoC/AVT/px4+mavlink/Firmware/Build/px4io-v2_default.build/nuttx-export/libs/libnuttx.a(sched-sched_releasetcb.o)
 .debug_loc     0x0001220a       0x5c /media/data/coding/GSoC/AVT/px4+mavlink/Firmware/Build/px4io-v2_default.build/nuttx-export/libs/libnuttx.a(sched-sched_unlock.o)
 .debug_loc     0x00012266       0x33 /media/data/coding/GSoC/AVT/px4+mavlink/Firmware/Build/px4io-v2_default.build/nuttx-export/libs/libnuttx.a(sched-task_activate.o)
 .debug_loc     0x00012299       0x31 /media/data/coding/GSoC/AVT/px4+mavlink/Firmware/Build/px4io-v2_default.build/nuttx-export/libs/libnuttx.a(c-lib_strcpy.o)
 .debug_loc     0x000122ca       0x76 /media/data/coding/GSoC/AVT/px4+mavlink/Firmware/Build/px4io-v2_default.build/nuttx-export/libs/libnuttx.a(arch-up_releasepending.o)

.debug_ranges   0x00000000     0x3e80
 .debug_ranges  0x00000000       0x10 /media/data/coding/GSoC/AVT/px4+mavlink/Firmware/Build/px4io-v2_default.build//media/data/coding/GSoC/AVT/px4+mavlink/Firmware/src/drivers/boards/px4io-v2/module.pre.o
 .debug_ranges  0x00000010      0x4d0 /media/data/coding/GSoC/AVT/px4+mavlink/Firmware/Build/px4io-v2_default.build//media/data/coding/GSoC/AVT/px4+mavlink/Firmware/src/drivers/stm32/module.pre.o
 .debug_ranges  0x000004e0     0x1680 /media/data/coding/GSoC/AVT/px4+mavlink/Firmware/Build/px4io-v2_default.build//media/data/coding/GSoC/AVT/px4+mavlink/Firmware/src/modules/px4iofirmware/module.pre.o
 .debug_ranges  0x00001b60       0x10 /media/data/coding/GSoC/AVT/px4+mavlink/Firmware/Build/px4io-v2_default.build/nuttx-export/libs/libnuttx.a(sched-irq_attach.o)
 .debug_ranges  0x00001b70       0x10 /media/data/coding/GSoC/AVT/px4+mavlink/Firmware/Build/px4io-v2_default.build/nuttx-export/libs/libnuttx.a(sched-irq_initialize.o)
 .debug_ranges  0x00001b80       0x10 /media/data/coding/GSoC/AVT/px4+mavlink/Firmware/Build/px4io-v2_default.build/nuttx-export/libs/libnuttx.a(sched-irq_unexpectedisr.o)
 .debug_ranges  0x00001b90       0x10 /media/data/coding/GSoC/AVT/px4+mavlink/Firmware/Build/px4io-v2_default.build/nuttx-export/libs/libnuttx.a(c-lib_abort.o)
 .debug_ranges  0x00001ba0       0x10 /media/data/coding/GSoC/AVT/px4+mavlink/Firmware/Build/px4io-v2_default.build/nuttx-export/libs/libnuttx.a(c-lib_cfsetspeed.o)
 .debug_ranges  0x00001bb0       0x48 /media/data/coding/GSoC/AVT/px4+mavlink/Firmware/Build/px4io-v2_default.build/nuttx-export/libs/libnuttx.a(c-lib_crc32.o)
 .debug_ranges  0x00001bf8       0x48 /media/data/coding/GSoC/AVT/px4+mavlink/Firmware/Build/px4io-v2_default.build/nuttx-export/libs/libnuttx.a(c-lib_lowsyslog.o)
 .debug_ranges  0x00001c40       0x10 /media/data/coding/GSoC/AVT/px4+mavlink/Firmware/Build/px4io-v2_default.build/nuttx-export/libs/libnuttx.a(c-lib_memchr.o)
 .debug_ranges  0x00001c50       0x10 /media/data/coding/GSoC/AVT/px4+mavlink/Firmware/Build/px4io-v2_default.build/nuttx-export/libs/libnuttx.a(c-lib_memcpy.o)
 .debug_ranges  0x00001c60       0x10 /media/data/coding/GSoC/AVT/px4+mavlink/Firmware/Build/px4io-v2_default.build/nuttx-export/libs/libnuttx.a(c-lib_memset.o)
 .debug_ranges  0x00001c70       0x10 /media/data/coding/GSoC/AVT/px4+mavlink/Firmware/Build/px4io-v2_default.build/nuttx-export/libs/libnuttx.a(c-lib_printf.o)
 .debug_ranges  0x00001c80       0xe8 /media/data/coding/GSoC/AVT/px4+mavlink/Firmware/Build/px4io-v2_default.build/nuttx-export/libs/libnuttx.a(c-lib_sscanf.o)
 .debug_ranges  0x00001d68       0x10 /media/data/coding/GSoC/AVT/px4+mavlink/Firmware/Build/px4io-v2_default.build/nuttx-export/libs/libnuttx.a(c-lib_strchr.o)
 .debug_ranges  0x00001d78       0x10 /media/data/coding/GSoC/AVT/px4+mavlink/Firmware/Build/px4io-v2_default.build/nuttx-export/libs/libnuttx.a(c-lib_strcmp.o)
 .debug_ranges  0x00001d88       0x10 /media/data/coding/GSoC/AVT/px4+mavlink/Firmware/Build/px4io-v2_default.build/nuttx-export/libs/libnuttx.a(c-lib_strcspn.o)
 .debug_ranges  0x00001d98       0x10 /media/data/coding/GSoC/AVT/px4+mavlink/Firmware/Build/px4io-v2_default.build/nuttx-export/libs/libnuttx.a(c-lib_strncpy.o)
 .debug_ranges  0x00001da8       0x10 /media/data/coding/GSoC/AVT/px4+mavlink/Firmware/Build/px4io-v2_default.build/nuttx-export/libs/libnuttx.a(c-lib_strtol.o)
 .debug_ranges  0x00001db8       0x10 /media/data/coding/GSoC/AVT/px4+mavlink/Firmware/Build/px4io-v2_default.build/nuttx-export/libs/libnuttx.a(c-lib_strtoul.o)
 .debug_ranges  0x00001dc8       0x48 /media/data/coding/GSoC/AVT/px4+mavlink/Firmware/Build/px4io-v2_default.build/nuttx-export/libs/libnuttx.a(c-lib_syslog.o)
 .debug_ranges  0x00001e10       0x10 /media/data/coding/GSoC/AVT/px4+mavlink/Firmware/Build/px4io-v2_default.build/nuttx-export/libs/libnuttx.a(c-lib_tcgetattr.o)
 .debug_ranges  0x00001e20       0x10 /media/data/coding/GSoC/AVT/px4+mavlink/Firmware/Build/px4io-v2_default.build/nuttx-export/libs/libnuttx.a(c-lib_tcsetattr.o)
 .debug_ranges  0x00001e30       0x10 /media/data/coding/GSoC/AVT/px4+mavlink/Firmware/Build/px4io-v2_default.build/nuttx-export/libs/libnuttx.a(c-lib_vsnprintf.o)
 .debug_ranges  0x00001e40       0x10 /media/data/coding/GSoC/AVT/px4+mavlink/Firmware/Build/px4io-v2_default.build/nuttx-export/libs/libnuttx.a(c-sq_addafter.o)
 .debug_ranges  0x00001e50       0x10 /media/data/coding/GSoC/AVT/px4+mavlink/Firmware/Build/px4io-v2_default.build/nuttx-export/libs/libnuttx.a(c-sq_addfirst.o)
 .debug_ranges  0x00001e60       0x10 /media/data/coding/GSoC/AVT/px4+mavlink/Firmware/Build/px4io-v2_default.build/nuttx-export/libs/libnuttx.a(c-sq_addlast.o)
 .debug_ranges  0x00001e70       0x30 /media/data/coding/GSoC/AVT/px4+mavlink/Firmware/Build/px4io-v2_default.build/nuttx-export/libs/libnuttx.a(c-sq_rem.o)
 .debug_ranges  0x00001ea0       0x10 /media/data/coding/GSoC/AVT/px4+mavlink/Firmware/Build/px4io-v2_default.build/nuttx-export/libs/libnuttx.a(mm-mm_calloc.o)
 .debug_ranges  0x00001eb0       0x40 /media/data/coding/GSoC/AVT/px4+mavlink/Firmware/Build/px4io-v2_default.build/nuttx-export/libs/libnuttx.a(mm-mm_free.o)
 .debug_ranges  0x00001ef0       0x50 /media/data/coding/GSoC/AVT/px4+mavlink/Firmware/Build/px4io-v2_default.build/nuttx-export/libs/libnuttx.a(mm-mm_mallinfo.o)
 .debug_ranges  0x00001f40       0x68 /media/data/coding/GSoC/AVT/px4+mavlink/Firmware/Build/px4io-v2_default.build/nuttx-export/libs/libnuttx.a(mm-mm_malloc.o)
 .debug_ranges  0x00001fa8       0x28 /media/data/coding/GSoC/AVT/px4+mavlink/Firmware/Build/px4io-v2_default.build/nuttx-export/libs/libnuttx.a(mm-mm_sem.o)
 .debug_ranges  0x00001fd0       0x10 /media/data/coding/GSoC/AVT/px4+mavlink/Firmware/Build/px4io-v2_default.build/nuttx-export/libs/libnuttx.a(mm-mm_size2ndx.o)
 .debug_ranges  0x00001fe0       0x28 /media/data/coding/GSoC/AVT/px4+mavlink/Firmware/Build/px4io-v2_default.build/nuttx-export/libs/libnuttx.a(mm-mm_user.o)
 .debug_ranges  0x00002008       0x10 /media/data/coding/GSoC/AVT/px4+mavlink/Firmware/Build/px4io-v2_default.build/nuttx-export/libs/libnuttx.a(mm-mm_zalloc.o)
 .debug_ranges  0x00002018      0x240 /media/data/coding/GSoC/AVT/px4+mavlink/Firmware/Build/px4io-v2_default.build/nuttx-export/libs/libnuttx.a(arch-stm32_dma.o)
 .debug_ranges  0x00002258       0x78 /media/data/coding/GSoC/AVT/px4+mavlink/Firmware/Build/px4io-v2_default.build/nuttx-export/libs/libnuttx.a(arch-stm32_gpio.o)
 .debug_ranges  0x000022d0       0x60 /media/data/coding/GSoC/AVT/px4+mavlink/Firmware/Build/px4io-v2_default.build/nuttx-export/libs/libnuttx.a(arch-stm32_irq.o)
 .debug_ranges  0x00002330      0x778 /media/data/coding/GSoC/AVT/px4+mavlink/Firmware/Build/px4io-v2_default.build/nuttx-export/libs/libnuttx.a(arch-stm32_serial.o)
 .debug_ranges  0x00002aa8       0x10 /media/data/coding/GSoC/AVT/px4+mavlink/Firmware/Build/px4io-v2_default.build/nuttx-export/libs/libnuttx.a(arch-stm32_start.o)
 .debug_ranges  0x00002ab8       0xc8 /media/data/coding/GSoC/AVT/px4+mavlink/Firmware/Build/px4io-v2_default.build/nuttx-export/libs/libnuttx.a(arch-up_assert.o)
 .debug_ranges  0x00002b80       0x28 /media/data/coding/GSoC/AVT/px4+mavlink/Firmware/Build/px4io-v2_default.build/nuttx-export/libs/libnuttx.a(arch-up_hardfault.o)
 .debug_ranges  0x00002ba8       0x10 /media/data/coding/GSoC/AVT/px4+mavlink/Firmware/Build/px4io-v2_default.build/nuttx-export/libs/libnuttx.a(arch-up_modifyreg32.o)
 .debug_ranges  0x00002bb8       0x10 /media/data/coding/GSoC/AVT/px4+mavlink/Firmware/Build/px4io-v2_default.build/nuttx-export/libs/libnuttx.a(arch-up_svcall.o)
 .debug_ranges  0x00002bc8       0x10 /media/data/coding/GSoC/AVT/px4+mavlink/Firmware/Build/px4io-v2_default.build/nuttx-export/libs/libnuttx.a(arch-up_udelay.o)
 .debug_ranges  0x00002bd8       0x10 /media/data/coding/GSoC/AVT/px4+mavlink/Firmware/Build/px4io-v2_default.build/nuttx-export/libs/libnuttx.a(cxx-libxx_cxa_atexit.o)
 .debug_ranges  0x00002be8       0x10 /media/data/coding/GSoC/AVT/px4+mavlink/Firmware/Build/px4io-v2_default.build/nuttx-export/libs/libnuttx.a(cxx-libxx_cxapurevirtual.o)
 .debug_ranges  0x00002bf8       0x10 /media/data/coding/GSoC/AVT/px4+mavlink/Firmware/Build/px4io-v2_default.build/nuttx-export/libs/libnuttx.a(cxx-libxx_delete.o)
 .debug_ranges  0x00002c08       0x10 /media/data/coding/GSoC/AVT/px4+mavlink/Firmware/Build/px4io-v2_default.build/nuttx-export/libs/libnuttx.a(cxx-libxx_eabi_atexit.o)
 .debug_ranges  0x00002c18       0x28 /media/data/coding/GSoC/AVT/px4+mavlink/Firmware/Build/px4io-v2_default.build/nuttx-export/libs/libnuttx.a(cxx-libxx_new.o)
 .debug_ranges  0x00002c40       0x10 /media/data/coding/GSoC/AVT/px4+mavlink/Firmware/Build/px4io-v2_default.build/nuttx-export/libs/libnuttx.a(fs-fs_ioctl.o)
 .debug_ranges  0x00002c50       0x30 /media/data/coding/GSoC/AVT/px4+mavlink/Firmware/Build/px4io-v2_default.build/nuttx-export/libs/libnuttx.a(fs-fs_open.o)
 .debug_ranges  0x00002c80       0x60 /media/data/coding/GSoC/AVT/px4+mavlink/Firmware/Build/px4io-v2_default.build/nuttx-export/libs/libnuttx.a(fs-fs_read.o)
 .debug_ranges  0x00002ce0       0x40 /media/data/coding/GSoC/AVT/px4+mavlink/Firmware/Build/px4io-v2_default.build/nuttx-export/libs/libnuttx.a(fs-fs_write.o)
 .debug_ranges  0x00002d20       0x58 /media/data/coding/GSoC/AVT/px4+mavlink/Firmware/Build/px4io-v2_default.build/nuttx-export/libs/libnuttx.a(drivers-serialirq.o)
 .debug_ranges  0x00002d78      0x1f8 /media/data/coding/GSoC/AVT/px4+mavlink/Firmware/Build/px4io-v2_default.build/nuttx-export/libs/libnuttx.a(drivers-serial.o)
 .debug_ranges  0x00002f70       0x28 /media/data/coding/GSoC/AVT/px4+mavlink/Firmware/Build/px4io-v2_default.build/nuttx-export/libs/libnuttx.a(sched-errno_getptr.o)
 .debug_ranges  0x00002f98       0x10 /media/data/coding/GSoC/AVT/px4+mavlink/Firmware/Build/px4io-v2_default.build/nuttx-export/libs/libnuttx.a(sched-exit.o)
 .debug_ranges  0x00002fa8       0x10 /media/data/coding/GSoC/AVT/px4+mavlink/Firmware/Build/px4io-v2_default.build/nuttx-export/libs/libnuttx.a(sched-getpid.o)
 .debug_ranges  0x00002fb8       0x10 /media/data/coding/GSoC/AVT/px4+mavlink/Firmware/Build/px4io-v2_default.build/nuttx-export/libs/libnuttx.a(sched-os_start.o)
 .debug_ranges  0x00002fc8       0x40 /media/data/coding/GSoC/AVT/px4+mavlink/Firmware/Build/px4io-v2_default.build/nuttx-export/libs/libnuttx.a(sched-sched_garbage.o)
 .debug_ranges  0x00003008       0x10 /media/data/coding/GSoC/AVT/px4+mavlink/Firmware/Build/px4io-v2_default.build/nuttx-export/libs/libnuttx.a(sched-sched_getfiles.o)
 .debug_ranges  0x00003018       0x10 /media/data/coding/GSoC/AVT/px4+mavlink/Firmware/Build/px4io-v2_default.build/nuttx-export/libs/libnuttx.a(sched-sem_post.o)
 .debug_ranges  0x00003028       0x28 /media/data/coding/GSoC/AVT/px4+mavlink/Firmware/Build/px4io-v2_default.build/nuttx-export/libs/libnuttx.a(sched-sem_trywait.o)
 .debug_ranges  0x00003050       0x30 /media/data/coding/GSoC/AVT/px4+mavlink/Firmware/Build/px4io-v2_default.build/nuttx-export/libs/libnuttx.a(sched-sem_wait.o)
 .debug_ranges  0x00003080       0x10 /media/data/coding/GSoC/AVT/px4+mavlink/Firmware/Build/px4io-v2_default.build/nuttx-export/libs/libnuttx.a(sched-task_exithook.o)
 .debug_ranges  0x00003090       0x10 /media/data/coding/GSoC/AVT/px4+mavlink/Firmware/Build/px4io-v2_default.build/nuttx-export/libs/libnuttx.a(sched-task_recover.o)
 .debug_ranges  0x000030a0       0x10 /media/data/coding/GSoC/AVT/px4+mavlink/Firmware/Build/px4io-v2_default.build/nuttx-export/libs/libnuttx.a(sched-wd_cancel.o)
 .debug_ranges  0x000030b0       0x10 /media/data/coding/GSoC/AVT/px4+mavlink/Firmware/Build/px4io-v2_default.build/nuttx-export/libs/libnuttx.a(sched-wd_delete.o)
 .debug_ranges  0x000030c0       0x10 /media/data/coding/GSoC/AVT/px4+mavlink/Firmware/Build/px4io-v2_default.build/nuttx-export/libs/libnuttx.a(sched-wd_initialize.o)
 .debug_ranges  0x000030d0       0x10 /media/data/coding/GSoC/AVT/px4+mavlink/Firmware/Build/px4io-v2_default.build/nuttx-export/libs/libnuttx.a(c-dq_addfirst.o)
 .debug_ranges  0x000030e0       0x10 /media/data/coding/GSoC/AVT/px4+mavlink/Firmware/Build/px4io-v2_default.build/nuttx-export/libs/libnuttx.a(c-lib_cfgetspeed.o)
 .debug_ranges  0x000030f0       0x10 /media/data/coding/GSoC/AVT/px4+mavlink/Firmware/Build/px4io-v2_default.build/nuttx-export/libs/libnuttx.a(c-lib_checkbase.o)
 .debug_ranges  0x00003100       0x10 /media/data/coding/GSoC/AVT/px4+mavlink/Firmware/Build/px4io-v2_default.build/nuttx-export/libs/libnuttx.a(c-lib_isbasedigit.o)
 .debug_ranges  0x00003110      0x180 /media/data/coding/GSoC/AVT/px4+mavlink/Firmware/Build/px4io-v2_default.build/nuttx-export/libs/libnuttx.a(c-lib_libvsprintf.o)
 .debug_ranges  0x00003290       0x18 /media/data/coding/GSoC/AVT/px4+mavlink/Firmware/Build/px4io-v2_default.build/nuttx-export/libs/libnuttx.a(c-lib_lowoutstream.o)
 .debug_ranges  0x000032a8       0x18 /media/data/coding/GSoC/AVT/px4+mavlink/Firmware/Build/px4io-v2_default.build/nuttx-export/libs/libnuttx.a(c-lib_memoutstream.o)
 .debug_ranges  0x000032c0       0x18 /media/data/coding/GSoC/AVT/px4+mavlink/Firmware/Build/px4io-v2_default.build/nuttx-export/libs/libnuttx.a(c-lib_nulloutstream.o)
 .debug_ranges  0x000032d8       0x18 /media/data/coding/GSoC/AVT/px4+mavlink/Firmware/Build/px4io-v2_default.build/nuttx-export/libs/libnuttx.a(c-lib_rawoutstream.o)
 .debug_ranges  0x000032f0       0x10 /media/data/coding/GSoC/AVT/px4+mavlink/Firmware/Build/px4io-v2_default.build/nuttx-export/libs/libnuttx.a(c-lib_skipspace.o)
 .debug_ranges  0x00003300       0x10 /media/data/coding/GSoC/AVT/px4+mavlink/Firmware/Build/px4io-v2_default.build/nuttx-export/libs/libnuttx.a(c-lib_strlen.o)
 .debug_ranges  0x00003310       0x10 /media/data/coding/GSoC/AVT/px4+mavlink/Firmware/Build/px4io-v2_default.build/nuttx-export/libs/libnuttx.a(c-sem_init.o)
 .debug_ranges  0x00003320       0x10 /media/data/coding/GSoC/AVT/px4+mavlink/Firmware/Build/px4io-v2_default.build/nuttx-export/libs/libnuttx.a(c-sq_remafter.o)
 .debug_ranges  0x00003330       0x10 /media/data/coding/GSoC/AVT/px4+mavlink/Firmware/Build/px4io-v2_default.build/nuttx-export/libs/libnuttx.a(c-sq_remfirst.o)
 .debug_ranges  0x00003340       0x10 /media/data/coding/GSoC/AVT/px4+mavlink/Firmware/Build/px4io-v2_default.build/nuttx-export/libs/libnuttx.a(mm-mm_addfreechunk.o)
 .debug_ranges  0x00003350       0x48 /media/data/coding/GSoC/AVT/px4+mavlink/Firmware/Build/px4io-v2_default.build/nuttx-export/libs/libnuttx.a(mm-mm_initialize.o)
 .debug_ranges  0x00003398       0x10 /media/data/coding/GSoC/AVT/px4+mavlink/Firmware/Build/px4io-v2_default.build/nuttx-export/libs/libnuttx.a(arch-stm32_allocateheap.o)
 .debug_ranges  0x000033a8       0x10 /media/data/coding/GSoC/AVT/px4+mavlink/Firmware/Build/px4io-v2_default.build/nuttx-export/libs/libnuttx.a(arch-stm32_idle.o)
 .debug_ranges  0x000033b8       0x18 /media/data/coding/GSoC/AVT/px4+mavlink/Firmware/Build/px4io-v2_default.build/nuttx-export/libs/libnuttx.a(arch-stm32_lowputc.o)
 .debug_ranges  0x000033d0      0x140 /media/data/coding/GSoC/AVT/px4+mavlink/Firmware/Build/px4io-v2_default.build/nuttx-export/libs/libnuttx.a(arch-stm32_rcc.o)
 .debug_ranges  0x00003510       0x28 /media/data/coding/GSoC/AVT/px4+mavlink/Firmware/Build/px4io-v2_default.build/nuttx-export/libs/libnuttx.a(arch-up_blocktask.o)
 .debug_ranges  0x00003538       0x10 /media/data/coding/GSoC/AVT/px4+mavlink/Firmware/Build/px4io-v2_default.build/nuttx-export/libs/libnuttx.a(arch-up_copystate.o)
 .debug_ranges  0x00003548       0x10 /media/data/coding/GSoC/AVT/px4+mavlink/Firmware/Build/px4io-v2_default.build/nuttx-export/libs/libnuttx.a(arch-up_exit.o)
 .debug_ranges  0x00003558       0x10 /media/data/coding/GSoC/AVT/px4+mavlink/Firmware/Build/px4io-v2_default.build/nuttx-export/libs/libnuttx.a(arch-up_initialize.o)
 .debug_ranges  0x00003568       0x10 /media/data/coding/GSoC/AVT/px4+mavlink/Firmware/Build/px4io-v2_default.build/nuttx-export/libs/libnuttx.a(arch-up_initialstate.o)
 .debug_ranges  0x00003578       0x10 /media/data/coding/GSoC/AVT/px4+mavlink/Firmware/Build/px4io-v2_default.build/nuttx-export/libs/libnuttx.a(arch-up_interruptcontext.o)
 .debug_ranges  0x00003588       0x10 /media/data/coding/GSoC/AVT/px4+mavlink/Firmware/Build/px4io-v2_default.build/nuttx-export/libs/libnuttx.a(arch-up_mdelay.o)
 .debug_ranges  0x00003598       0x28 /media/data/coding/GSoC/AVT/px4+mavlink/Firmware/Build/px4io-v2_default.build/nuttx-export/libs/libnuttx.a(arch-up_unblocktask.o)
 .debug_ranges  0x000035c0      0x1b0 /media/data/coding/GSoC/AVT/px4+mavlink/Firmware/Build/px4io-v2_default.build/nuttx-export/libs/libnuttx.a(fs-fs_files.o)
 .debug_ranges  0x00003770       0x10 /media/data/coding/GSoC/AVT/px4+mavlink/Firmware/Build/px4io-v2_default.build/nuttx-export/libs/libnuttx.a(fs-fs_inodeaddref.o)
 .debug_ranges  0x00003780       0x10 /media/data/coding/GSoC/AVT/px4+mavlink/Firmware/Build/px4io-v2_default.build/nuttx-export/libs/libnuttx.a(fs-fs_inodefind.o)
 .debug_ranges  0x00003790       0xd8 /media/data/coding/GSoC/AVT/px4+mavlink/Firmware/Build/px4io-v2_default.build/nuttx-export/libs/libnuttx.a(fs-fs_inode.o)
 .debug_ranges  0x00003868       0x10 /media/data/coding/GSoC/AVT/px4+mavlink/Firmware/Build/px4io-v2_default.build/nuttx-export/libs/libnuttx.a(fs-fs_inoderelease.o)
 .debug_ranges  0x00003878       0x10 /media/data/coding/GSoC/AVT/px4+mavlink/Firmware/Build/px4io-v2_default.build/nuttx-export/libs/libnuttx.a(fs-fs_registerdriver.o)
 .debug_ranges  0x00003888       0x18 /media/data/coding/GSoC/AVT/px4+mavlink/Firmware/Build/px4io-v2_default.build/nuttx-export/libs/libnuttx.a(sched-group_create.o)
 .debug_ranges  0x000038a0       0x10 /media/data/coding/GSoC/AVT/px4+mavlink/Firmware/Build/px4io-v2_default.build/nuttx-export/libs/libnuttx.a(sched-group_leave.o)
 .debug_ranges  0x000038b0       0x10 /media/data/coding/GSoC/AVT/px4+mavlink/Firmware/Build/px4io-v2_default.build/nuttx-export/libs/libnuttx.a(sched-group_setupidlefiles.o)
 .debug_ranges  0x000038c0       0x10 /media/data/coding/GSoC/AVT/px4+mavlink/Firmware/Build/px4io-v2_default.build/nuttx-export/libs/libnuttx.a(sched-os_bringup.o)
 .debug_ranges  0x000038d0       0x10 /media/data/coding/GSoC/AVT/px4+mavlink/Firmware/Build/px4io-v2_default.build/nuttx-export/libs/libnuttx.a(sched-sched_addblocked.o)
 .debug_ranges  0x000038e0       0x10 /media/data/coding/GSoC/AVT/px4+mavlink/Firmware/Build/px4io-v2_default.build/nuttx-export/libs/libnuttx.a(sched-sched_addprioritized.o)
 .debug_ranges  0x000038f0       0x10 /media/data/coding/GSoC/AVT/px4+mavlink/Firmware/Build/px4io-v2_default.build/nuttx-export/libs/libnuttx.a(sched-sched_addreadytorun.o)
 .debug_ranges  0x00003900       0x10 /media/data/coding/GSoC/AVT/px4+mavlink/Firmware/Build/px4io-v2_default.build/nuttx-export/libs/libnuttx.a(sched-sched_free.o)
 .debug_ranges  0x00003910       0x10 /media/data/coding/GSoC/AVT/px4+mavlink/Firmware/Build/px4io-v2_default.build/nuttx-export/libs/libnuttx.a(sched-sched_mergepending.o)
 .debug_ranges  0x00003920       0x10 /media/data/coding/GSoC/AVT/px4+mavlink/Firmware/Build/px4io-v2_default.build/nuttx-export/libs/libnuttx.a(sched-sched_removeblocked.o)
 .debug_ranges  0x00003930       0x10 /media/data/coding/GSoC/AVT/px4+mavlink/Firmware/Build/px4io-v2_default.build/nuttx-export/libs/libnuttx.a(sched-sched_removereadytorun.o)
 .debug_ranges  0x00003940       0x10 /media/data/coding/GSoC/AVT/px4+mavlink/Firmware/Build/px4io-v2_default.build/nuttx-export/libs/libnuttx.a(sched-sem_destroy.o)
 .debug_ranges  0x00003950       0x20 /media/data/coding/GSoC/AVT/px4+mavlink/Firmware/Build/px4io-v2_default.build/nuttx-export/libs/libnuttx.a(sched-task_create.o)
 .debug_ranges  0x00003970       0x10 /media/data/coding/GSoC/AVT/px4+mavlink/Firmware/Build/px4io-v2_default.build/nuttx-export/libs/libnuttx.a(sched-task_exit.o)
 .debug_ranges  0x00003980       0xe0 /media/data/coding/GSoC/AVT/px4+mavlink/Firmware/Build/px4io-v2_default.build/nuttx-export/libs/libnuttx.a(sched-task_setup.o)
 .debug_ranges  0x00003a60       0x10 /media/data/coding/GSoC/AVT/px4+mavlink/Firmware/Build/px4io-v2_default.build/nuttx-export/libs/libnuttx.a(sched-task_start.o)
 .debug_ranges  0x00003a70       0x10 /media/data/coding/GSoC/AVT/px4+mavlink/Firmware/Build/px4io-v2_default.build/nuttx-export/libs/libnuttx.a(sched-task_terminate.o)
 .debug_ranges  0x00003a80       0x10 /media/data/coding/GSoC/AVT/px4+mavlink/Firmware/Build/px4io-v2_default.build/nuttx-export/libs/libnuttx.a(c-dq_addlast.o)
 .debug_ranges  0x00003a90       0x10 /media/data/coding/GSoC/AVT/px4+mavlink/Firmware/Build/px4io-v2_default.build/nuttx-export/libs/libnuttx.a(c-dq_rem.o)
 .debug_ranges  0x00003aa0       0x10 /media/data/coding/GSoC/AVT/px4+mavlink/Firmware/Build/px4io-v2_default.build/nuttx-export/libs/libnuttx.a(c-lib_strdup.o)
 .debug_ranges  0x00003ab0       0x18 /media/data/coding/GSoC/AVT/px4+mavlink/Firmware/Build/px4io-v2_default.build/nuttx-export/libs/libnuttx.a(arch-stm32_timerisr.o)
 .debug_ranges  0x00003ac8       0x10 /media/data/coding/GSoC/AVT/px4+mavlink/Firmware/Build/px4io-v2_default.build/nuttx-export/libs/libnuttx.a(arch-up_createstack.o)
 .debug_ranges  0x00003ad8       0x10 /media/data/coding/GSoC/AVT/px4+mavlink/Firmware/Build/px4io-v2_default.build/nuttx-export/libs/libnuttx.a(arch-up_doirq.o)
 .debug_ranges  0x00003ae8       0x10 /media/data/coding/GSoC/AVT/px4+mavlink/Firmware/Build/px4io-v2_default.build/nuttx-export/libs/libnuttx.a(arch-up_releasestack.o)
 .debug_ranges  0x00003af8       0x10 /media/data/coding/GSoC/AVT/px4+mavlink/Firmware/Build/px4io-v2_default.build/nuttx-export/libs/libnuttx.a(fs-fs_close.o)
 .debug_ranges  0x00003b08       0x10 /media/data/coding/GSoC/AVT/px4+mavlink/Firmware/Build/px4io-v2_default.build/nuttx-export/libs/libnuttx.a(fs-fs_filedup2.o)
 .debug_ranges  0x00003b18      0x280 /media/data/coding/GSoC/AVT/px4+mavlink/Firmware/Build/px4io-v2_default.build/nuttx-export/libs/libnuttx.a(fs-fs_inodereserve.o)
 .debug_ranges  0x00003d98       0x10 /media/data/coding/GSoC/AVT/px4+mavlink/Firmware/Build/px4io-v2_default.build/nuttx-export/libs/libnuttx.a(sched-group_setuptaskfiles.o)
 .debug_ranges  0x00003da8       0x10 /media/data/coding/GSoC/AVT/px4+mavlink/Firmware/Build/px4io-v2_default.build/nuttx-export/libs/libnuttx.a(sched-irq_dispatch.o)
 .debug_ranges  0x00003db8       0x10 /media/data/coding/GSoC/AVT/px4+mavlink/Firmware/Build/px4io-v2_default.build/nuttx-export/libs/libnuttx.a(sched-sched_gettcb.o)
 .debug_ranges  0x00003dc8       0x10 /media/data/coding/GSoC/AVT/px4+mavlink/Firmware/Build/px4io-v2_default.build/nuttx-export/libs/libnuttx.a(sched-sched_lock.o)
 .debug_ranges  0x00003dd8       0x10 /media/data/coding/GSoC/AVT/px4+mavlink/Firmware/Build/px4io-v2_default.build/nuttx-export/libs/libnuttx.a(sched-sched_processtimer.o)
 .debug_ranges  0x00003de8       0x10 /media/data/coding/GSoC/AVT/px4+mavlink/Firmware/Build/px4io-v2_default.build/nuttx-export/libs/libnuttx.a(sched-sched_releasetcb.o)
 .debug_ranges  0x00003df8       0x40 /media/data/coding/GSoC/AVT/px4+mavlink/Firmware/Build/px4io-v2_default.build/nuttx-export/libs/libnuttx.a(sched-sched_unlock.o)
 .debug_ranges  0x00003e38       0x10 /media/data/coding/GSoC/AVT/px4+mavlink/Firmware/Build/px4io-v2_default.build/nuttx-export/libs/libnuttx.a(sched-task_activate.o)
 .debug_ranges  0x00003e48       0x10 /media/data/coding/GSoC/AVT/px4+mavlink/Firmware/Build/px4io-v2_default.build/nuttx-export/libs/libnuttx.a(c-lib_strcpy.o)
 .debug_ranges  0x00003e58       0x28 /media/data/coding/GSoC/AVT/px4+mavlink/Firmware/Build/px4io-v2_default.build/nuttx-export/libs/libnuttx.a(arch-up_releasepending.o)
